TN:
SF:/Applications/Xcode.app/Contents/Developer/Toolchains/XcodeDefault.xctoolchain/usr/include/c++/v1/__functional_base
FN:62,_ZNKSt3__14lessIiEclERKiS3_
FN:62,_ZNKSt3__14lessINS_12basic_stringIcNS_11char_traitsIcEENS_9allocatorIcEEEEEclERKS6_S9_
FN:62,_ZNKSt3__14lessIN5Catch8TestCaseEEclERKS2_S5_
FN:85,_ZNSt3__19addressofIKNS_4pairIKiN5Catch5Clara11CommandLineINS3_10ConfigDataEE3ArgEEEEEPT_RSB_
FN:85,_ZNSt3__19addressofIKwEEPT_RS2_
FN:85,_ZNSt3__19addressofIN5Catch8TestCaseEEEPT_RS3_
FN:85,_ZNSt3__19addressofINS_12__value_typeINS_12basic_stringIcNS_11char_traitsIcEENS_9allocatorIcEEEEN5Catch3PtrINS8_16IReporterFactoryEEEEEEEPT_RSD_
FN:85,_ZNSt3__19addressofIKNS_4pairIKNS_12basic_stringIcNS_11char_traitsIcEENS_9allocatorIcEEEEPN5Catch18IGeneratorsForTestEEEEEPT_RSE_
FN:85,_ZNSt3__19addressofINS_12__value_typeINS_12basic_stringIcNS_11char_traitsIcEENS_9allocatorIcEEEEN5Catch8TagAliasEEEEEPT_RSB_
FN:85,_ZNSt3__19addressofINS_12__value_typeINS_12basic_stringIcNS_11char_traitsIcEENS_9allocatorIcEEEEPN5Catch14IGeneratorInfoEEEEEPT_RSC_
FN:85,_ZNSt3__19addressofIKNS_12__value_typeINS_12basic_stringIcNS_11char_traitsIcEENS_9allocatorIcEEEEPN5Catch18IGeneratorsForTestEEEEEPT_RSD_
FN:85,_ZNSt3__19addressofIKNS_4pairIKNS_12basic_stringIcNS_11char_traitsIcEENS_9allocatorIcEEEEN5Catch8TagAliasEEEEEPT_RSD_
FN:85,_ZNSt3__19addressofINS_12__value_typeINS_12basic_stringIcNS_11char_traitsIcEENS_9allocatorIcEEEEN5Catch7TagInfoEEEEEPT_RSB_
FN:85,_ZNSt3__19addressofIKNS_12__value_typeINS_12basic_stringIcNS_11char_traitsIcEENS_9allocatorIcEEEEPN5Catch14IGeneratorInfoEEEEEPT_RSD_
FN:85,_ZNSt3__19addressofIcEEPT_RS1_
FN:85,_ZNSt3__19addressofIKNS_4pairIKNS_12basic_stringIcNS_11char_traitsIcEENS_9allocatorIcEEEEN5Catch3PtrINS9_16IReporterFactoryEEEEEEEPT_RSF_
FN:85,_ZNSt3__19addressofIKNS_4pairIKNS_12basic_stringIcNS_11char_traitsIcEENS_9allocatorIcEEEEPN5Catch14IGeneratorInfoEEEEEPT_RSE_
FN:85,_ZNSt3__19addressofINS_12basic_stringIcNS_11char_traitsIcEENS_9allocatorIcEEEEEEPT_RS7_
FN:85,_ZNSt3__19addressofINS_12__value_typeINS_12basic_stringIcNS_11char_traitsIcEENS_9allocatorIcEEEEPN5Catch18IGeneratorsForTestEEEEEPT_RSC_
FN:85,_ZNSt3__19addressofINS_12__value_typeIiN5Catch5Clara11CommandLineINS2_10ConfigDataEE3ArgEEEEEPT_RS9_
FN:85,_ZNSt3__19addressofIKNS_12__value_typeIiN5Catch5Clara11CommandLineINS2_10ConfigDataEE3ArgEEEEEPT_RSA_
FN:85,_ZNSt3__19addressofIKcEEPT_RS2_
FN:85,_ZNSt3__19addressofIKNS_12__value_typeINS_12basic_stringIcNS_11char_traitsIcEENS_9allocatorIcEEEEN5Catch3PtrINS8_16IReporterFactoryEEEEEEEPT_RSE_
FN:85,_ZNSt3__19addressofIKNS_4pairIKNS_12basic_stringIcNS_11char_traitsIcEENS_9allocatorIcEEEEN5Catch7TagInfoEEEEEPT_RSD_
FN:85,_ZNSt3__19addressofINS_4pairIKNS_12basic_stringIcNS_11char_traitsIcEENS_9allocatorIcEEEEN5Catch7TagInfoEEEEEPT_RSC_
FN:85,_ZNSt3__19addressofINS_15__tree_end_nodeIPNS_16__tree_node_baseIPvEEEEEEPT_RS7_
FN:85,_ZNSt3__19addressofIKNS_12__value_typeINS_12basic_stringIcNS_11char_traitsIcEENS_9allocatorIcEEEEN5Catch8TagAliasEEEEEPT_RSC_
FN:85,_ZNSt3__19addressofIKNS_12__value_typeINS_12basic_stringIcNS_11char_traitsIcEENS_9allocatorIcEEEEN5Catch7TagInfoEEEEEPT_RSC_
FN:85,_ZNSt3__19addressofIKN5Catch8TestCaseEEEPT_RS4_
FNDA:10,_ZNKSt3__14lessINS_12basic_stringIcNS_11char_traitsIcEENS_9allocatorIcEEEEEclERKS6_S9_
FNDA:861,_ZNSt3__19addressofIKNS_4pairIKNS_12basic_stringIcNS_11char_traitsIcEENS_9allocatorIcEEEEPN5Catch14IGeneratorInfoEEEEEPT_RSE_
FNDA:861,_ZNSt3__19addressofIKNS_4pairIKNS_12basic_stringIcNS_11char_traitsIcEENS_9allocatorIcEEEEN5Catch3PtrINS9_16IReporterFactoryEEEEEEEPT_RSF_
FNDA:861,_ZNSt3__19addressofIcEEPT_RS1_
FNDA:861,_ZNSt3__19addressofIKNS_12__value_typeIiN5Catch5Clara11CommandLineINS2_10ConfigDataEE3ArgEEEEEPT_RSA_
FNDA:861,_ZNSt3__19addressofINS_12basic_stringIcNS_11char_traitsIcEENS_9allocatorIcEEEEEEPT_RS7_
FNDA:861,_ZNSt3__19addressofINS_12__value_typeINS_12basic_stringIcNS_11char_traitsIcEENS_9allocatorIcEEEEPN5Catch18IGeneratorsForTestEEEEEPT_RSC_
FNDA:861,_ZNSt3__19addressofINS_12__value_typeIiN5Catch5Clara11CommandLineINS2_10ConfigDataEE3ArgEEEEEPT_RS9_
FNDA:10,_ZNKSt3__14lessIN5Catch8TestCaseEEclERKS2_S5_
FNDA:861,_ZNSt3__19addressofIKNS_12__value_typeINS_12basic_stringIcNS_11char_traitsIcEENS_9allocatorIcEEEEN5Catch8TagAliasEEEEEPT_RSC_
FNDA:861,_ZNSt3__19addressofIKNS_12__value_typeINS_12basic_stringIcNS_11char_traitsIcEENS_9allocatorIcEEEEN5Catch7TagInfoEEEEEPT_RSC_
FNDA:861,_ZNSt3__19addressofIKN5Catch8TestCaseEEEPT_RS4_
FNDA:861,_ZNSt3__19addressofIKcEEPT_RS2_
FNDA:861,_ZNSt3__19addressofINS_4pairIKNS_12basic_stringIcNS_11char_traitsIcEENS_9allocatorIcEEEEN5Catch7TagInfoEEEEEPT_RSC_
FNDA:861,_ZNSt3__19addressofIKNS_4pairIKNS_12basic_stringIcNS_11char_traitsIcEENS_9allocatorIcEEEEN5Catch7TagInfoEEEEEPT_RSD_
FNDA:861,_ZNSt3__19addressofIKNS_12__value_typeINS_12basic_stringIcNS_11char_traitsIcEENS_9allocatorIcEEEEN5Catch3PtrINS8_16IReporterFactoryEEEEEEEPT_RSE_
FNDA:861,_ZNSt3__19addressofINS_15__tree_end_nodeIPNS_16__tree_node_baseIPvEEEEEEPT_RS7_
FNDA:861,_ZNSt3__19addressofIKNS_4pairIKiN5Catch5Clara11CommandLineINS3_10ConfigDataEE3ArgEEEEEPT_RSB_
FNDA:861,_ZNSt3__19addressofIKwEEPT_RS2_
FNDA:861,_ZNSt3__19addressofINS_12__value_typeINS_12basic_stringIcNS_11char_traitsIcEENS_9allocatorIcEEEEN5Catch3PtrINS8_16IReporterFactoryEEEEEEEPT_RSD_
FNDA:861,_ZNSt3__19addressofIN5Catch8TestCaseEEEPT_RS3_
FNDA:861,_ZNSt3__19addressofINS_12__value_typeINS_12basic_stringIcNS_11char_traitsIcEENS_9allocatorIcEEEEN5Catch8TagAliasEEEEEPT_RSB_
FNDA:861,_ZNSt3__19addressofIKNS_4pairIKNS_12basic_stringIcNS_11char_traitsIcEENS_9allocatorIcEEEEPN5Catch18IGeneratorsForTestEEEEEPT_RSE_
FNDA:861,_ZNSt3__19addressofINS_12__value_typeINS_12basic_stringIcNS_11char_traitsIcEENS_9allocatorIcEEEEPN5Catch14IGeneratorInfoEEEEEPT_RSC_
FNDA:861,_ZNSt3__19addressofIKNS_12__value_typeINS_12basic_stringIcNS_11char_traitsIcEENS_9allocatorIcEEEEPN5Catch18IGeneratorsForTestEEEEEPT_RSD_
FNDA:10,_ZNKSt3__14lessIiEclERKiS3_
FNDA:861,_ZNSt3__19addressofIKNS_4pairIKNS_12basic_stringIcNS_11char_traitsIcEENS_9allocatorIcEEEEN5Catch8TagAliasEEEEEPT_RSD_
FNDA:861,_ZNSt3__19addressofIKNS_12__value_typeINS_12basic_stringIcNS_11char_traitsIcEENS_9allocatorIcEEEEPN5Catch14IGeneratorInfoEEEEEPT_RSD_
FNDA:861,_ZNSt3__19addressofINS_12__value_typeINS_12basic_stringIcNS_11char_traitsIcEENS_9allocatorIcEEEEN5Catch7TagInfoEEEEEPT_RSB_
FNF:29
FNH:29
DA:63,10
DA:87,861
LF:2
LH:2
end_of_record
TN:
SF:/Applications/Xcode.app/Contents/Developer/Toolchains/XcodeDefault.xctoolchain/usr/include/c++/v1/__locale
FN:176,_ZNSt3__19has_facetINS_7codecvtIcc11__mbstate_tEEEEbRKNS_6localeE
FN:184,_ZNSt3__19use_facetINS_7codecvtIcc11__mbstate_tEEEERKT_RKNS_6localeE
FN:184,_ZNSt3__19use_facetINS_5ctypeIcEEEERKT_RKNS_6localeE
FN:588,_ZNKSt3__15ctypeIcE5widenEc
FN:823,_ZNKSt3__17codecvtIcc11__mbstate_tE3outERS1_PKcS5_RS5_PcS7_RS7_
FN:831,_ZNKSt3__17codecvtIcc11__mbstate_tE7unshiftERS1_PcS4_RS4_
FN:838,_ZNKSt3__17codecvtIcc11__mbstate_tE2inERS1_PKcS5_RS5_PcS7_RS7_
FN:846,_ZNKSt3__17codecvtIcc11__mbstate_tE8encodingEv
FN:852,_ZNKSt3__17codecvtIcc11__mbstate_tE13always_noconvEv
FN:858,_ZNKSt3__17codecvtIcc11__mbstate_tE6lengthERS1_PKcS5_m
FNDA:0,_ZNKSt3__17codecvtIcc11__mbstate_tE8encodingEv
FNDA:0,_ZNSt3__19has_facetINS_7codecvtIcc11__mbstate_tEEEEbRKNS_6localeE
FNDA:2,_ZNSt3__19use_facetINS_7codecvtIcc11__mbstate_tEEEERKT_RKNS_6localeE
FNDA:0,_ZNKSt3__17codecvtIcc11__mbstate_tE7unshiftERS1_PcS4_RS4_
FNDA:2,_ZNSt3__19use_facetINS_5ctypeIcEEEERKT_RKNS_6localeE
FNDA:0,_ZNKSt3__17codecvtIcc11__mbstate_tE6lengthERS1_PKcS5_m
FNDA:2,_ZNKSt3__15ctypeIcE5widenEc
FNDA:0,_ZNKSt3__17codecvtIcc11__mbstate_tE13always_noconvEv
FNDA:0,_ZNKSt3__17codecvtIcc11__mbstate_tE2inERS1_PKcS5_RS5_PcS7_RS7_
FNDA:0,_ZNKSt3__17codecvtIcc11__mbstate_tE3outERS1_PKcS5_RS5_PcS7_RS7_
FNF:10
FNH:3
DA:178,0
DA:186,2
DA:590,2
DA:827,0
DA:834,0
DA:842,0
DA:848,0
DA:854,0
DA:860,0
LF:9
LH:2
end_of_record
TN:
SF:/Applications/Xcode.app/Contents/Developer/Toolchains/XcodeDefault.xctoolchain/usr/include/c++/v1/__split_buffer
FN:54,_ZNSt3__114__split_bufferIN5Catch3PtrINS1_22CumulativeReporterBase11SectionNodeEEERNS_9allocatorIS5_EEE7__allocEv
FN:54,_ZNSt3__114__split_bufferIN5Catch5Clara6Parser5TokenERNS_9allocatorIS4_EEE7__allocEv
FN:54,_ZNSt3__114__split_bufferIN5Catch3PtrINS1_22CumulativeReporterBase4NodeINS1_13TestCaseStatsENS3_11SectionNodeEEEEERNS_9allocatorIS8_EEE7__allocEv
FN:54,_ZNSt3__114__split_bufferIN5Catch5Clara11CommandLineINS1_10ConfigDataEE3ArgERNS_9allocatorIS6_EEE7__allocEv
FN:54,_ZNSt3__114__split_bufferIN5Catch14SectionEndInfoERNS_9allocatorIS2_EEE7__allocEv
FN:54,_ZNSt3__114__split_bufferIPKN5Catch20IExceptionTranslatorERNS_9allocatorIS4_EEE7__allocEv
FN:54,_ZNSt3__114__split_bufferIN5Catch3PtrINS1_16TestCaseTracking8ITrackerEEERNS_9allocatorIS5_EEE7__allocEv
FN:54,_ZNSt3__114__split_bufferIN5Catch3PtrINS1_22CumulativeReporterBase4NodeINS1_12TestRunStatsENS4_INS1_14TestGroupStatsENS4_INS1_13TestCaseStatsENS3_11SectionNodeEEEEEEEEERNS_9allocatorISC_EEE7__allocEv
FN:54,_ZNSt3__114__split_bufferIPN5Catch14IGeneratorInfoERNS_9allocatorIS3_EEE7__allocEv
FN:54,_ZNSt3__114__split_bufferIN5Catch3PtrINS1_22CumulativeReporterBase4NodeINS1_14TestGroupStatsENS4_INS1_13TestCaseStatsENS3_11SectionNodeEEEEEEERNS_9allocatorISA_EEE7__allocEv
FN:54,_ZNSt3__114__split_bufferINS_12basic_stringIcNS_11char_traitsIcEENS_9allocatorIcEEEERNS4_IS6_EEE7__allocEv
FN:54,_ZNSt3__114__split_bufferIN5Catch11SectionInfoERNS_9allocatorIS2_EEE7__allocEv
FN:54,_ZNSt3__114__split_bufferIN5Catch3PtrINS1_8TestSpec7PatternEEERNS_9allocatorIS5_EEE7__allocEv
FN:54,_ZNSt3__114__split_bufferIN5Catch15ConsoleReporter13SummaryColumnERNS_9allocatorIS3_EEE7__allocEv
FN:54,_ZNSt3__114__split_bufferIN5Catch3PtrINS1_18IStreamingReporterEEERNS_9allocatorIS4_EEE7__allocEv
FN:54,_ZNSt3__114__split_bufferIN5Catch8TestSpec6FilterERNS_9allocatorIS3_EEE7__allocEv
FN:54,_ZNSt3__114__split_bufferIN5Catch3PtrINS1_16IReporterFactoryEEERNS_9allocatorIS4_EEE7__allocEv
FN:54,_ZNSt3__114__split_bufferIN5Catch14AssertionStatsERNS_9allocatorIS2_EEE7__allocEv
FN:54,_ZNSt3__114__split_bufferIN5Catch8TestCaseERNS_9allocatorIS2_EEE7__allocEv
FN:54,_ZNSt3__114__split_bufferIN5Catch11MessageInfoERNS_9allocatorIS2_EEE7__allocEv
FN:54,_ZNSt3__114__split_bufferIPN5Catch16TestCaseTracking8ITrackerERNS_9allocatorIS4_EEE7__allocEv
FN:56,_ZNSt3__114__split_bufferIN5Catch3PtrINS1_22CumulativeReporterBase11SectionNodeEEERNS_9allocatorIS5_EEE9__end_capEv
FN:56,_ZNSt3__114__split_bufferIN5Catch3PtrINS1_22CumulativeReporterBase4NodeINS1_12TestRunStatsENS4_INS1_14TestGroupStatsENS4_INS1_13TestCaseStatsENS3_11SectionNodeEEEEEEEEERNS_9allocatorISC_EEE9__end_capEv
FN:56,_ZNSt3__114__split_bufferIN5Catch11MessageInfoERNS_9allocatorIS2_EEE9__end_capEv
FN:56,_ZNSt3__114__split_bufferIN5Catch14AssertionStatsERNS_9allocatorIS2_EEE9__end_capEv
FN:56,_ZNSt3__114__split_bufferIPN5Catch16TestCaseTracking8ITrackerERNS_9allocatorIS4_EEE9__end_capEv
FN:56,_ZNSt3__114__split_bufferIN5Catch15ConsoleReporter13SummaryColumnERNS_9allocatorIS3_EEE9__end_capEv
FN:56,_ZNSt3__114__split_bufferIN5Catch8TestSpec6FilterERNS_9allocatorIS3_EEE9__end_capEv
FN:56,_ZNSt3__114__split_bufferIPN5Catch14IGeneratorInfoERNS_9allocatorIS3_EEE9__end_capEv
FN:56,_ZNSt3__114__split_bufferIN5Catch8TestCaseERNS_9allocatorIS2_EEE9__end_capEv
FN:56,_ZNSt3__114__split_bufferIN5Catch14SectionEndInfoERNS_9allocatorIS2_EEE9__end_capEv
FN:56,_ZNSt3__114__split_bufferIN5Catch5Clara6Parser5TokenERNS_9allocatorIS4_EEE9__end_capEv
FN:56,_ZNSt3__114__split_bufferIN5Catch3PtrINS1_16IReporterFactoryEEERNS_9allocatorIS4_EEE9__end_capEv
FN:56,_ZNSt3__114__split_bufferIN5Catch3PtrINS1_18IStreamingReporterEEERNS_9allocatorIS4_EEE9__end_capEv
FN:56,_ZNSt3__114__split_bufferIN5Catch3PtrINS1_16TestCaseTracking8ITrackerEEERNS_9allocatorIS5_EEE9__end_capEv
FN:56,_ZNSt3__114__split_bufferIN5Catch3PtrINS1_22CumulativeReporterBase4NodeINS1_13TestCaseStatsENS3_11SectionNodeEEEEERNS_9allocatorIS8_EEE9__end_capEv
FN:56,_ZNSt3__114__split_bufferINS_12basic_stringIcNS_11char_traitsIcEENS_9allocatorIcEEEERNS4_IS6_EEE9__end_capEv
FN:56,_ZNSt3__114__split_bufferIPKN5Catch20IExceptionTranslatorERNS_9allocatorIS4_EEE9__end_capEv
FN:56,_ZNSt3__114__split_bufferIN5Catch3PtrINS1_22CumulativeReporterBase4NodeINS1_14TestGroupStatsENS4_INS1_13TestCaseStatsENS3_11SectionNodeEEEEEEERNS_9allocatorISA_EEE9__end_capEv
FN:56,_ZNSt3__114__split_bufferIN5Catch11SectionInfoERNS_9allocatorIS2_EEE9__end_capEv
FN:56,_ZNSt3__114__split_bufferIN5Catch3PtrINS1_8TestSpec7PatternEEERNS_9allocatorIS5_EEE9__end_capEv
FN:56,_ZNSt3__114__split_bufferIN5Catch5Clara11CommandLineINS1_10ConfigDataEE3ArgERNS_9allocatorIS6_EEE9__end_capEv
FN:57,_ZNKSt3__114__split_bufferIN5Catch3PtrINS1_22CumulativeReporterBase11SectionNodeEEERNS_9allocatorIS5_EEE9__end_capEv
FN:57,_ZNKSt3__114__split_bufferIN5Catch5Clara6Parser5TokenERNS_9allocatorIS4_EEE9__end_capEv
FN:57,_ZNKSt3__114__split_bufferIN5Catch14SectionEndInfoERNS_9allocatorIS2_EEE9__end_capEv
FN:57,_ZNKSt3__114__split_bufferIN5Catch8TestCaseERNS_9allocatorIS2_EEE9__end_capEv
FN:57,_ZNKSt3__114__split_bufferIN5Catch5Clara11CommandLineINS1_10ConfigDataEE3ArgERNS_9allocatorIS6_EEE9__end_capEv
FN:57,_ZNKSt3__114__split_bufferIN5Catch3PtrINS1_22CumulativeReporterBase4NodeINS1_12TestRunStatsENS4_INS1_14TestGroupStatsENS4_INS1_13TestCaseStatsENS3_11SectionNodeEEEEEEEEERNS_9allocatorISC_EEE9__end_capEv
FN:57,_ZNKSt3__114__split_bufferIPKN5Catch20IExceptionTranslatorERNS_9allocatorIS4_EEE9__end_capEv
FN:57,_ZNKSt3__114__split_bufferIPN5Catch14IGeneratorInfoERNS_9allocatorIS3_EEE9__end_capEv
FN:57,_ZNKSt3__114__split_bufferIN5Catch14AssertionStatsERNS_9allocatorIS2_EEE9__end_capEv
FN:57,_ZNKSt3__114__split_bufferIN5Catch8TestSpec6FilterERNS_9allocatorIS3_EEE9__end_capEv
FN:57,_ZNKSt3__114__split_bufferIN5Catch3PtrINS1_22CumulativeReporterBase4NodeINS1_13TestCaseStatsENS3_11SectionNodeEEEEERNS_9allocatorIS8_EEE9__end_capEv
FN:57,_ZNKSt3__114__split_bufferIPN5Catch16TestCaseTracking8ITrackerERNS_9allocatorIS4_EEE9__end_capEv
FN:57,_ZNKSt3__114__split_bufferINS_12basic_stringIcNS_11char_traitsIcEENS_9allocatorIcEEEERNS4_IS6_EEE9__end_capEv
FN:57,_ZNKSt3__114__split_bufferIN5Catch3PtrINS1_16IReporterFactoryEEERNS_9allocatorIS4_EEE9__end_capEv
FN:57,_ZNKSt3__114__split_bufferIN5Catch3PtrINS1_18IStreamingReporterEEERNS_9allocatorIS4_EEE9__end_capEv
FN:57,_ZNKSt3__114__split_bufferIN5Catch15ConsoleReporter13SummaryColumnERNS_9allocatorIS3_EEE9__end_capEv
FN:57,_ZNKSt3__114__split_bufferIN5Catch3PtrINS1_8TestSpec7PatternEEERNS_9allocatorIS5_EEE9__end_capEv
FN:57,_ZNKSt3__114__split_bufferIN5Catch11MessageInfoERNS_9allocatorIS2_EEE9__end_capEv
FN:57,_ZNKSt3__114__split_bufferIN5Catch3PtrINS1_16TestCaseTracking8ITrackerEEERNS_9allocatorIS5_EEE9__end_capEv
FN:57,_ZNKSt3__114__split_bufferIN5Catch11SectionInfoERNS_9allocatorIS2_EEE9__end_capEv
FN:57,_ZNKSt3__114__split_bufferIN5Catch3PtrINS1_22CumulativeReporterBase4NodeINS1_14TestGroupStatsENS4_INS1_13TestCaseStatsENS3_11SectionNodeEEEEEEERNS_9allocatorISA_EEE9__end_capEv
FN:82,_ZNSt3__114__split_bufferIN5Catch8TestSpec6FilterERNS_9allocatorIS3_EEE5clearEv
FN:82,_ZNSt3__114__split_bufferIN5Catch8TestCaseERNS_9allocatorIS2_EEE5clearEv
FN:82,_ZNSt3__114__split_bufferIN5Catch11MessageInfoERNS_9allocatorIS2_EEE5clearEv
FN:82,_ZNSt3__114__split_bufferIN5Catch15ConsoleReporter13SummaryColumnERNS_9allocatorIS3_EEE5clearEv
FN:82,_ZNSt3__114__split_bufferIN5Catch14AssertionStatsERNS_9allocatorIS2_EEE5clearEv
FN:82,_ZNSt3__114__split_bufferIN5Catch3PtrINS1_22CumulativeReporterBase4NodeINS1_14TestGroupStatsENS4_INS1_13TestCaseStatsENS3_11SectionNodeEEEEEEERNS_9allocatorISA_EEE5clearEv
FN:82,_ZNSt3__114__split_bufferIN5Catch3PtrINS1_18IStreamingReporterEEERNS_9allocatorIS4_EEE5clearEv
FN:82,_ZNSt3__114__split_bufferINS_12basic_stringIcNS_11char_traitsIcEENS_9allocatorIcEEEERNS4_IS6_EEE5clearEv
FN:82,_ZNSt3__114__split_bufferIN5Catch11SectionInfoERNS_9allocatorIS2_EEE5clearEv
FN:82,_ZNSt3__114__split_bufferIN5Catch3PtrINS1_22CumulativeReporterBase11SectionNodeEEERNS_9allocatorIS5_EEE5clearEv
FN:82,_ZNSt3__114__split_bufferIN5Catch3PtrINS1_16IReporterFactoryEEERNS_9allocatorIS4_EEE5clearEv
FN:82,_ZNSt3__114__split_bufferIN5Catch5Clara11CommandLineINS1_10ConfigDataEE3ArgERNS_9allocatorIS6_EEE5clearEv
FN:82,_ZNSt3__114__split_bufferIN5Catch3PtrINS1_16TestCaseTracking8ITrackerEEERNS_9allocatorIS5_EEE5clearEv
FN:82,_ZNSt3__114__split_bufferIN5Catch3PtrINS1_22CumulativeReporterBase4NodeINS1_13TestCaseStatsENS3_11SectionNodeEEEEERNS_9allocatorIS8_EEE5clearEv
FN:82,_ZNSt3__114__split_bufferIN5Catch3PtrINS1_22CumulativeReporterBase4NodeINS1_12TestRunStatsENS4_INS1_14TestGroupStatsENS4_INS1_13TestCaseStatsENS3_11SectionNodeEEEEEEEEERNS_9allocatorISC_EEE5clearEv
FN:82,_ZNSt3__114__split_bufferIPN5Catch14IGeneratorInfoERNS_9allocatorIS3_EEE5clearEv
FN:82,_ZNSt3__114__split_bufferIPN5Catch16TestCaseTracking8ITrackerERNS_9allocatorIS4_EEE5clearEv
FN:82,_ZNSt3__114__split_bufferIN5Catch14SectionEndInfoERNS_9allocatorIS2_EEE5clearEv
FN:82,_ZNSt3__114__split_bufferIPKN5Catch20IExceptionTranslatorERNS_9allocatorIS4_EEE5clearEv
FN:82,_ZNSt3__114__split_bufferIN5Catch5Clara6Parser5TokenERNS_9allocatorIS4_EEE5clearEv
FN:82,_ZNSt3__114__split_bufferIN5Catch3PtrINS1_8TestSpec7PatternEEERNS_9allocatorIS5_EEE5clearEv
FN:86,_ZNKSt3__114__split_bufferIN5Catch3PtrINS1_8TestSpec7PatternEEERNS_9allocatorIS5_EEE8capacityEv
FN:86,_ZNKSt3__114__split_bufferIPKN5Catch20IExceptionTranslatorERNS_9allocatorIS4_EEE8capacityEv
FN:86,_ZNKSt3__114__split_bufferIN5Catch3PtrINS1_22CumulativeReporterBase4NodeINS1_13TestCaseStatsENS3_11SectionNodeEEEEERNS_9allocatorIS8_EEE8capacityEv
FN:86,_ZNKSt3__114__split_bufferIPN5Catch16TestCaseTracking8ITrackerERNS_9allocatorIS4_EEE8capacityEv
FN:86,_ZNKSt3__114__split_bufferIN5Catch3PtrINS1_16TestCaseTracking8ITrackerEEERNS_9allocatorIS5_EEE8capacityEv
FN:86,_ZNKSt3__114__split_bufferIN5Catch5Clara6Parser5TokenERNS_9allocatorIS4_EEE8capacityEv
FN:86,_ZNKSt3__114__split_bufferIN5Catch14SectionEndInfoERNS_9allocatorIS2_EEE8capacityEv
FN:86,_ZNKSt3__114__split_bufferIN5Catch5Clara11CommandLineINS1_10ConfigDataEE3ArgERNS_9allocatorIS6_EEE8capacityEv
FN:86,_ZNKSt3__114__split_bufferIN5Catch3PtrINS1_16IReporterFactoryEEERNS_9allocatorIS4_EEE8capacityEv
FN:86,_ZNKSt3__114__split_bufferIN5Catch3PtrINS1_22CumulativeReporterBase4NodeINS1_14TestGroupStatsENS4_INS1_13TestCaseStatsENS3_11SectionNodeEEEEEEERNS_9allocatorISA_EEE8capacityEv
FN:86,_ZNKSt3__114__split_bufferINS_12basic_stringIcNS_11char_traitsIcEENS_9allocatorIcEEEERNS4_IS6_EEE8capacityEv
FN:86,_ZNKSt3__114__split_bufferIN5Catch15ConsoleReporter13SummaryColumnERNS_9allocatorIS3_EEE8capacityEv
FN:86,_ZNKSt3__114__split_bufferIN5Catch8TestCaseERNS_9allocatorIS2_EEE8capacityEv
FN:86,_ZNKSt3__114__split_bufferIN5Catch3PtrINS1_22CumulativeReporterBase4NodeINS1_12TestRunStatsENS4_INS1_14TestGroupStatsENS4_INS1_13TestCaseStatsENS3_11SectionNodeEEEEEEEEERNS_9allocatorISC_EEE8capacityEv
FN:86,_ZNKSt3__114__split_bufferIN5Catch8TestSpec6FilterERNS_9allocatorIS3_EEE8capacityEv
FN:86,_ZNKSt3__114__split_bufferIN5Catch14AssertionStatsERNS_9allocatorIS2_EEE8capacityEv
FN:86,_ZNKSt3__114__split_bufferIPN5Catch14IGeneratorInfoERNS_9allocatorIS3_EEE8capacityEv
FN:86,_ZNKSt3__114__split_bufferIN5Catch3PtrINS1_22CumulativeReporterBase11SectionNodeEEERNS_9allocatorIS5_EEE8capacityEv
FN:86,_ZNKSt3__114__split_bufferIN5Catch11MessageInfoERNS_9allocatorIS2_EEE8capacityEv
FN:86,_ZNKSt3__114__split_bufferIN5Catch11SectionInfoERNS_9allocatorIS2_EEE8capacityEv
FN:86,_ZNKSt3__114__split_bufferIN5Catch3PtrINS1_18IStreamingReporterEEERNS_9allocatorIS4_EEE8capacityEv
FN:135,_ZNSt3__114__split_bufferIPKN5Catch20IExceptionTranslatorERNS_9allocatorIS4_EEE17__destruct_at_endEPS4_
FN:135,_ZNSt3__114__split_bufferIN5Catch5Clara6Parser5TokenERNS_9allocatorIS4_EEE17__destruct_at_endEPS4_
FN:135,_ZNSt3__114__split_bufferIN5Catch5Clara11CommandLineINS1_10ConfigDataEE3ArgERNS_9allocatorIS6_EEE17__destruct_at_endEPS6_
FN:135,_ZNSt3__114__split_bufferIN5Catch15ConsoleReporter13SummaryColumnERNS_9allocatorIS3_EEE17__destruct_at_endEPS3_
FN:135,_ZNSt3__114__split_bufferIN5Catch11MessageInfoERNS_9allocatorIS2_EEE17__destruct_at_endEPS2_
FN:135,_ZNSt3__114__split_bufferIN5Catch14SectionEndInfoERNS_9allocatorIS2_EEE17__destruct_at_endEPS2_
FN:135,_ZNSt3__114__split_bufferIN5Catch3PtrINS1_16TestCaseTracking8ITrackerEEERNS_9allocatorIS5_EEE17__destruct_at_endEPS5_
FN:135,_ZNSt3__114__split_bufferIN5Catch3PtrINS1_22CumulativeReporterBase11SectionNodeEEERNS_9allocatorIS5_EEE17__destruct_at_endEPS5_
FN:135,_ZNSt3__114__split_bufferIN5Catch3PtrINS1_22CumulativeReporterBase4NodeINS1_14TestGroupStatsENS4_INS1_13TestCaseStatsENS3_11SectionNodeEEEEEEERNS_9allocatorISA_EEE17__destruct_at_endEPSA_
FN:135,_ZNSt3__114__split_bufferIN5Catch3PtrINS1_22CumulativeReporterBase4NodeINS1_13TestCaseStatsENS3_11SectionNodeEEEEERNS_9allocatorIS8_EEE17__destruct_at_endEPS8_
FN:135,_ZNSt3__114__split_bufferIN5Catch8TestSpec6FilterERNS_9allocatorIS3_EEE17__destruct_at_endEPS3_
FN:135,_ZNSt3__114__split_bufferIPN5Catch16TestCaseTracking8ITrackerERNS_9allocatorIS4_EEE17__destruct_at_endEPS4_
FN:135,_ZNSt3__114__split_bufferIN5Catch3PtrINS1_22CumulativeReporterBase4NodeINS1_12TestRunStatsENS4_INS1_14TestGroupStatsENS4_INS1_13TestCaseStatsENS3_11SectionNodeEEEEEEEEERNS_9allocatorISC_EEE17__destruct_at_endEPSC_
FN:135,_ZNSt3__114__split_bufferIN5Catch3PtrINS1_16IReporterFactoryEEERNS_9allocatorIS4_EEE17__destruct_at_endEPS4_
FN:135,_ZNSt3__114__split_bufferIN5Catch3PtrINS1_8TestSpec7PatternEEERNS_9allocatorIS5_EEE17__destruct_at_endEPS5_
FN:135,_ZNSt3__114__split_bufferIN5Catch14AssertionStatsERNS_9allocatorIS2_EEE17__destruct_at_endEPS2_
FN:135,_ZNSt3__114__split_bufferIN5Catch11SectionInfoERNS_9allocatorIS2_EEE17__destruct_at_endEPS2_
FN:135,_ZNSt3__114__split_bufferINS_12basic_stringIcNS_11char_traitsIcEENS_9allocatorIcEEEERNS4_IS6_EEE17__destruct_at_endEPS6_
FN:135,_ZNSt3__114__split_bufferIN5Catch3PtrINS1_18IStreamingReporterEEERNS_9allocatorIS4_EEE17__destruct_at_endEPS4_
FN:135,_ZNSt3__114__split_bufferIPN5Catch14IGeneratorInfoERNS_9allocatorIS3_EEE17__destruct_at_endEPS3_
FN:135,_ZNSt3__114__split_bufferIN5Catch8TestCaseERNS_9allocatorIS2_EEE17__destruct_at_endEPS2_
FN:307,_ZNSt3__114__split_bufferIN5Catch3PtrINS1_16IReporterFactoryEEERNS_9allocatorIS4_EEE17__destruct_at_endEPS4_NS_17integral_constantIbLb0EEE
FN:307,_ZNSt3__114__split_bufferINS_12basic_stringIcNS_11char_traitsIcEENS_9allocatorIcEEEERNS4_IS6_EEE17__destruct_at_endEPS6_NS_17integral_constantIbLb0EEE
FN:307,_ZNSt3__114__split_bufferIN5Catch3PtrINS1_16TestCaseTracking8ITrackerEEERNS_9allocatorIS5_EEE17__destruct_at_endEPS5_NS_17integral_constantIbLb0EEE
FN:307,_ZNSt3__114__split_bufferIN5Catch11MessageInfoERNS_9allocatorIS2_EEE17__destruct_at_endEPS2_NS_17integral_constantIbLb0EEE
FN:307,_ZNSt3__114__split_bufferIN5Catch5Clara6Parser5TokenERNS_9allocatorIS4_EEE17__destruct_at_endEPS4_NS_17integral_constantIbLb0EEE
FN:307,_ZNSt3__114__split_bufferIN5Catch3PtrINS1_18IStreamingReporterEEERNS_9allocatorIS4_EEE17__destruct_at_endEPS4_NS_17integral_constantIbLb0EEE
FN:307,_ZNSt3__114__split_bufferIN5Catch3PtrINS1_22CumulativeReporterBase11SectionNodeEEERNS_9allocatorIS5_EEE17__destruct_at_endEPS5_NS_17integral_constantIbLb0EEE
FN:307,_ZNSt3__114__split_bufferIN5Catch3PtrINS1_22CumulativeReporterBase4NodeINS1_12TestRunStatsENS4_INS1_14TestGroupStatsENS4_INS1_13TestCaseStatsENS3_11SectionNodeEEEEEEEEERNS_9allocatorISC_EEE17__destruct_at_endEPSC_NS_17integral_constantIbLb0EEE
FN:307,_ZNSt3__114__split_bufferIN5Catch14SectionEndInfoERNS_9allocatorIS2_EEE17__destruct_at_endEPS2_NS_17integral_constantIbLb0EEE
FN:307,_ZNSt3__114__split_bufferIPKN5Catch20IExceptionTranslatorERNS_9allocatorIS4_EEE17__destruct_at_endEPS4_NS_17integral_constantIbLb0EEE
FN:307,_ZNSt3__114__split_bufferIPN5Catch16TestCaseTracking8ITrackerERNS_9allocatorIS4_EEE17__destruct_at_endEPS4_NS_17integral_constantIbLb0EEE
FN:307,_ZNSt3__114__split_bufferIN5Catch14AssertionStatsERNS_9allocatorIS2_EEE17__destruct_at_endEPS2_NS_17integral_constantIbLb0EEE
FN:307,_ZNSt3__114__split_bufferIN5Catch5Clara11CommandLineINS1_10ConfigDataEE3ArgERNS_9allocatorIS6_EEE17__destruct_at_endEPS6_NS_17integral_constantIbLb0EEE
FN:307,_ZNSt3__114__split_bufferIN5Catch11SectionInfoERNS_9allocatorIS2_EEE17__destruct_at_endEPS2_NS_17integral_constantIbLb0EEE
FN:307,_ZNSt3__114__split_bufferIN5Catch8TestCaseERNS_9allocatorIS2_EEE17__destruct_at_endEPS2_NS_17integral_constantIbLb0EEE
FN:307,_ZNSt3__114__split_bufferIN5Catch8TestSpec6FilterERNS_9allocatorIS3_EEE17__destruct_at_endEPS3_NS_17integral_constantIbLb0EEE
FN:307,_ZNSt3__114__split_bufferIN5Catch3PtrINS1_8TestSpec7PatternEEERNS_9allocatorIS5_EEE17__destruct_at_endEPS5_NS_17integral_constantIbLb0EEE
FN:307,_ZNSt3__114__split_bufferIN5Catch15ConsoleReporter13SummaryColumnERNS_9allocatorIS3_EEE17__destruct_at_endEPS3_NS_17integral_constantIbLb0EEE
FN:307,_ZNSt3__114__split_bufferIPN5Catch14IGeneratorInfoERNS_9allocatorIS3_EEE17__destruct_at_endEPS3_NS_17integral_constantIbLb0EEE
FN:307,_ZNSt3__114__split_bufferIN5Catch3PtrINS1_22CumulativeReporterBase4NodeINS1_14TestGroupStatsENS4_INS1_13TestCaseStatsENS3_11SectionNodeEEEEEEERNS_9allocatorISA_EEE17__destruct_at_endEPSA_NS_17integral_constantIbLb0EEE
FN:307,_ZNSt3__114__split_bufferIN5Catch3PtrINS1_22CumulativeReporterBase4NodeINS1_13TestCaseStatsENS3_11SectionNodeEEEEERNS_9allocatorIS8_EEE17__destruct_at_endEPS8_NS_17integral_constantIbLb0EEE
FN:322,_ZNSt3__114__split_bufferIPKN5Catch20IExceptionTranslatorERNS_9allocatorIS4_EEEC1EmmS7_
FN:322,_ZNSt3__114__split_bufferIPN5Catch14IGeneratorInfoERNS_9allocatorIS3_EEEC2EmmS6_
FN:322,_ZNSt3__114__split_bufferIN5Catch3PtrINS1_22CumulativeReporterBase4NodeINS1_13TestCaseStatsENS3_11SectionNodeEEEEERNS_9allocatorIS8_EEEC1EmmSB_
FN:322,_ZNSt3__114__split_bufferIN5Catch15ConsoleReporter13SummaryColumnERNS_9allocatorIS3_EEEC1EmmS6_
FN:322,_ZNSt3__114__split_bufferIN5Catch8TestCaseERNS_9allocatorIS2_EEEC1EmmS5_
FN:322,_ZNSt3__114__split_bufferIN5Catch15ConsoleReporter13SummaryColumnERNS_9allocatorIS3_EEEC2EmmS6_
FN:322,_ZNSt3__114__split_bufferIN5Catch5Clara11CommandLineINS1_10ConfigDataEE3ArgERNS_9allocatorIS6_EEEC2EmmS9_
FN:322,_ZNSt3__114__split_bufferIN5Catch3PtrINS1_8TestSpec7PatternEEERNS_9allocatorIS5_EEEC2EmmS8_
FN:322,_ZNSt3__114__split_bufferINS_12basic_stringIcNS_11char_traitsIcEENS_9allocatorIcEEEERNS4_IS6_EEEC2EmmS8_
FN:322,_ZNSt3__114__split_bufferIN5Catch3PtrINS1_22CumulativeReporterBase4NodeINS1_14TestGroupStatsENS4_INS1_13TestCaseStatsENS3_11SectionNodeEEEEEEERNS_9allocatorISA_EEEC2EmmSD_
FN:322,_ZNSt3__114__split_bufferIN5Catch5Clara6Parser5TokenERNS_9allocatorIS4_EEEC1EmmS7_
FN:322,_ZNSt3__114__split_bufferIN5Catch14AssertionStatsERNS_9allocatorIS2_EEEC1EmmS5_
FN:322,_ZNSt3__114__split_bufferIPKN5Catch20IExceptionTranslatorERNS_9allocatorIS4_EEEC2EmmS7_
FN:322,_ZNSt3__114__split_bufferIN5Catch14SectionEndInfoERNS_9allocatorIS2_EEEC2EmmS5_
FN:322,_ZNSt3__114__split_bufferIN5Catch5Clara11CommandLineINS1_10ConfigDataEE3ArgERNS_9allocatorIS6_EEEC1EmmS9_
FN:322,_ZNSt3__114__split_bufferIN5Catch3PtrINS1_16IReporterFactoryEEERNS_9allocatorIS4_EEEC1EmmS7_
FN:322,_ZNSt3__114__split_bufferIN5Catch3PtrINS1_8TestSpec7PatternEEERNS_9allocatorIS5_EEEC1EmmS8_
FN:322,_ZNSt3__114__split_bufferIN5Catch3PtrINS1_22CumulativeReporterBase4NodeINS1_14TestGroupStatsENS4_INS1_13TestCaseStatsENS3_11SectionNodeEEEEEEERNS_9allocatorISA_EEEC1EmmSD_
FN:322,_ZNSt3__114__split_bufferIN5Catch3PtrINS1_22CumulativeReporterBase4NodeINS1_13TestCaseStatsENS3_11SectionNodeEEEEERNS_9allocatorIS8_EEEC2EmmSB_
FN:322,_ZNSt3__114__split_bufferIN5Catch14SectionEndInfoERNS_9allocatorIS2_EEEC1EmmS5_
FN:322,_ZNSt3__114__split_bufferIN5Catch3PtrINS1_16IReporterFactoryEEERNS_9allocatorIS4_EEEC2EmmS7_
FN:322,_ZNSt3__114__split_bufferIN5Catch3PtrINS1_22CumulativeReporterBase11SectionNodeEEERNS_9allocatorIS5_EEEC1EmmS8_
FN:322,_ZNSt3__114__split_bufferIN5Catch3PtrINS1_16TestCaseTracking8ITrackerEEERNS_9allocatorIS5_EEEC2EmmS8_
FN:322,_ZNSt3__114__split_bufferIPN5Catch16TestCaseTracking8ITrackerERNS_9allocatorIS4_EEEC1EmmS7_
FN:322,_ZNSt3__114__split_bufferIN5Catch3PtrINS1_22CumulativeReporterBase11SectionNodeEEERNS_9allocatorIS5_EEEC2EmmS8_
FN:322,_ZNSt3__114__split_bufferIN5Catch3PtrINS1_16TestCaseTracking8ITrackerEEERNS_9allocatorIS5_EEEC1EmmS8_
FN:322,_ZNSt3__114__split_bufferIN5Catch8TestCaseERNS_9allocatorIS2_EEEC2EmmS5_
FN:322,_ZNSt3__114__split_bufferIN5Catch11SectionInfoERNS_9allocatorIS2_EEEC1EmmS5_
FN:322,_ZNSt3__114__split_bufferIN5Catch11SectionInfoERNS_9allocatorIS2_EEEC2EmmS5_
FN:322,_ZNSt3__114__split_bufferINS_12basic_stringIcNS_11char_traitsIcEENS_9allocatorIcEEEERNS4_IS6_EEEC1EmmS8_
FN:322,_ZNSt3__114__split_bufferIN5Catch8TestSpec6FilterERNS_9allocatorIS3_EEEC2EmmS6_
FN:322,_ZNSt3__114__split_bufferIPN5Catch16TestCaseTracking8ITrackerERNS_9allocatorIS4_EEEC2EmmS7_
FN:322,_ZNSt3__114__split_bufferIN5Catch3PtrINS1_18IStreamingReporterEEERNS_9allocatorIS4_EEEC2EmmS7_
FN:322,_ZNSt3__114__split_bufferIN5Catch3PtrINS1_18IStreamingReporterEEERNS_9allocatorIS4_EEEC1EmmS7_
FN:322,_ZNSt3__114__split_bufferIN5Catch8TestSpec6FilterERNS_9allocatorIS3_EEEC1EmmS6_
FN:322,_ZNSt3__114__split_bufferIN5Catch3PtrINS1_22CumulativeReporterBase4NodeINS1_12TestRunStatsENS4_INS1_14TestGroupStatsENS4_INS1_13TestCaseStatsENS3_11SectionNodeEEEEEEEEERNS_9allocatorISC_EEEC2EmmSF_
FN:322,_ZNSt3__114__split_bufferIN5Catch11MessageInfoERNS_9allocatorIS2_EEEC2EmmS5_
FN:322,_ZNSt3__114__split_bufferIN5Catch3PtrINS1_22CumulativeReporterBase4NodeINS1_12TestRunStatsENS4_INS1_14TestGroupStatsENS4_INS1_13TestCaseStatsENS3_11SectionNodeEEEEEEEEERNS_9allocatorISC_EEEC1EmmSF_
FN:322,_ZNSt3__114__split_bufferIN5Catch5Clara6Parser5TokenERNS_9allocatorIS4_EEEC2EmmS7_
FN:322,_ZNSt3__114__split_bufferIN5Catch11MessageInfoERNS_9allocatorIS2_EEEC1EmmS5_
FN:322,_ZNSt3__114__split_bufferIN5Catch14AssertionStatsERNS_9allocatorIS2_EEEC2EmmS5_
FN:322,_ZNSt3__114__split_bufferIPN5Catch14IGeneratorInfoERNS_9allocatorIS3_EEEC1EmmS6_
FN:353,_ZNSt3__114__split_bufferIPN5Catch16TestCaseTracking8ITrackerERNS_9allocatorIS4_EEED2Ev
FN:353,_ZNSt3__114__split_bufferIN5Catch3PtrINS1_18IStreamingReporterEEERNS_9allocatorIS4_EEED1Ev
FN:353,_ZNSt3__114__split_bufferIN5Catch11MessageInfoERNS_9allocatorIS2_EEED2Ev
FN:353,_ZNSt3__114__split_bufferINS_12basic_stringIcNS_11char_traitsIcEENS_9allocatorIcEEEERNS4_IS6_EEED1Ev
FN:353,_ZNSt3__114__split_bufferIN5Catch14AssertionStatsERNS_9allocatorIS2_EEED1Ev
FN:353,_ZNSt3__114__split_bufferIN5Catch8TestSpec6FilterERNS_9allocatorIS3_EEED1Ev
FN:353,_ZNSt3__114__split_bufferIN5Catch3PtrINS1_16IReporterFactoryEEERNS_9allocatorIS4_EEED2Ev
FN:353,_ZNSt3__114__split_bufferINS_12basic_stringIcNS_11char_traitsIcEENS_9allocatorIcEEEERNS4_IS6_EEED2Ev
FN:353,_ZNSt3__114__split_bufferIN5Catch15ConsoleReporter13SummaryColumnERNS_9allocatorIS3_EEED1Ev
FN:353,_ZNSt3__114__split_bufferIN5Catch3PtrINS1_16IReporterFactoryEEERNS_9allocatorIS4_EEED1Ev
FN:353,_ZNSt3__114__split_bufferIN5Catch14SectionEndInfoERNS_9allocatorIS2_EEED1Ev
FN:353,_ZNSt3__114__split_bufferIN5Catch3PtrINS1_22CumulativeReporterBase11SectionNodeEEERNS_9allocatorIS5_EEED1Ev
FN:353,_ZNSt3__114__split_bufferIN5Catch11MessageInfoERNS_9allocatorIS2_EEED1Ev
FN:353,_ZNSt3__114__split_bufferIN5Catch5Clara11CommandLineINS1_10ConfigDataEE3ArgERNS_9allocatorIS6_EEED2Ev
FN:353,_ZNSt3__114__split_bufferIN5Catch3PtrINS1_22CumulativeReporterBase4NodeINS1_13TestCaseStatsENS3_11SectionNodeEEEEERNS_9allocatorIS8_EEED2Ev
FN:353,_ZNSt3__114__split_bufferIN5Catch3PtrINS1_8TestSpec7PatternEEERNS_9allocatorIS5_EEED2Ev
FN:353,_ZNSt3__114__split_bufferIN5Catch3PtrINS1_22CumulativeReporterBase4NodeINS1_14TestGroupStatsENS4_INS1_13TestCaseStatsENS3_11SectionNodeEEEEEEERNS_9allocatorISA_EEED1Ev
FN:353,_ZNSt3__114__split_bufferIN5Catch5Clara6Parser5TokenERNS_9allocatorIS4_EEED2Ev
FN:353,_ZNSt3__114__split_bufferIN5Catch5Clara11CommandLineINS1_10ConfigDataEE3ArgERNS_9allocatorIS6_EEED1Ev
FN:353,_ZNSt3__114__split_bufferIN5Catch3PtrINS1_22CumulativeReporterBase4NodeINS1_12TestRunStatsENS4_INS1_14TestGroupStatsENS4_INS1_13TestCaseStatsENS3_11SectionNodeEEEEEEEEERNS_9allocatorISC_EEED1Ev
FN:353,_ZNSt3__114__split_bufferIN5Catch14SectionEndInfoERNS_9allocatorIS2_EEED2Ev
FN:353,_ZNSt3__114__split_bufferIPN5Catch14IGeneratorInfoERNS_9allocatorIS3_EEED2Ev
FN:353,_ZNSt3__114__split_bufferIN5Catch3PtrINS1_22CumulativeReporterBase4NodeINS1_14TestGroupStatsENS4_INS1_13TestCaseStatsENS3_11SectionNodeEEEEEEERNS_9allocatorISA_EEED2Ev
FN:353,_ZNSt3__114__split_bufferIN5Catch8TestCaseERNS_9allocatorIS2_EEED2Ev
FN:353,_ZNSt3__114__split_bufferIN5Catch11SectionInfoERNS_9allocatorIS2_EEED2Ev
FN:353,_ZNSt3__114__split_bufferIN5Catch3PtrINS1_16TestCaseTracking8ITrackerEEERNS_9allocatorIS5_EEED2Ev
FN:353,_ZNSt3__114__split_bufferIN5Catch3PtrINS1_22CumulativeReporterBase4NodeINS1_12TestRunStatsENS4_INS1_14TestGroupStatsENS4_INS1_13TestCaseStatsENS3_11SectionNodeEEEEEEEEERNS_9allocatorISC_EEED2Ev
FN:353,_ZNSt3__114__split_bufferIN5Catch8TestCaseERNS_9allocatorIS2_EEED1Ev
FN:353,_ZNSt3__114__split_bufferIN5Catch14AssertionStatsERNS_9allocatorIS2_EEED2Ev
FN:353,_ZNSt3__114__split_bufferIN5Catch11SectionInfoERNS_9allocatorIS2_EEED1Ev
FN:353,_ZNSt3__114__split_bufferIPN5Catch14IGeneratorInfoERNS_9allocatorIS3_EEED1Ev
FN:353,_ZNSt3__114__split_bufferIN5Catch8TestSpec6FilterERNS_9allocatorIS3_EEED2Ev
FN:353,_ZNSt3__114__split_bufferIN5Catch3PtrINS1_8TestSpec7PatternEEERNS_9allocatorIS5_EEED1Ev
FN:353,_ZNSt3__114__split_bufferIPN5Catch16TestCaseTracking8ITrackerERNS_9allocatorIS4_EEED1Ev
FN:353,_ZNSt3__114__split_bufferIN5Catch3PtrINS1_18IStreamingReporterEEERNS_9allocatorIS4_EEED2Ev
FN:353,_ZNSt3__114__split_bufferIN5Catch15ConsoleReporter13SummaryColumnERNS_9allocatorIS3_EEED2Ev
FN:353,_ZNSt3__114__split_bufferIN5Catch3PtrINS1_22CumulativeReporterBase4NodeINS1_13TestCaseStatsENS3_11SectionNodeEEEEERNS_9allocatorIS8_EEED1Ev
FN:353,_ZNSt3__114__split_bufferIPKN5Catch20IExceptionTranslatorERNS_9allocatorIS4_EEED2Ev
FN:353,_ZNSt3__114__split_bufferIN5Catch3PtrINS1_16TestCaseTracking8ITrackerEEERNS_9allocatorIS5_EEED1Ev
FN:353,_ZNSt3__114__split_bufferIPKN5Catch20IExceptionTranslatorERNS_9allocatorIS4_EEED1Ev
FN:353,_ZNSt3__114__split_bufferIN5Catch3PtrINS1_22CumulativeReporterBase11SectionNodeEEERNS_9allocatorIS5_EEED2Ev
FN:353,_ZNSt3__114__split_bufferIN5Catch5Clara6Parser5TokenERNS_9allocatorIS4_EEED1Ev
FNDA:31,_ZNSt3__114__split_bufferIN5Catch3PtrINS1_16IReporterFactoryEEERNS_9allocatorIS4_EEED1Ev
FNDA:31,_ZNSt3__114__split_bufferIN5Catch11MessageInfoERNS_9allocatorIS2_EEE17__destruct_at_endEPS2_NS_17integral_constantIbLb0EEE
FNDA:31,_ZNSt3__114__split_bufferIN5Catch15ConsoleReporter13SummaryColumnERNS_9allocatorIS3_EEE17__destruct_at_endEPS3_
FNDA:31,_ZNSt3__114__split_bufferIN5Catch3PtrINS1_8TestSpec7PatternEEERNS_9allocatorIS5_EEEC2EmmS8_
FNDA:31,_ZNSt3__114__split_bufferIN5Catch15ConsoleReporter13SummaryColumnERNS_9allocatorIS3_EEED1Ev
FNDA:7,_ZNKSt3__114__split_bufferIN5Catch5Clara11CommandLineINS1_10ConfigDataEE3ArgERNS_9allocatorIS6_EEE9__end_capEv
FNDA:31,_ZNSt3__114__split_bufferIN5Catch5Clara11CommandLineINS1_10ConfigDataEE3ArgERNS_9allocatorIS6_EEEC2EmmS9_
FNDA:62,_ZNSt3__114__split_bufferIN5Catch8TestCaseERNS_9allocatorIS2_EEEC1EmmS5_
FNDA:14,_ZNSt3__114__split_bufferINS_12basic_stringIcNS_11char_traitsIcEENS_9allocatorIcEEEERNS4_IS6_EEED2Ev
FNDA:31,_ZNSt3__114__split_bufferIN5Catch15ConsoleReporter13SummaryColumnERNS_9allocatorIS3_EEEC2EmmS6_
FNDA:7,_ZNKSt3__114__split_bufferIN5Catch8TestCaseERNS_9allocatorIS2_EEE9__end_capEv
FNDA:62,_ZNSt3__114__split_bufferIN5Catch15ConsoleReporter13SummaryColumnERNS_9allocatorIS3_EEEC1EmmS6_
FNDA:7,_ZNKSt3__114__split_bufferIN5Catch14SectionEndInfoERNS_9allocatorIS2_EEE9__end_capEv
FNDA:14,_ZNSt3__114__split_bufferIN5Catch3PtrINS1_16IReporterFactoryEEERNS_9allocatorIS4_EEED2Ev
FNDA:7,_ZNKSt3__114__split_bufferIN5Catch3PtrINS1_22CumulativeReporterBase4NodeINS1_13TestCaseStatsENS3_11SectionNodeEEEEERNS_9allocatorIS8_EEE8capacityEv
FNDA:71,_ZNSt3__114__split_bufferIN5Catch3PtrINS1_22CumulativeReporterBase4NodeINS1_13TestCaseStatsENS3_11SectionNodeEEEEERNS_9allocatorIS8_EEE7__allocEv
FNDA:62,_ZNSt3__114__split_bufferIN5Catch3PtrINS1_22CumulativeReporterBase4NodeINS1_13TestCaseStatsENS3_11SectionNodeEEEEERNS_9allocatorIS8_EEEC1EmmSB_
FNDA:31,_ZNSt3__114__split_bufferIN5Catch8TestSpec6FilterERNS_9allocatorIS3_EEED1Ev
FNDA:31,_ZNSt3__114__split_bufferIN5Catch3PtrINS1_22CumulativeReporterBase4NodeINS1_14TestGroupStatsENS4_INS1_13TestCaseStatsENS3_11SectionNodeEEEEEEERNS_9allocatorISA_EEE5clearEv
FNDA:31,_ZNSt3__114__split_bufferIPN5Catch14IGeneratorInfoERNS_9allocatorIS3_EEEC2EmmS6_
FNDA:31,_ZNSt3__114__split_bufferIN5Catch14SectionEndInfoERNS_9allocatorIS2_EEE17__destruct_at_endEPS2_
FNDA:62,_ZNSt3__114__split_bufferIN5Catch14AssertionStatsERNS_9allocatorIS2_EEE9__end_capEv
FNDA:71,_ZNSt3__114__split_bufferIN5Catch5Clara11CommandLineINS1_10ConfigDataEE3ArgERNS_9allocatorIS6_EEE7__allocEv
FNDA:31,_ZNSt3__114__split_bufferIN5Catch11MessageInfoERNS_9allocatorIS2_EEED1Ev
FNDA:7,_ZNKSt3__114__split_bufferIN5Catch14SectionEndInfoERNS_9allocatorIS2_EEE8capacityEv
FNDA:62,_ZNSt3__114__split_bufferIN5Catch14AssertionStatsERNS_9allocatorIS2_EEEC1EmmS5_
FNDA:62,_ZNSt3__114__split_bufferIN5Catch5Clara6Parser5TokenERNS_9allocatorIS4_EEEC1EmmS7_
FNDA:31,_ZNSt3__114__split_bufferIN5Catch3PtrINS1_22CumulativeReporterBase4NodeINS1_14TestGroupStatsENS4_INS1_13TestCaseStatsENS3_11SectionNodeEEEEEEERNS_9allocatorISA_EEEC2EmmSD_
FNDA:7,_ZNKSt3__114__split_bufferIN5Catch5Clara6Parser5TokenERNS_9allocatorIS4_EEE8capacityEv
FNDA:7,_ZNKSt3__114__split_bufferIN5Catch3PtrINS1_16TestCaseTracking8ITrackerEEERNS_9allocatorIS5_EEE8capacityEv
FNDA:31,_ZNSt3__114__split_bufferIN5Catch3PtrINS1_22CumulativeReporterBase11SectionNodeEEERNS_9allocatorIS5_EEED1Ev
FNDA:31,_ZNSt3__114__split_bufferIN5Catch14SectionEndInfoERNS_9allocatorIS2_EEED1Ev
FNDA:31,_ZNSt3__114__split_bufferINS_12basic_stringIcNS_11char_traitsIcEENS_9allocatorIcEEEERNS4_IS6_EEEC2EmmS8_
FNDA:7,_ZNKSt3__114__split_bufferIN5Catch3PtrINS1_22CumulativeReporterBase4NodeINS1_12TestRunStatsENS4_INS1_14TestGroupStatsENS4_INS1_13TestCaseStatsENS3_11SectionNodeEEEEEEEEERNS_9allocatorISC_EEE9__end_capEv
FNDA:31,_ZNSt3__114__split_bufferIN5Catch11MessageInfoERNS_9allocatorIS2_EEE17__destruct_at_endEPS2_
FNDA:7,_ZNKSt3__114__split_bufferIPN5Catch16TestCaseTracking8ITrackerERNS_9allocatorIS4_EEE8capacityEv
FNDA:14,_ZNSt3__114__split_bufferIPN5Catch16TestCaseTracking8ITrackerERNS_9allocatorIS4_EEED2Ev
FNDA:31,_ZNSt3__114__split_bufferIN5Catch5Clara11CommandLineINS1_10ConfigDataEE3ArgERNS_9allocatorIS6_EEE17__destruct_at_endEPS6_
FNDA:7,_ZNKSt3__114__split_bufferIPKN5Catch20IExceptionTranslatorERNS_9allocatorIS4_EEE8capacityEv
FNDA:7,_ZNKSt3__114__split_bufferIN5Catch3PtrINS1_8TestSpec7PatternEEERNS_9allocatorIS5_EEE8capacityEv
FNDA:71,_ZNSt3__114__split_bufferIN5Catch3PtrINS1_22CumulativeReporterBase11SectionNodeEEERNS_9allocatorIS5_EEE7__allocEv
FNDA:31,_ZNSt3__114__split_bufferIN5Catch15ConsoleReporter13SummaryColumnERNS_9allocatorIS3_EEE5clearEv
FNDA:31,_ZNSt3__114__split_bufferIN5Catch5Clara6Parser5TokenERNS_9allocatorIS4_EEE17__destruct_at_endEPS4_
FNDA:31,_ZNSt3__114__split_bufferIN5Catch11MessageInfoERNS_9allocatorIS2_EEE5clearEv
FNDA:62,_ZNSt3__114__split_bufferIN5Catch3PtrINS1_22CumulativeReporterBase4NodeINS1_12TestRunStatsENS4_INS1_14TestGroupStatsENS4_INS1_13TestCaseStatsENS3_11SectionNodeEEEEEEEEERNS_9allocatorISC_EEE9__end_capEv
FNDA:31,_ZNSt3__114__split_bufferIN5Catch8TestCaseERNS_9allocatorIS2_EEE5clearEv
FNDA:62,_ZNSt3__114__split_bufferIN5Catch3PtrINS1_22CumulativeReporterBase11SectionNodeEEERNS_9allocatorIS5_EEE9__end_capEv
FNDA:31,_ZNSt3__114__split_bufferINS_12basic_stringIcNS_11char_traitsIcEENS_9allocatorIcEEEERNS4_IS6_EEE17__destruct_at_endEPS6_NS_17integral_constantIbLb0EEE
FNDA:31,_ZNSt3__114__split_bufferIN5Catch8TestSpec6FilterERNS_9allocatorIS3_EEE5clearEv
FNDA:31,_ZNSt3__114__split_bufferIPKN5Catch20IExceptionTranslatorERNS_9allocatorIS4_EEE17__destruct_at_endEPS4_
FNDA:62,_ZNSt3__114__split_bufferIPKN5Catch20IExceptionTranslatorERNS_9allocatorIS4_EEEC1EmmS7_
FNDA:7,_ZNKSt3__114__split_bufferIN5Catch3PtrINS1_22CumulativeReporterBase11SectionNodeEEERNS_9allocatorIS5_EEE9__end_capEv
FNDA:31,_ZNSt3__114__split_bufferIN5Catch3PtrINS1_16IReporterFactoryEEERNS_9allocatorIS4_EEE17__destruct_at_endEPS4_NS_17integral_constantIbLb0EEE
FNDA:31,_ZNSt3__114__split_bufferIN5Catch14AssertionStatsERNS_9allocatorIS2_EEED1Ev
FNDA:31,_ZNSt3__114__split_bufferINS_12basic_stringIcNS_11char_traitsIcEENS_9allocatorIcEEEERNS4_IS6_EEED1Ev
FNDA:31,_ZNSt3__114__split_bufferIN5Catch14AssertionStatsERNS_9allocatorIS2_EEE5clearEv
FNDA:71,_ZNSt3__114__split_bufferIN5Catch5Clara6Parser5TokenERNS_9allocatorIS4_EEE7__allocEv
FNDA:62,_ZNSt3__114__split_bufferIN5Catch11MessageInfoERNS_9allocatorIS2_EEE9__end_capEv
FNDA:14,_ZNSt3__114__split_bufferIN5Catch11MessageInfoERNS_9allocatorIS2_EEED2Ev
FNDA:31,_ZNSt3__114__split_bufferIN5Catch3PtrINS1_18IStreamingReporterEEERNS_9allocatorIS4_EEED1Ev
FNDA:7,_ZNKSt3__114__split_bufferIN5Catch5Clara6Parser5TokenERNS_9allocatorIS4_EEE9__end_capEv
FNDA:31,_ZNSt3__114__split_bufferIN5Catch3PtrINS1_16TestCaseTracking8ITrackerEEERNS_9allocatorIS5_EEE17__destruct_at_endEPS5_NS_17integral_constantIbLb0EEE
FNDA:31,_ZNSt3__114__split_bufferIN5Catch3PtrINS1_22CumulativeReporterBase4NodeINS1_12TestRunStatsENS4_INS1_14TestGroupStatsENS4_INS1_13TestCaseStatsENS3_11SectionNodeEEEEEEEEERNS_9allocatorISC_EEE17__destruct_at_endEPSC_NS_17integral_constantIbLb0EEE
FNDA:31,_ZNSt3__114__split_bufferIN5Catch3PtrINS1_16IReporterFactoryEEERNS_9allocatorIS4_EEE5clearEv
FNDA:31,_ZNSt3__114__split_bufferIN5Catch3PtrINS1_22CumulativeReporterBase11SectionNodeEEERNS_9allocatorIS5_EEE17__destruct_at_endEPS5_NS_17integral_constantIbLb0EEE
FNDA:7,_ZNKSt3__114__split_bufferIN5Catch3PtrINS1_22CumulativeReporterBase4NodeINS1_13TestCaseStatsENS3_11SectionNodeEEEEERNS_9allocatorIS8_EEE9__end_capEv
FNDA:62,_ZNSt3__114__split_bufferIN5Catch14SectionEndInfoERNS_9allocatorIS2_EEEC1EmmS5_
FNDA:31,_ZNSt3__114__split_bufferIN5Catch3PtrINS1_22CumulativeReporterBase11SectionNodeEEERNS_9allocatorIS5_EEE5clearEv
FNDA:14,_ZNSt3__114__split_bufferIN5Catch11SectionInfoERNS_9allocatorIS2_EEED2Ev
FNDA:31,_ZNSt3__114__split_bufferIN5Catch3PtrINS1_18IStreamingReporterEEERNS_9allocatorIS4_EEE17__destruct_at_endEPS4_NS_17integral_constantIbLb0EEE
FNDA:14,_ZNSt3__114__split_bufferIN5Catch8TestCaseERNS_9allocatorIS2_EEED2Ev
FNDA:14,_ZNSt3__114__split_bufferIN5Catch3PtrINS1_22CumulativeReporterBase4NodeINS1_14TestGroupStatsENS4_INS1_13TestCaseStatsENS3_11SectionNodeEEEEEEERNS_9allocatorISA_EEED2Ev
FNDA:31,_ZNSt3__114__split_bufferIN5Catch3PtrINS1_22CumulativeReporterBase4NodeINS1_13TestCaseStatsENS3_11SectionNodeEEEEERNS_9allocatorIS8_EEE17__destruct_at_endEPS8_
FNDA:7,_ZNKSt3__114__split_bufferIN5Catch8TestSpec6FilterERNS_9allocatorIS3_EEE9__end_capEv
FNDA:7,_ZNKSt3__114__split_bufferIN5Catch3PtrINS1_22CumulativeReporterBase4NodeINS1_14TestGroupStatsENS4_INS1_13TestCaseStatsENS3_11SectionNodeEEEEEEERNS_9allocatorISA_EEE8capacityEv
FNDA:31,_ZNSt3__114__split_bufferIN5Catch8TestCaseERNS_9allocatorIS2_EEED1Ev
FNDA:62,_ZNSt3__114__split_bufferIPN5Catch14IGeneratorInfoERNS_9allocatorIS3_EEE9__end_capEv
FNDA:31,_ZNSt3__114__split_bufferIN5Catch14SectionEndInfoERNS_9allocatorIS2_EEE17__destruct_at_endEPS2_NS_17integral_constantIbLb0EEE
FNDA:31,_ZNSt3__114__split_bufferIN5Catch8TestSpec6FilterERNS_9allocatorIS3_EEE17__destruct_at_endEPS3_
FNDA:62,_ZNSt3__114__split_bufferIN5Catch8TestSpec6FilterERNS_9allocatorIS3_EEE9__end_capEv
FNDA:14,_ZNSt3__114__split_bufferIN5Catch3PtrINS1_22CumulativeReporterBase4NodeINS1_12TestRunStatsENS4_INS1_14TestGroupStatsENS4_INS1_13TestCaseStatsENS3_11SectionNodeEEEEEEEEERNS_9allocatorISC_EEED2Ev
FNDA:71,_ZNSt3__114__split_bufferIN5Catch3PtrINS1_22CumulativeReporterBase4NodeINS1_12TestRunStatsENS4_INS1_14TestGroupStatsENS4_INS1_13TestCaseStatsENS3_11SectionNodeEEEEEEEEERNS_9allocatorISC_EEE7__allocEv
FNDA:7,_ZNKSt3__114__split_bufferIN5Catch15ConsoleReporter13SummaryColumnERNS_9allocatorIS3_EEE8capacityEv
FNDA:7,_ZNKSt3__114__split_bufferINS_12basic_stringIcNS_11char_traitsIcEENS_9allocatorIcEEEERNS4_IS6_EEE8capacityEv
FNDA:71,_ZNSt3__114__split_bufferIN5Catch3PtrINS1_16TestCaseTracking8ITrackerEEERNS_9allocatorIS5_EEE7__allocEv
FNDA:31,_ZNSt3__114__split_bufferIN5Catch5Clara11CommandLineINS1_10ConfigDataEE3ArgERNS_9allocatorIS6_EEE5clearEv
FNDA:14,_ZNSt3__114__split_bufferIN5Catch3PtrINS1_16TestCaseTracking8ITrackerEEERNS_9allocatorIS5_EEED2Ev
FNDA:31,_ZNSt3__114__split_bufferIN5Catch11SectionInfoERNS_9allocatorIS2_EEE5clearEv
FNDA:62,_ZNSt3__114__split_bufferIN5Catch5Clara11CommandLineINS1_10ConfigDataEE3ArgERNS_9allocatorIS6_EEEC1EmmS9_
FNDA:7,_ZNKSt3__114__split_bufferIN5Catch5Clara11CommandLineINS1_10ConfigDataEE3ArgERNS_9allocatorIS6_EEE8capacityEv
FNDA:31,_ZNSt3__114__split_bufferINS_12basic_stringIcNS_11char_traitsIcEENS_9allocatorIcEEEERNS4_IS6_EEE5clearEv
FNDA:31,_ZNSt3__114__split_bufferIN5Catch3PtrINS1_18IStreamingReporterEEERNS_9allocatorIS4_EEE5clearEv
FNDA:7,_ZNKSt3__114__split_bufferIN5Catch14AssertionStatsERNS_9allocatorIS2_EEE9__end_capEv
FNDA:14,_ZNSt3__114__split_bufferIN5Catch3PtrINS1_8TestSpec7PatternEEERNS_9allocatorIS5_EEED2Ev
FNDA:14,_ZNSt3__114__split_bufferIN5Catch3PtrINS1_22CumulativeReporterBase4NodeINS1_13TestCaseStatsENS3_11SectionNodeEEEEERNS_9allocatorIS8_EEED2Ev
FNDA:62,_ZNSt3__114__split_bufferIN5Catch15ConsoleReporter13SummaryColumnERNS_9allocatorIS3_EEE9__end_capEv
FNDA:31,_ZNSt3__114__split_bufferIN5Catch14SectionEndInfoERNS_9allocatorIS2_EEEC2EmmS5_
FNDA:7,_ZNKSt3__114__split_bufferIPN5Catch14IGeneratorInfoERNS_9allocatorIS3_EEE9__end_capEv
FNDA:71,_ZNSt3__114__split_bufferIN5Catch14SectionEndInfoERNS_9allocatorIS2_EEE7__allocEv
FNDA:71,_ZNSt3__114__split_bufferIPKN5Catch20IExceptionTranslatorERNS_9allocatorIS4_EEE7__allocEv
FNDA:31,_ZNSt3__114__split_bufferIN5Catch3PtrINS1_22CumulativeReporterBase11SectionNodeEEERNS_9allocatorIS5_EEE17__destruct_at_endEPS5_
FNDA:31,_ZNSt3__114__split_bufferIN5Catch5Clara6Parser5TokenERNS_9allocatorIS4_EEE17__destruct_at_endEPS4_NS_17integral_constantIbLb0EEE
FNDA:14,_ZNSt3__114__split_bufferIN5Catch5Clara11CommandLineINS1_10ConfigDataEE3ArgERNS_9allocatorIS6_EEED2Ev
FNDA:31,_ZNSt3__114__split_bufferIPKN5Catch20IExceptionTranslatorERNS_9allocatorIS4_EEEC2EmmS7_
FNDA:62,_ZNSt3__114__split_bufferIPN5Catch16TestCaseTracking8ITrackerERNS_9allocatorIS4_EEE9__end_capEv
FNDA:31,_ZNSt3__114__split_bufferIN5Catch3PtrINS1_16TestCaseTracking8ITrackerEEERNS_9allocatorIS5_EEE17__destruct_at_endEPS5_
FNDA:7,_ZNKSt3__114__split_bufferIPKN5Catch20IExceptionTranslatorERNS_9allocatorIS4_EEE9__end_capEv
FNDA:14,_ZNSt3__114__split_bufferIN5Catch14SectionEndInfoERNS_9allocatorIS2_EEED2Ev
FNDA:14,_ZNSt3__114__split_bufferIPN5Catch14IGeneratorInfoERNS_9allocatorIS3_EEED2Ev
FNDA:31,_ZNSt3__114__split_bufferIN5Catch3PtrINS1_22CumulativeReporterBase4NodeINS1_14TestGroupStatsENS4_INS1_13TestCaseStatsENS3_11SectionNodeEEEEEEERNS_9allocatorISA_EEE17__destruct_at_endEPSA_
FNDA:31,_ZNSt3__114__split_bufferIN5Catch3PtrINS1_22CumulativeReporterBase4NodeINS1_13TestCaseStatsENS3_11SectionNodeEEEEERNS_9allocatorIS8_EEEC2EmmSB_
FNDA:31,_ZNSt3__114__split_bufferIN5Catch3PtrINS1_22CumulativeReporterBase4NodeINS1_12TestRunStatsENS4_INS1_14TestGroupStatsENS4_INS1_13TestCaseStatsENS3_11SectionNodeEEEEEEEEERNS_9allocatorISC_EEED1Ev
FNDA:31,_ZNSt3__114__split_bufferIN5Catch5Clara11CommandLineINS1_10ConfigDataEE3ArgERNS_9allocatorIS6_EEED1Ev
FNDA:62,_ZNSt3__114__split_bufferIN5Catch3PtrINS1_22CumulativeReporterBase4NodeINS1_14TestGroupStatsENS4_INS1_13TestCaseStatsENS3_11SectionNodeEEEEEEERNS_9allocatorISA_EEEC1EmmSD_
FNDA:31,_ZNSt3__114__split_bufferIN5Catch3PtrINS1_22CumulativeReporterBase4NodeINS1_14TestGroupStatsENS4_INS1_13TestCaseStatsENS3_11SectionNodeEEEEEEERNS_9allocatorISA_EEED1Ev
FNDA:14,_ZNSt3__114__split_bufferIN5Catch5Clara6Parser5TokenERNS_9allocatorIS4_EEED2Ev
FNDA:7,_ZNKSt3__114__split_bufferIN5Catch3PtrINS1_16IReporterFactoryEEERNS_9allocatorIS4_EEE8capacityEv
FNDA:62,_ZNSt3__114__split_bufferIN5Catch3PtrINS1_8TestSpec7PatternEEERNS_9allocatorIS5_EEEC1EmmS8_
FNDA:62,_ZNSt3__114__split_bufferIN5Catch3PtrINS1_16IReporterFactoryEEERNS_9allocatorIS4_EEEC1EmmS7_
FNDA:62,_ZNSt3__114__split_bufferIN5Catch11SectionInfoERNS_9allocatorIS2_EEEC1EmmS5_
FNDA:31,_ZNSt3__114__split_bufferIN5Catch11SectionInfoERNS_9allocatorIS2_EEE17__destruct_at_endEPS2_
FNDA:7,_ZNKSt3__114__split_bufferIN5Catch8TestSpec6FilterERNS_9allocatorIS3_EEE8capacityEv
FNDA:31,_ZNSt3__114__split_bufferIN5Catch8TestCaseERNS_9allocatorIS2_EEEC2EmmS5_
FNDA:7,_ZNKSt3__114__split_bufferIN5Catch3PtrINS1_16IReporterFactoryEEERNS_9allocatorIS4_EEE9__end_capEv
FNDA:31,_ZNSt3__114__split_bufferIN5Catch3PtrINS1_8TestSpec7PatternEEERNS_9allocatorIS5_EEE17__destruct_at_endEPS5_
FNDA:31,_ZNSt3__114__split_bufferIN5Catch14AssertionStatsERNS_9allocatorIS2_EEE17__destruct_at_endEPS2_
FNDA:31,_ZNSt3__114__split_bufferIN5Catch5Clara11CommandLineINS1_10ConfigDataEE3ArgERNS_9allocatorIS6_EEE17__destruct_at_endEPS6_NS_17integral_constantIbLb0EEE
FNDA:7,_ZNKSt3__114__split_bufferIN5Catch3PtrINS1_22CumulativeReporterBase4NodeINS1_12TestRunStatsENS4_INS1_14TestGroupStatsENS4_INS1_13TestCaseStatsENS3_11SectionNodeEEEEEEEEERNS_9allocatorISC_EEE8capacityEv
FNDA:31,_ZNSt3__114__split_bufferIN5Catch3PtrINS1_16IReporterFactoryEEERNS_9allocatorIS4_EEE17__destruct_at_endEPS4_
FNDA:62,_ZNSt3__114__split_bufferIN5Catch3PtrINS1_16TestCaseTracking8ITrackerEEERNS_9allocatorIS5_EEEC1EmmS8_
FNDA:71,_ZNSt3__114__split_bufferIN5Catch3PtrINS1_18IStreamingReporterEEERNS_9allocatorIS4_EEE7__allocEv
FNDA:62,_ZNSt3__114__split_bufferIN5Catch3PtrINS1_16IReporterFactoryEEERNS_9allocatorIS4_EEE9__end_capEv
FNDA:14,_ZNSt3__114__split_bufferIN5Catch3PtrINS1_18IStreamingReporterEEERNS_9allocatorIS4_EEED2Ev
FNDA:31,_ZNSt3__114__split_bufferIPN5Catch16TestCaseTracking8ITrackerERNS_9allocatorIS4_EEEC2EmmS7_
FNDA:31,_ZNSt3__114__split_bufferIN5Catch3PtrINS1_18IStreamingReporterEEERNS_9allocatorIS4_EEE17__destruct_at_endEPS4_
FNDA:31,_ZNSt3__114__split_bufferINS_12basic_stringIcNS_11char_traitsIcEENS_9allocatorIcEEEERNS4_IS6_EEE17__destruct_at_endEPS6_
FNDA:31,_ZNSt3__114__split_bufferIN5Catch8TestSpec6FilterERNS_9allocatorIS3_EEEC2EmmS6_
FNDA:71,_ZNSt3__114__split_bufferIN5Catch8TestSpec6FilterERNS_9allocatorIS3_EEE7__allocEv
FNDA:62,_ZNSt3__114__split_bufferINS_12basic_stringIcNS_11char_traitsIcEENS_9allocatorIcEEEERNS4_IS6_EEEC1EmmS8_
FNDA:62,_ZNSt3__114__split_bufferIN5Catch3PtrINS1_18IStreamingReporterEEERNS_9allocatorIS4_EEE9__end_capEv
FNDA:31,_ZNSt3__114__split_bufferIPN5Catch16TestCaseTracking8ITrackerERNS_9allocatorIS4_EEED1Ev
FNDA:7,_ZNKSt3__114__split_bufferIN5Catch3PtrINS1_18IStreamingReporterEEERNS_9allocatorIS4_EEE9__end_capEv
FNDA:31,_ZNSt3__114__split_bufferIN5Catch8TestSpec6FilterERNS_9allocatorIS3_EEE17__destruct_at_endEPS3_NS_17integral_constantIbLb0EEE
FNDA:31,_ZNSt3__114__split_bufferIN5Catch8TestCaseERNS_9allocatorIS2_EEE17__destruct_at_endEPS2_NS_17integral_constantIbLb0EEE
FNDA:31,_ZNSt3__114__split_bufferIN5Catch11SectionInfoERNS_9allocatorIS2_EEE17__destruct_at_endEPS2_NS_17integral_constantIbLb0EEE
FNDA:31,_ZNSt3__114__split_bufferIN5Catch14SectionEndInfoERNS_9allocatorIS2_EEE5clearEv
FNDA:31,_ZNSt3__114__split_bufferIN5Catch11SectionInfoERNS_9allocatorIS2_EEEC2EmmS5_
FNDA:62,_ZNSt3__114__split_bufferIN5Catch14SectionEndInfoERNS_9allocatorIS2_EEE9__end_capEv
FNDA:71,_ZNSt3__114__split_bufferINS_12basic_stringIcNS_11char_traitsIcEENS_9allocatorIcEEEERNS4_IS6_EEE7__allocEv
FNDA:7,_ZNKSt3__114__split_bufferIPN5Catch16TestCaseTracking8ITrackerERNS_9allocatorIS4_EEE9__end_capEv
FNDA:71,_ZNSt3__114__split_bufferIN5Catch3PtrINS1_22CumulativeReporterBase4NodeINS1_14TestGroupStatsENS4_INS1_13TestCaseStatsENS3_11SectionNodeEEEEEEERNS_9allocatorISA_EEE7__allocEv
FNDA:31,_ZNSt3__114__split_bufferIPN5Catch16TestCaseTracking8ITrackerERNS_9allocatorIS4_EEE17__destruct_at_endEPS4_NS_17integral_constantIbLb0EEE
FNDA:31,_ZNSt3__114__split_bufferIPN5Catch16TestCaseTracking8ITrackerERNS_9allocatorIS4_EEE17__destruct_at_endEPS4_
FNDA:71,_ZNSt3__114__split_bufferIPN5Catch14IGeneratorInfoERNS_9allocatorIS3_EEE7__allocEv
FNDA:31,_ZNSt3__114__split_bufferIN5Catch11SectionInfoERNS_9allocatorIS2_EEED1Ev
FNDA:62,_ZNSt3__114__split_bufferIN5Catch8TestCaseERNS_9allocatorIS2_EEE9__end_capEv
FNDA:31,_ZNSt3__114__split_bufferIPKN5Catch20IExceptionTranslatorERNS_9allocatorIS4_EEE17__destruct_at_endEPS4_NS_17integral_constantIbLb0EEE
FNDA:14,_ZNSt3__114__split_bufferIN5Catch14AssertionStatsERNS_9allocatorIS2_EEED2Ev
FNDA:31,_ZNSt3__114__split_bufferIN5Catch3PtrINS1_16TestCaseTracking8ITrackerEEERNS_9allocatorIS5_EEE5clearEv
FNDA:31,_ZNSt3__114__split_bufferIN5Catch3PtrINS1_22CumulativeReporterBase4NodeINS1_12TestRunStatsENS4_INS1_14TestGroupStatsENS4_INS1_13TestCaseStatsENS3_11SectionNodeEEEEEEEEERNS_9allocatorISC_EEE17__destruct_at_endEPSC_
FNDA:31,_ZNSt3__114__split_bufferIN5Catch3PtrINS1_8TestSpec7PatternEEERNS_9allocatorIS5_EEED1Ev
FNDA:14,_ZNSt3__114__split_bufferIN5Catch8TestSpec6FilterERNS_9allocatorIS3_EEED2Ev
FNDA:71,_ZNSt3__114__split_bufferIN5Catch15ConsoleReporter13SummaryColumnERNS_9allocatorIS3_EEE7__allocEv
FNDA:31,_ZNSt3__114__split_bufferIPN5Catch16TestCaseTracking8ITrackerERNS_9allocatorIS4_EEE5clearEv
FNDA:31,_ZNSt3__114__split_bufferIN5Catch3PtrINS1_22CumulativeReporterBase11SectionNodeEEERNS_9allocatorIS5_EEEC2EmmS8_
FNDA:7,_ZNKSt3__114__split_bufferINS_12basic_stringIcNS_11char_traitsIcEENS_9allocatorIcEEEERNS4_IS6_EEE9__end_capEv
FNDA:62,_ZNSt3__114__split_bufferIN5Catch5Clara6Parser5TokenERNS_9allocatorIS4_EEE9__end_capEv
FNDA:31,_ZNSt3__114__split_bufferIN5Catch3PtrINS1_22CumulativeReporterBase4NodeINS1_12TestRunStatsENS4_INS1_14TestGroupStatsENS4_INS1_13TestCaseStatsENS3_11SectionNodeEEEEEEEEERNS_9allocatorISC_EEE5clearEv
FNDA:31,_ZNSt3__114__split_bufferIPN5Catch14IGeneratorInfoERNS_9allocatorIS3_EEE5clearEv
FNDA:62,_ZNSt3__114__split_bufferIPN5Catch16TestCaseTracking8ITrackerERNS_9allocatorIS4_EEEC1EmmS7_
FNDA:7,_ZNKSt3__114__split_bufferIN5Catch8TestCaseERNS_9allocatorIS2_EEE8capacityEv
FNDA:31,_ZNSt3__114__split_bufferIN5Catch3PtrINS1_16TestCaseTracking8ITrackerEEERNS_9allocatorIS5_EEEC2EmmS8_
FNDA:71,_ZNSt3__114__split_bufferIN5Catch3PtrINS1_8TestSpec7PatternEEERNS_9allocatorIS5_EEE7__allocEv
FNDA:31,_ZNSt3__114__split_bufferIPN5Catch14IGeneratorInfoERNS_9allocatorIS3_EEED1Ev
FNDA:71,_ZNSt3__114__split_bufferIN5Catch11SectionInfoERNS_9allocatorIS2_EEE7__allocEv
FNDA:62,_ZNSt3__114__split_bufferIN5Catch3PtrINS1_22CumulativeReporterBase11SectionNodeEEERNS_9allocatorIS5_EEEC1EmmS8_
FNDA:31,_ZNSt3__114__split_bufferIN5Catch3PtrINS1_16IReporterFactoryEEERNS_9allocatorIS4_EEEC2EmmS7_
FNDA:31,_ZNSt3__114__split_bufferIN5Catch3PtrINS1_22CumulativeReporterBase4NodeINS1_13TestCaseStatsENS3_11SectionNodeEEEEERNS_9allocatorIS8_EEE5clearEv
FNDA:31,_ZNSt3__114__split_bufferIN5Catch14AssertionStatsERNS_9allocatorIS2_EEE17__destruct_at_endEPS2_NS_17integral_constantIbLb0EEE
FNDA:7,_ZNKSt3__114__split_bufferIN5Catch11MessageInfoERNS_9allocatorIS2_EEE8capacityEv
FNDA:62,_ZNSt3__114__split_bufferIN5Catch11MessageInfoERNS_9allocatorIS2_EEEC1EmmS5_
FNDA:14,_ZNSt3__114__split_bufferIN5Catch3PtrINS1_22CumulativeReporterBase11SectionNodeEEERNS_9allocatorIS5_EEED2Ev
FNDA:31,_ZNSt3__114__split_bufferIN5Catch8TestCaseERNS_9allocatorIS2_EEE17__destruct_at_endEPS2_
FNDA:62,_ZNSt3__114__split_bufferIN5Catch3PtrINS1_22CumulativeReporterBase4NodeINS1_14TestGroupStatsENS4_INS1_13TestCaseStatsENS3_11SectionNodeEEEEEEERNS_9allocatorISA_EEE9__end_capEv
FNDA:62,_ZNSt3__114__split_bufferIN5Catch11SectionInfoERNS_9allocatorIS2_EEE9__end_capEv
FNDA:31,_ZNSt3__114__split_bufferIPN5Catch14IGeneratorInfoERNS_9allocatorIS3_EEE17__destruct_at_endEPS3_
FNDA:31,_ZNSt3__114__split_bufferIPKN5Catch20IExceptionTranslatorERNS_9allocatorIS4_EEED1Ev
FNDA:31,_ZNSt3__114__split_bufferIN5Catch3PtrINS1_16TestCaseTracking8ITrackerEEERNS_9allocatorIS5_EEED1Ev
FNDA:31,_ZNSt3__114__split_bufferIN5Catch5Clara6Parser5TokenERNS_9allocatorIS4_EEEC2EmmS7_
FNDA:31,_ZNSt3__114__split_bufferIN5Catch3PtrINS1_22CumulativeReporterBase4NodeINS1_14TestGroupStatsENS4_INS1_13TestCaseStatsENS3_11SectionNodeEEEEEEERNS_9allocatorISA_EEE17__destruct_at_endEPSA_NS_17integral_constantIbLb0EEE
FNDA:31,_ZNSt3__114__split_bufferIN5Catch5Clara6Parser5TokenERNS_9allocatorIS4_EEED1Ev
FNDA:7,_ZNKSt3__114__split_bufferIN5Catch3PtrINS1_18IStreamingReporterEEERNS_9allocatorIS4_EEE8capacityEv
FNDA:31,_ZNSt3__114__split_bufferIN5Catch3PtrINS1_22CumulativeReporterBase4NodeINS1_13TestCaseStatsENS3_11SectionNodeEEEEERNS_9allocatorIS8_EEE17__destruct_at_endEPS8_NS_17integral_constantIbLb0EEE
FNDA:7,_ZNKSt3__114__split_bufferIN5Catch11SectionInfoERNS_9allocatorIS2_EEE8capacityEv
FNDA:62,_ZNSt3__114__split_bufferIN5Catch5Clara11CommandLineINS1_10ConfigDataEE3ArgERNS_9allocatorIS6_EEE9__end_capEv
FNDA:7,_ZNKSt3__114__split_bufferIN5Catch3PtrINS1_22CumulativeReporterBase4NodeINS1_14TestGroupStatsENS4_INS1_13TestCaseStatsENS3_11SectionNodeEEEEEEERNS_9allocatorISA_EEE9__end_capEv
FNDA:62,_ZNSt3__114__split_bufferIPN5Catch14IGeneratorInfoERNS_9allocatorIS3_EEEC1EmmS6_
FNDA:71,_ZNSt3__114__split_bufferIPN5Catch16TestCaseTracking8ITrackerERNS_9allocatorIS4_EEE7__allocEv
FNDA:62,_ZNSt3__114__split_bufferIN5Catch3PtrINS1_8TestSpec7PatternEEERNS_9allocatorIS5_EEE9__end_capEv
FNDA:31,_ZNSt3__114__split_bufferIN5Catch14AssertionStatsERNS_9allocatorIS2_EEEC2EmmS5_
FNDA:31,_ZNSt3__114__split_bufferIN5Catch5Clara6Parser5TokenERNS_9allocatorIS4_EEE5clearEv
FNDA:14,_ZNSt3__114__split_bufferIPKN5Catch20IExceptionTranslatorERNS_9allocatorIS4_EEED2Ev
FNDA:31,_ZNSt3__114__split_bufferIN5Catch3PtrINS1_8TestSpec7PatternEEERNS_9allocatorIS5_EEE17__destruct_at_endEPS5_NS_17integral_constantIbLb0EEE
FNDA:7,_ZNKSt3__114__split_bufferIN5Catch11MessageInfoERNS_9allocatorIS2_EEE9__end_capEv
FNDA:62,_ZNSt3__114__split_bufferIN5Catch8TestSpec6FilterERNS_9allocatorIS3_EEEC1EmmS6_
FNDA:31,_ZNSt3__114__split_bufferIPKN5Catch20IExceptionTranslatorERNS_9allocatorIS4_EEE5clearEv
FNDA:62,_ZNSt3__114__split_bufferIN5Catch3PtrINS1_18IStreamingReporterEEERNS_9allocatorIS4_EEEC1EmmS7_
FNDA:7,_ZNKSt3__114__split_bufferIN5Catch14AssertionStatsERNS_9allocatorIS2_EEE8capacityEv
FNDA:7,_ZNKSt3__114__split_bufferIN5Catch3PtrINS1_8TestSpec7PatternEEERNS_9allocatorIS5_EEE9__end_capEv
FNDA:7,_ZNKSt3__114__split_bufferIN5Catch15ConsoleReporter13SummaryColumnERNS_9allocatorIS3_EEE9__end_capEv
FNDA:31,_ZNSt3__114__split_bufferIN5Catch3PtrINS1_18IStreamingReporterEEERNS_9allocatorIS4_EEEC2EmmS7_
FNDA:31,_ZNSt3__114__split_bufferIN5Catch3PtrINS1_22CumulativeReporterBase4NodeINS1_13TestCaseStatsENS3_11SectionNodeEEEEERNS_9allocatorIS8_EEED1Ev
FNDA:14,_ZNSt3__114__split_bufferIN5Catch15ConsoleReporter13SummaryColumnERNS_9allocatorIS3_EEED2Ev
FNDA:62,_ZNSt3__114__split_bufferIN5Catch3PtrINS1_22CumulativeReporterBase4NodeINS1_12TestRunStatsENS4_INS1_14TestGroupStatsENS4_INS1_13TestCaseStatsENS3_11SectionNodeEEEEEEEEERNS_9allocatorISC_EEEC1EmmSF_
FNDA:31,_ZNSt3__114__split_bufferIPN5Catch14IGeneratorInfoERNS_9allocatorIS3_EEE17__destruct_at_endEPS3_NS_17integral_constantIbLb0EEE
FNDA:31,_ZNSt3__114__split_bufferIN5Catch15ConsoleReporter13SummaryColumnERNS_9allocatorIS3_EEE17__destruct_at_endEPS3_NS_17integral_constantIbLb0EEE
FNDA:62,_ZNSt3__114__split_bufferIPKN5Catch20IExceptionTranslatorERNS_9allocatorIS4_EEE9__end_capEv
FNDA:31,_ZNSt3__114__split_bufferIN5Catch11MessageInfoERNS_9allocatorIS2_EEEC2EmmS5_
FNDA:71,_ZNSt3__114__split_bufferIN5Catch11MessageInfoERNS_9allocatorIS2_EEE7__allocEv
FNDA:7,_ZNKSt3__114__split_bufferIN5Catch11SectionInfoERNS_9allocatorIS2_EEE9__end_capEv
FNDA:7,_ZNKSt3__114__split_bufferIN5Catch3PtrINS1_16TestCaseTracking8ITrackerEEERNS_9allocatorIS5_EEE9__end_capEv
FNDA:62,_ZNSt3__114__split_bufferINS_12basic_stringIcNS_11char_traitsIcEENS_9allocatorIcEEEERNS4_IS6_EEE9__end_capEv
FNDA:71,_ZNSt3__114__split_bufferIN5Catch8TestCaseERNS_9allocatorIS2_EEE7__allocEv
FNDA:62,_ZNSt3__114__split_bufferIN5Catch3PtrINS1_22CumulativeReporterBase4NodeINS1_13TestCaseStatsENS3_11SectionNodeEEEEERNS_9allocatorIS8_EEE9__end_capEv
FNDA:62,_ZNSt3__114__split_bufferIN5Catch3PtrINS1_16TestCaseTracking8ITrackerEEERNS_9allocatorIS5_EEE9__end_capEv
FNDA:71,_ZNSt3__114__split_bufferIN5Catch14AssertionStatsERNS_9allocatorIS2_EEE7__allocEv
FNDA:7,_ZNKSt3__114__split_bufferIN5Catch3PtrINS1_22CumulativeReporterBase11SectionNodeEEERNS_9allocatorIS5_EEE8capacityEv
FNDA:31,_ZNSt3__114__split_bufferIN5Catch3PtrINS1_8TestSpec7PatternEEERNS_9allocatorIS5_EEE5clearEv
FNDA:7,_ZNKSt3__114__split_bufferIPN5Catch14IGeneratorInfoERNS_9allocatorIS3_EEE8capacityEv
FNDA:71,_ZNSt3__114__split_bufferIN5Catch3PtrINS1_16IReporterFactoryEEERNS_9allocatorIS4_EEE7__allocEv
FNDA:31,_ZNSt3__114__split_bufferIN5Catch3PtrINS1_22CumulativeReporterBase4NodeINS1_12TestRunStatsENS4_INS1_14TestGroupStatsENS4_INS1_13TestCaseStatsENS3_11SectionNodeEEEEEEEEERNS_9allocatorISC_EEEC2EmmSF_
FNF:231
FNH:231
DA:54,71
DA:56,62
DA:57,7
DA:83,31
DA:86,7
DA:136,31
DA:309,128
DA:310,33
DA:311,31
DA:323,31
DA:324,62
DA:325,93
DA:326,31
DA:327,31
DA:328,62
DA:354,31
DA:355,31
DA:356,31
DA:357,14
DA:358,62
LF:20
LH:20
end_of_record
TN:
SF:/Applications/Xcode.app/Contents/Developer/Toolchains/XcodeDefault.xctoolchain/usr/include/c++/v1/__tree
FN:58,_ZNSt3__120__tree_is_left_childIPNS_16__tree_node_baseIPvEEEEbT_
FN:124,_ZNSt3__110__tree_minIPNS_16__tree_node_baseIPvEEEET_S5_
FN:136,_ZNSt3__110__tree_maxIPNS_16__tree_node_baseIPvEEEET_S5_
FN:147,_ZNSt3__111__tree_nextIPNS_16__tree_node_baseIPvEEEET_S5_
FN:160,_ZNSt3__111__tree_prevIPNS_16__tree_node_baseIPvEEEET_S5_
FN:173,_ZNSt3__111__tree_leafIPNS_16__tree_node_baseIPvEEEET_S5_
FN:197,_ZNSt3__118__tree_left_rotateIPNS_16__tree_node_baseIPvEEEEvT_
FN:217,_ZNSt3__119__tree_right_rotateIPNS_16__tree_node_baseIPvEEEEvT_
FN:242,_ZNSt3__127__tree_balance_after_insertIPNS_16__tree_node_baseIPvEEEEvT_S5_
FN:517,_ZNSt3__122__tree_node_destructorINS_9allocatorINS_11__tree_nodeIN5Catch8TestCaseEPvEEEEEC1ERS7_b
FN:517,_ZNSt3__122__tree_node_destructorINS_9allocatorINS_11__tree_nodeINS_12__value_typeINS_12basic_stringIcNS_11char_traitsIcEENS1_IcEEEEPN5Catch14IGeneratorInfoEEEPvEEEEEC2ERSF_b
FN:517,_ZNSt3__122__tree_node_destructorINS_9allocatorINS_11__tree_nodeIN5Catch8TestCaseEPvEEEEEC2ERS7_b
FN:517,_ZNSt3__122__tree_node_destructorINS_9allocatorINS_11__tree_nodeINS_12__value_typeINS_12basic_stringIcNS_11char_traitsIcEENS1_IcEEEEN5Catch8TagAliasEEEPvEEEEEC1ERSE_b
FN:517,_ZNSt3__122__tree_node_destructorINS_9allocatorINS_11__tree_nodeINS_12__value_typeINS_12basic_stringIcNS_11char_traitsIcEENS1_IcEEEEN5Catch3PtrINS9_16IReporterFactoryEEEEEPvEEEEEC2ERSG_b
FN:517,_ZNSt3__122__tree_node_destructorINS_9allocatorINS_11__tree_nodeINS_12__value_typeINS_12basic_stringIcNS_11char_traitsIcEENS1_IcEEEEN5Catch7TagInfoEEEPvEEEEEC2ERSE_b
FN:517,_ZNSt3__122__tree_node_destructorINS_9allocatorINS_11__tree_nodeINS_12__value_typeINS_12basic_stringIcNS_11char_traitsIcEENS1_IcEEEEN5Catch3PtrINS9_16IReporterFactoryEEEEEPvEEEEEC1ERSG_b
FN:517,_ZNSt3__122__tree_node_destructorINS_9allocatorINS_11__tree_nodeINS_12__value_typeINS_12basic_stringIcNS_11char_traitsIcEENS1_IcEEEEPN5Catch18IGeneratorsForTestEEEPvEEEEEC1ERSF_b
FN:517,_ZNSt3__122__tree_node_destructorINS_9allocatorINS_11__tree_nodeINS_12basic_stringIcNS_11char_traitsIcEENS1_IcEEEEPvEEEEEC2ERSA_b
FN:517,_ZNSt3__122__tree_node_destructorINS_9allocatorINS_11__tree_nodeINS_12__value_typeINS_12basic_stringIcNS_11char_traitsIcEENS1_IcEEEEPN5Catch18IGeneratorsForTestEEEPvEEEEEC2ERSF_b
FN:517,_ZNSt3__122__tree_node_destructorINS_9allocatorINS_11__tree_nodeINS_12__value_typeINS_12basic_stringIcNS_11char_traitsIcEENS1_IcEEEEN5Catch8TagAliasEEEPvEEEEEC2ERSE_b
FN:517,_ZNSt3__122__tree_node_destructorINS_9allocatorINS_11__tree_nodeINS_12__value_typeINS_12basic_stringIcNS_11char_traitsIcEENS1_IcEEEEN5Catch7TagInfoEEEPvEEEEEC1ERSE_b
FN:517,_ZNSt3__122__tree_node_destructorINS_9allocatorINS_11__tree_nodeINS_12__value_typeINS_12basic_stringIcNS_11char_traitsIcEENS1_IcEEEEPN5Catch14IGeneratorInfoEEEPvEEEEEC1ERSF_b
FN:517,_ZNSt3__122__tree_node_destructorINS_9allocatorINS_11__tree_nodeINS_12basic_stringIcNS_11char_traitsIcEENS1_IcEEEEPvEEEEEC1ERSA_b
FN:523,_ZNSt3__122__tree_node_destructorINS_9allocatorINS_11__tree_nodeIN5Catch8TestCaseEPvEEEEEclEPS6_
FN:523,_ZNSt3__122__tree_node_destructorINS_9allocatorINS_11__tree_nodeINS_12__value_typeINS_12basic_stringIcNS_11char_traitsIcEENS1_IcEEEEPN5Catch18IGeneratorsForTestEEEPvEEEEEclEPSE_
FN:523,_ZNSt3__122__tree_node_destructorINS_9allocatorINS_11__tree_nodeINS_12__value_typeINS_12basic_stringIcNS_11char_traitsIcEENS1_IcEEEEN5Catch8TagAliasEEEPvEEEEEclEPSD_
FN:523,_ZNSt3__122__tree_node_destructorINS_9allocatorINS_11__tree_nodeINS_12__value_typeINS_12basic_stringIcNS_11char_traitsIcEENS1_IcEEEEPN5Catch14IGeneratorInfoEEEPvEEEEEclEPSE_
FN:523,_ZNSt3__122__tree_node_destructorINS_9allocatorINS_11__tree_nodeINS_12__value_typeINS_12basic_stringIcNS_11char_traitsIcEENS1_IcEEEEN5Catch7TagInfoEEEPvEEEEEclEPSD_
FN:523,_ZNSt3__122__tree_node_destructorINS_9allocatorINS_11__tree_nodeINS_12basic_stringIcNS_11char_traitsIcEENS1_IcEEEEPvEEEEEclEPS9_
FN:523,_ZNSt3__122__tree_node_destructorINS_9allocatorINS_11__tree_nodeINS_12__value_typeINS_12basic_stringIcNS_11char_traitsIcEENS1_IcEEEEN5Catch3PtrINS9_16IReporterFactoryEEEEEPvEEEEEclEPSF_
FN:544,_ZNSt3__115__tree_end_nodeIPNS_16__tree_node_baseIPvEEEC1Ev
FN:544,_ZNSt3__115__tree_end_nodeIPNS_16__tree_node_baseIPvEEEC2Ev
FN:642,_ZNKSt3__115__tree_iteratorINS_12__value_typeINS_12basic_stringIcNS_11char_traitsIcEENS_9allocatorIcEEEEPN5Catch18IGeneratorsForTestEEEPNS_11__tree_nodeISB_PvEElEdeEv
FN:642,_ZNKSt3__115__tree_iteratorINS_12__value_typeINS_12basic_stringIcNS_11char_traitsIcEENS_9allocatorIcEEEEN5Catch7TagInfoEEEPNS_11__tree_nodeISA_PvEElEdeEv
FN:642,_ZNKSt3__115__tree_iteratorINS_12__value_typeINS_12basic_stringIcNS_11char_traitsIcEENS_9allocatorIcEEEEPN5Catch14IGeneratorInfoEEEPNS_11__tree_nodeISB_PvEElEdeEv
FN:643,_ZNKSt3__115__tree_iteratorINS_12__value_typeINS_12basic_stringIcNS_11char_traitsIcEENS_9allocatorIcEEEEN5Catch7TagInfoEEEPNS_11__tree_nodeISA_PvEElEptEv
FN:663,_ZNSt3__1eqERKNS_15__tree_iteratorINS_12__value_typeINS_12basic_stringIcNS_11char_traitsIcEENS_9allocatorIcEEEEPN5Catch18IGeneratorsForTestEEEPNS_11__tree_nodeISB_PvEElEESI_
FN:663,_ZNSt3__1eqERKNS_15__tree_iteratorINS_12__value_typeINS_12basic_stringIcNS_11char_traitsIcEENS_9allocatorIcEEEEN5Catch7TagInfoEEEPNS_11__tree_nodeISA_PvEElEESH_
FN:663,_ZNSt3__1eqERKNS_15__tree_iteratorINS_12__value_typeINS_12basic_stringIcNS_11char_traitsIcEENS_9allocatorIcEEEEPN5Catch14IGeneratorInfoEEEPNS_11__tree_nodeISB_PvEElEESI_
FN:666,_ZNSt3__1neERKNS_15__tree_iteratorINS_12__value_typeINS_12basic_stringIcNS_11char_traitsIcEENS_9allocatorIcEEEEPN5Catch14IGeneratorInfoEEEPNS_11__tree_nodeISB_PvEElEESI_
FN:666,_ZNSt3__1neERKNS_15__tree_iteratorINS_12__value_typeINS_12basic_stringIcNS_11char_traitsIcEENS_9allocatorIcEEEEPN5Catch18IGeneratorsForTestEEEPNS_11__tree_nodeISB_PvEElEESI_
FN:666,_ZNSt3__1neERKNS_15__tree_iteratorINS_12__value_typeINS_12basic_stringIcNS_11char_traitsIcEENS_9allocatorIcEEEEN5Catch7TagInfoEEEPNS_11__tree_nodeISA_PvEElEESH_
FN:671,_ZNSt3__115__tree_iteratorINS_12__value_typeINS_12basic_stringIcNS_11char_traitsIcEENS_9allocatorIcEEEEN5Catch7TagInfoEEEPNS_11__tree_nodeISA_PvEElEC1ESE_
FN:671,_ZNSt3__115__tree_iteratorINS_12__value_typeINS_12basic_stringIcNS_11char_traitsIcEENS_9allocatorIcEEEEPN5Catch14IGeneratorInfoEEEPNS_11__tree_nodeISB_PvEElEC2ESF_
FN:671,_ZNSt3__115__tree_iteratorINS_12__value_typeINS_12basic_stringIcNS_11char_traitsIcEENS_9allocatorIcEEEEPN5Catch18IGeneratorsForTestEEEPNS_11__tree_nodeISB_PvEElEC1ESF_
FN:671,_ZNSt3__115__tree_iteratorINS_12basic_stringIcNS_11char_traitsIcEENS_9allocatorIcEEEEPNS_11__tree_nodeIS6_PvEElEC2ESA_
FN:671,_ZNSt3__115__tree_iteratorIN5Catch8TestCaseEPNS_11__tree_nodeIS2_PvEElEC2ES6_
FN:671,_ZNSt3__115__tree_iteratorINS_12__value_typeINS_12basic_stringIcNS_11char_traitsIcEENS_9allocatorIcEEEEN5Catch3PtrINS8_16IReporterFactoryEEEEEPNS_11__tree_nodeISC_PvEElEC1ESG_
FN:671,_ZNSt3__115__tree_iteratorINS_12__value_typeINS_12basic_stringIcNS_11char_traitsIcEENS_9allocatorIcEEEEN5Catch8TagAliasEEEPNS_11__tree_nodeISA_PvEElEC1ESE_
FN:671,_ZNSt3__115__tree_iteratorINS_12__value_typeINS_12basic_stringIcNS_11char_traitsIcEENS_9allocatorIcEEEEN5Catch7TagInfoEEEPNS_11__tree_nodeISA_PvEElEC2ESE_
FN:671,_ZNSt3__115__tree_iteratorINS_12__value_typeINS_12basic_stringIcNS_11char_traitsIcEENS_9allocatorIcEEEEPN5Catch18IGeneratorsForTestEEEPNS_11__tree_nodeISB_PvEElEC2ESF_
FN:671,_ZNSt3__115__tree_iteratorINS_12__value_typeINS_12basic_stringIcNS_11char_traitsIcEENS_9allocatorIcEEEEPN5Catch14IGeneratorInfoEEEPNS_11__tree_nodeISB_PvEElEC1ESF_
FN:671,_ZNSt3__115__tree_iteratorINS_12basic_stringIcNS_11char_traitsIcEENS_9allocatorIcEEEEPNS_11__tree_nodeIS6_PvEElEC1ESA_
FN:671,_ZNSt3__115__tree_iteratorIN5Catch8TestCaseEPNS_11__tree_nodeIS2_PvEElEC1ES6_
FN:671,_ZNSt3__115__tree_iteratorINS_12__value_typeINS_12basic_stringIcNS_11char_traitsIcEENS_9allocatorIcEEEEN5Catch8TagAliasEEEPNS_11__tree_nodeISA_PvEElEC2ESE_
FN:671,_ZNSt3__115__tree_iteratorINS_12__value_typeINS_12basic_stringIcNS_11char_traitsIcEENS_9allocatorIcEEEEN5Catch3PtrINS8_16IReporterFactoryEEEEEPNS_11__tree_nodeISC_PvEElEC2ESG_
FN:675,_ZNSt3__13mapINS_12basic_stringIcNS_11char_traitsIcEENS_9allocatorIcEEEEPN5Catch18IGeneratorsForTestENS_4lessIS6_EENS4_INS_4pairIKS6_S9_EEEEED1Ev
FN:675,_ZNSt3__13mapINS_12basic_stringIcNS_11char_traitsIcEENS_9allocatorIcEEEEN5Catch7TagInfoENS_4lessIS6_EENS4_INS_4pairIKS6_S8_EEEEED2Ev
FN:675,_ZNSt3__13mapINS_12basic_stringIcNS_11char_traitsIcEENS_9allocatorIcEEEEN5Catch7TagInfoENS_4lessIS6_EENS4_INS_4pairIKS6_S8_EEEEED1Ev
FN:675,_ZNSt3__13mapINS_12basic_stringIcNS_11char_traitsIcEENS_9allocatorIcEEEEPN5Catch18IGeneratorsForTestENS_4lessIS6_EENS4_INS_4pairIKS6_S9_EEEEED2Ev
FN:677,_ZNSt3__13setIN5Catch8TestCaseENS_4lessIS2_EENS_9allocatorIS2_EEED2Ev
FN:677,_ZNSt3__13setIN5Catch8TestCaseENS_4lessIS2_EENS_9allocatorIS2_EEED1Ev
FN:711,_ZNSt3__121__tree_const_iteratorINS_12__value_typeINS_12basic_stringIcNS_11char_traitsIcEENS_9allocatorIcEEEEN5Catch3PtrINS8_16IReporterFactoryEEEEEPNS_11__tree_nodeISC_PvEElEC1Ev
FN:711,_ZNSt3__121__tree_const_iteratorINS_12__value_typeINS_12basic_stringIcNS_11char_traitsIcEENS_9allocatorIcEEEEN5Catch3PtrINS8_16IReporterFactoryEEEEEPNS_11__tree_nodeISC_PvEElEC2Ev
FN:730,_ZNSt3__121__tree_const_iteratorINS_12__value_typeINS_12basic_stringIcNS_11char_traitsIcEENS_9allocatorIcEEEEPN5Catch18IGeneratorsForTestEEEPNS_11__tree_nodeISB_PvEElEC2ENS_15__tree_iteratorISB_SF_lEE
FN:730,_ZNSt3__121__tree_const_iteratorINS_12basic_stringIcNS_11char_traitsIcEENS_9allocatorIcEEEEPNS_11__tree_nodeIS6_PvEElEC1ENS_15__tree_iteratorIS6_SA_lEE
FN:730,_ZNSt3__121__tree_const_iteratorINS_12basic_stringIcNS_11char_traitsIcEENS_9allocatorIcEEEEPNS_11__tree_nodeIS6_PvEElEC2ENS_15__tree_iteratorIS6_SA_lEE
FN:730,_ZNSt3__121__tree_const_iteratorIN5Catch8TestCaseEPNS_11__tree_nodeIS2_PvEElEC1ENS_15__tree_iteratorIS2_S6_lEE
FN:730,_ZNSt3__121__tree_const_iteratorINS_12__value_typeINS_12basic_stringIcNS_11char_traitsIcEENS_9allocatorIcEEEEN5Catch7TagInfoEEEPNS_11__tree_nodeISA_PvEElEC1ENS_15__tree_iteratorISA_SE_lEE
FN:730,_ZNSt3__121__tree_const_iteratorINS_12__value_typeINS_12basic_stringIcNS_11char_traitsIcEENS_9allocatorIcEEEEPN5Catch14IGeneratorInfoEEEPNS_11__tree_nodeISB_PvEElEC2ENS_15__tree_iteratorISB_SF_lEE
FN:730,_ZNSt3__121__tree_const_iteratorINS_12__value_typeINS_12basic_stringIcNS_11char_traitsIcEENS_9allocatorIcEEEEPN5Catch18IGeneratorsForTestEEEPNS_11__tree_nodeISB_PvEElEC1ENS_15__tree_iteratorISB_SF_lEE
FN:730,_ZNSt3__121__tree_const_iteratorINS_12__value_typeINS_12basic_stringIcNS_11char_traitsIcEENS_9allocatorIcEEEEPN5Catch14IGeneratorInfoEEEPNS_11__tree_nodeISB_PvEElEC1ENS_15__tree_iteratorISB_SF_lEE
FN:730,_ZNSt3__121__tree_const_iteratorINS_12__value_typeINS_12basic_stringIcNS_11char_traitsIcEENS_9allocatorIcEEEEN5Catch7TagInfoEEEPNS_11__tree_nodeISA_PvEElEC2ENS_15__tree_iteratorISA_SE_lEE
FN:730,_ZNSt3__121__tree_const_iteratorIN5Catch8TestCaseEPNS_11__tree_nodeIS2_PvEElEC2ENS_15__tree_iteratorIS2_S6_lEE
FN:733,_ZNKSt3__121__tree_const_iteratorINS_12__value_typeINS_12basic_stringIcNS_11char_traitsIcEENS_9allocatorIcEEEEN5Catch8TagAliasEEEPNS_11__tree_nodeISA_PvEElEdeEv
FN:733,_ZNKSt3__121__tree_const_iteratorINS_12basic_stringIcNS_11char_traitsIcEENS_9allocatorIcEEEEPNS_11__tree_nodeIS6_PvEElEdeEv
FN:733,_ZNKSt3__121__tree_const_iteratorINS_12__value_typeINS_12basic_stringIcNS_11char_traitsIcEENS_9allocatorIcEEEEN5Catch3PtrINS8_16IReporterFactoryEEEEEPNS_11__tree_nodeISC_PvEElEdeEv
FN:733,_ZNKSt3__121__tree_const_iteratorINS_12__value_typeIiN5Catch5Clara11CommandLineINS2_10ConfigDataEE3ArgEEEPNS_11__tree_nodeIS8_PvEElEdeEv
FN:734,_ZNKSt3__121__tree_const_iteratorINS_12__value_typeINS_12basic_stringIcNS_11char_traitsIcEENS_9allocatorIcEEEEPN5Catch14IGeneratorInfoEEEPNS_11__tree_nodeISB_PvEElEptEv
FN:734,_ZNKSt3__121__tree_const_iteratorINS_12__value_typeINS_12basic_stringIcNS_11char_traitsIcEENS_9allocatorIcEEEEN5Catch3PtrINS8_16IReporterFactoryEEEEEPNS_11__tree_nodeISC_PvEElEptEv
FN:734,_ZNKSt3__121__tree_const_iteratorINS_12__value_typeINS_12basic_stringIcNS_11char_traitsIcEENS_9allocatorIcEEEEN5Catch7TagInfoEEEPNS_11__tree_nodeISA_PvEElEptEv
FN:734,_ZNKSt3__121__tree_const_iteratorINS_12__value_typeINS_12basic_stringIcNS_11char_traitsIcEENS_9allocatorIcEEEEN5Catch8TagAliasEEEPNS_11__tree_nodeISA_PvEElEptEv
FN:734,_ZNKSt3__121__tree_const_iteratorINS_12__value_typeIiN5Catch5Clara11CommandLineINS2_10ConfigDataEE3ArgEEEPNS_11__tree_nodeIS8_PvEElEptEv
FN:734,_ZNKSt3__121__tree_const_iteratorINS_12__value_typeINS_12basic_stringIcNS_11char_traitsIcEENS_9allocatorIcEEEEPN5Catch18IGeneratorsForTestEEEPNS_11__tree_nodeISB_PvEElEptEv
FN:734,_ZNKSt3__121__tree_const_iteratorIN5Catch8TestCaseEPNS_11__tree_nodeIS2_PvEElEptEv
FN:738,_ZNSt3__121__tree_const_iteratorINS_12__value_typeINS_12basic_stringIcNS_11char_traitsIcEENS_9allocatorIcEEEEN5Catch7TagInfoEEEPNS_11__tree_nodeISA_PvEElEppEv
FN:738,_ZNSt3__121__tree_const_iteratorINS_12__value_typeINS_12basic_stringIcNS_11char_traitsIcEENS_9allocatorIcEEEEN5Catch8TagAliasEEEPNS_11__tree_nodeISA_PvEElEppEv
FN:738,_ZNSt3__121__tree_const_iteratorINS_12basic_stringIcNS_11char_traitsIcEENS_9allocatorIcEEEEPNS_11__tree_nodeIS6_PvEElEppEv
FN:738,_ZNSt3__121__tree_const_iteratorINS_12__value_typeINS_12basic_stringIcNS_11char_traitsIcEENS_9allocatorIcEEEEN5Catch3PtrINS8_16IReporterFactoryEEEEEPNS_11__tree_nodeISC_PvEElEppEv
FN:746,_ZNSt3__121__tree_const_iteratorINS_12basic_stringIcNS_11char_traitsIcEENS_9allocatorIcEEEEPNS_11__tree_nodeIS6_PvEElEmmEv
FN:754,_ZNSt3__1eqERKNS_21__tree_const_iteratorINS_12__value_typeINS_12basic_stringIcNS_11char_traitsIcEENS_9allocatorIcEEEEPN5Catch14IGeneratorInfoEEEPNS_11__tree_nodeISB_PvEElEESI_
FN:754,_ZNSt3__1eqERKNS_21__tree_const_iteratorINS_12basic_stringIcNS_11char_traitsIcEENS_9allocatorIcEEEEPNS_11__tree_nodeIS6_PvEElEESD_
FN:754,_ZNSt3__1eqERKNS_21__tree_const_iteratorINS_12__value_typeIiN5Catch5Clara11CommandLineINS2_10ConfigDataEE3ArgEEEPNS_11__tree_nodeIS8_PvEElEESF_
FN:754,_ZNSt3__1eqERKNS_21__tree_const_iteratorINS_12__value_typeINS_12basic_stringIcNS_11char_traitsIcEENS_9allocatorIcEEEEN5Catch8TagAliasEEEPNS_11__tree_nodeISA_PvEElEESH_
FN:754,_ZNSt3__1eqERKNS_21__tree_const_iteratorINS_12__value_typeINS_12basic_stringIcNS_11char_traitsIcEENS_9allocatorIcEEEEN5Catch7TagInfoEEEPNS_11__tree_nodeISA_PvEElEESH_
FN:754,_ZNSt3__1eqERKNS_21__tree_const_iteratorINS_12__value_typeINS_12basic_stringIcNS_11char_traitsIcEENS_9allocatorIcEEEEPN5Catch18IGeneratorsForTestEEEPNS_11__tree_nodeISB_PvEElEESI_
FN:754,_ZNSt3__1eqERKNS_21__tree_const_iteratorINS_12__value_typeINS_12basic_stringIcNS_11char_traitsIcEENS_9allocatorIcEEEEN5Catch3PtrINS8_16IReporterFactoryEEEEEPNS_11__tree_nodeISC_PvEElEESJ_
FN:757,_ZNSt3__1neERKNS_21__tree_const_iteratorINS_12__value_typeINS_12basic_stringIcNS_11char_traitsIcEENS_9allocatorIcEEEEN5Catch7TagInfoEEEPNS_11__tree_nodeISA_PvEElEESH_
FN:757,_ZNSt3__1neERKNS_21__tree_const_iteratorINS_12__value_typeINS_12basic_stringIcNS_11char_traitsIcEENS_9allocatorIcEEEEPN5Catch18IGeneratorsForTestEEEPNS_11__tree_nodeISB_PvEElEESI_
FN:757,_ZNSt3__1neERKNS_21__tree_const_iteratorINS_12__value_typeINS_12basic_stringIcNS_11char_traitsIcEENS_9allocatorIcEEEEN5Catch8TagAliasEEEPNS_11__tree_nodeISA_PvEElEESH_
FN:757,_ZNSt3__1neERKNS_21__tree_const_iteratorINS_12basic_stringIcNS_11char_traitsIcEENS_9allocatorIcEEEEPNS_11__tree_nodeIS6_PvEElEESD_
FN:757,_ZNSt3__1neERKNS_21__tree_const_iteratorINS_12__value_typeIiN5Catch5Clara11CommandLineINS2_10ConfigDataEE3ArgEEEPNS_11__tree_nodeIS8_PvEElEESF_
FN:757,_ZNSt3__1neERKNS_21__tree_const_iteratorINS_12__value_typeINS_12basic_stringIcNS_11char_traitsIcEENS_9allocatorIcEEEEN5Catch3PtrINS8_16IReporterFactoryEEEEEPNS_11__tree_nodeISC_PvEElEESJ_
FN:762,_ZNSt3__121__tree_const_iteratorINS_12basic_stringIcNS_11char_traitsIcEENS_9allocatorIcEEEEPNS_11__tree_nodeIS6_PvEElEC1ESA_
FN:762,_ZNSt3__121__tree_const_iteratorINS_12__value_typeINS_12basic_stringIcNS_11char_traitsIcEENS_9allocatorIcEEEEN5Catch8TagAliasEEEPNS_11__tree_nodeISA_PvEElEC2ESE_
FN:762,_ZNSt3__121__tree_const_iteratorINS_12__value_typeINS_12basic_stringIcNS_11char_traitsIcEENS_9allocatorIcEEEEN5Catch3PtrINS8_16IReporterFactoryEEEEEPNS_11__tree_nodeISC_PvEElEC2ESG_
FN:762,_ZNSt3__121__tree_const_iteratorINS_12__value_typeIiN5Catch5Clara11CommandLineINS2_10ConfigDataEE3ArgEEEPNS_11__tree_nodeIS8_PvEElEC1ESC_
FN:762,_ZNSt3__121__tree_const_iteratorINS_12basic_stringIcNS_11char_traitsIcEENS_9allocatorIcEEEEPNS_11__tree_nodeIS6_PvEElEC2ESA_
FN:762,_ZNSt3__121__tree_const_iteratorINS_12__value_typeINS_12basic_stringIcNS_11char_traitsIcEENS_9allocatorIcEEEEN5Catch8TagAliasEEEPNS_11__tree_nodeISA_PvEElEC1ESE_
FN:762,_ZNSt3__121__tree_const_iteratorINS_12__value_typeIiN5Catch5Clara11CommandLineINS2_10ConfigDataEE3ArgEEEPNS_11__tree_nodeIS8_PvEElEC2ESC_
FN:762,_ZNSt3__121__tree_const_iteratorINS_12__value_typeINS_12basic_stringIcNS_11char_traitsIcEENS_9allocatorIcEEEEN5Catch3PtrINS8_16IReporterFactoryEEEEEPNS_11__tree_nodeISC_PvEElEC1ESG_
FN:824,_ZNSt3__16__treeINS_12__value_typeINS_12basic_stringIcNS_11char_traitsIcEENS_9allocatorIcEEEEPN5Catch18IGeneratorsForTestEEENS_19__map_value_compareIS7_SB_NS_4lessIS7_EELb1EEENS5_ISB_EEE10__end_nodeEv
FN:824,_ZNSt3__16__treeINS_12__value_typeINS_12basic_stringIcNS_11char_traitsIcEENS_9allocatorIcEEEEPN5Catch14IGeneratorInfoEEENS_19__map_value_compareIS7_SB_NS_4lessIS7_EELb1EEENS5_ISB_EEE10__end_nodeEv
FN:824,_ZNSt3__16__treeINS_12__value_typeIiN5Catch5Clara11CommandLineINS2_10ConfigDataEE3ArgEEENS_19__map_value_compareIiS8_NS_4lessIiEELb1EEENS_9allocatorIS8_EEE10__end_nodeEv
FN:824,_ZNSt3__16__treeINS_12basic_stringIcNS_11char_traitsIcEENS_9allocatorIcEEEENS_4lessIS6_EENS4_IS6_EEE10__end_nodeEv
FN:824,_ZNSt3__16__treeIN5Catch8TestCaseENS_4lessIS2_EENS_9allocatorIS2_EEE10__end_nodeEv
FN:824,_ZNSt3__16__treeINS_12__value_typeINS_12basic_stringIcNS_11char_traitsIcEENS_9allocatorIcEEEEN5Catch8TagAliasEEENS_19__map_value_compareIS7_SA_NS_4lessIS7_EELb1EEENS5_ISA_EEE10__end_nodeEv
FN:824,_ZNSt3__16__treeINS_12__value_typeINS_12basic_stringIcNS_11char_traitsIcEENS_9allocatorIcEEEEN5Catch7TagInfoEEENS_19__map_value_compareIS7_SA_NS_4lessIS7_EELb1EEENS5_ISA_EEE10__end_nodeEv
FN:824,_ZNSt3__16__treeINS_12__value_typeINS_12basic_stringIcNS_11char_traitsIcEENS_9allocatorIcEEEEN5Catch3PtrINS8_16IReporterFactoryEEEEENS_19__map_value_compareIS7_SC_NS_4lessIS7_EELb1EEENS5_ISC_EEE10__end_nodeEv
FN:832,_ZNKSt3__16__treeINS_12__value_typeINS_12basic_stringIcNS_11char_traitsIcEENS_9allocatorIcEEEEN5Catch3PtrINS8_16IReporterFactoryEEEEENS_19__map_value_compareIS7_SC_NS_4lessIS7_EELb1EEENS5_ISC_EEE10__end_nodeEv
FN:832,_ZNKSt3__16__treeINS_12__value_typeIiN5Catch5Clara11CommandLineINS2_10ConfigDataEE3ArgEEENS_19__map_value_compareIiS8_NS_4lessIiEELb1EEENS_9allocatorIS8_EEE10__end_nodeEv
FN:832,_ZNKSt3__16__treeINS_12__value_typeINS_12basic_stringIcNS_11char_traitsIcEENS_9allocatorIcEEEEN5Catch8TagAliasEEENS_19__map_value_compareIS7_SA_NS_4lessIS7_EELb1EEENS5_ISA_EEE10__end_nodeEv
FN:832,_ZNKSt3__16__treeINS_12basic_stringIcNS_11char_traitsIcEENS_9allocatorIcEEEENS_4lessIS6_EENS4_IS6_EEE10__end_nodeEv
FN:840,_ZNSt3__16__treeIN5Catch8TestCaseENS_4lessIS2_EENS_9allocatorIS2_EEE12__node_allocEv
FN:840,_ZNSt3__16__treeINS_12__value_typeINS_12basic_stringIcNS_11char_traitsIcEENS_9allocatorIcEEEEPN5Catch14IGeneratorInfoEEENS_19__map_value_compareIS7_SB_NS_4lessIS7_EELb1EEENS5_ISB_EEE12__node_allocEv
FN:840,_ZNSt3__16__treeINS_12__value_typeINS_12basic_stringIcNS_11char_traitsIcEENS_9allocatorIcEEEEPN5Catch18IGeneratorsForTestEEENS_19__map_value_compareIS7_SB_NS_4lessIS7_EELb1EEENS5_ISB_EEE12__node_allocEv
FN:840,_ZNSt3__16__treeINS_12__value_typeINS_12basic_stringIcNS_11char_traitsIcEENS_9allocatorIcEEEEN5Catch8TagAliasEEENS_19__map_value_compareIS7_SA_NS_4lessIS7_EELb1EEENS5_ISA_EEE12__node_allocEv
FN:840,_ZNSt3__16__treeINS_12__value_typeINS_12basic_stringIcNS_11char_traitsIcEENS_9allocatorIcEEEEN5Catch7TagInfoEEENS_19__map_value_compareIS7_SA_NS_4lessIS7_EELb1EEENS5_ISA_EEE12__node_allocEv
FN:840,_ZNSt3__16__treeINS_12__value_typeINS_12basic_stringIcNS_11char_traitsIcEENS_9allocatorIcEEEEN5Catch3PtrINS8_16IReporterFactoryEEEEENS_19__map_value_compareIS7_SC_NS_4lessIS7_EELb1EEENS5_ISC_EEE12__node_allocEv
FN:840,_ZNSt3__16__treeINS_12__value_typeIiN5Catch5Clara11CommandLineINS2_10ConfigDataEE3ArgEEENS_19__map_value_compareIiS8_NS_4lessIiEELb1EEENS_9allocatorIS8_EEE12__node_allocEv
FN:840,_ZNSt3__16__treeINS_12basic_stringIcNS_11char_traitsIcEENS_9allocatorIcEEEENS_4lessIS6_EENS4_IS6_EEE12__node_allocEv
FN:843,_ZNKSt3__16__treeINS_12basic_stringIcNS_11char_traitsIcEENS_9allocatorIcEEEENS_4lessIS6_EENS4_IS6_EEE12__node_allocEv
FN:846,_ZNSt3__16__treeINS_12__value_typeINS_12basic_stringIcNS_11char_traitsIcEENS_9allocatorIcEEEEPN5Catch18IGeneratorsForTestEEENS_19__map_value_compareIS7_SB_NS_4lessIS7_EELb1EEENS5_ISB_EEE12__begin_nodeEv
FN:846,_ZNSt3__16__treeINS_12__value_typeINS_12basic_stringIcNS_11char_traitsIcEENS_9allocatorIcEEEEN5Catch8TagAliasEEENS_19__map_value_compareIS7_SA_NS_4lessIS7_EELb1EEENS5_ISA_EEE12__begin_nodeEv
FN:846,_ZNSt3__16__treeINS_12__value_typeINS_12basic_stringIcNS_11char_traitsIcEENS_9allocatorIcEEEEN5Catch7TagInfoEEENS_19__map_value_compareIS7_SA_NS_4lessIS7_EELb1EEENS5_ISA_EEE12__begin_nodeEv
FN:846,_ZNSt3__16__treeINS_12basic_stringIcNS_11char_traitsIcEENS_9allocatorIcEEEENS_4lessIS6_EENS4_IS6_EEE12__begin_nodeEv
FN:846,_ZNSt3__16__treeINS_12__value_typeIiN5Catch5Clara11CommandLineINS2_10ConfigDataEE3ArgEEENS_19__map_value_compareIiS8_NS_4lessIiEELb1EEENS_9allocatorIS8_EEE12__begin_nodeEv
FN:846,_ZNSt3__16__treeIN5Catch8TestCaseENS_4lessIS2_EENS_9allocatorIS2_EEE12__begin_nodeEv
FN:846,_ZNSt3__16__treeINS_12__value_typeINS_12basic_stringIcNS_11char_traitsIcEENS_9allocatorIcEEEEPN5Catch14IGeneratorInfoEEENS_19__map_value_compareIS7_SB_NS_4lessIS7_EELb1EEENS5_ISB_EEE12__begin_nodeEv
FN:846,_ZNSt3__16__treeINS_12__value_typeINS_12basic_stringIcNS_11char_traitsIcEENS_9allocatorIcEEEEN5Catch3PtrINS8_16IReporterFactoryEEEEENS_19__map_value_compareIS7_SC_NS_4lessIS7_EELb1EEENS5_ISC_EEE12__begin_nodeEv
FN:848,_ZNKSt3__16__treeINS_12basic_stringIcNS_11char_traitsIcEENS_9allocatorIcEEEENS_4lessIS6_EENS4_IS6_EEE12__begin_nodeEv
FN:848,_ZNKSt3__16__treeINS_12__value_typeINS_12basic_stringIcNS_11char_traitsIcEENS_9allocatorIcEEEEN5Catch8TagAliasEEENS_19__map_value_compareIS7_SA_NS_4lessIS7_EELb1EEENS5_ISA_EEE12__begin_nodeEv
FN:848,_ZNKSt3__16__treeINS_12__value_typeINS_12basic_stringIcNS_11char_traitsIcEENS_9allocatorIcEEEEN5Catch3PtrINS8_16IReporterFactoryEEEEENS_19__map_value_compareIS7_SC_NS_4lessIS7_EELb1EEENS5_ISC_EEE12__begin_nodeEv
FN:855,_ZNSt3__16__treeINS_12__value_typeINS_12basic_stringIcNS_11char_traitsIcEENS_9allocatorIcEEEEPN5Catch14IGeneratorInfoEEENS_19__map_value_compareIS7_SB_NS_4lessIS7_EELb1EEENS5_ISB_EEE4sizeEv
FN:855,_ZNSt3__16__treeIN5Catch8TestCaseENS_4lessIS2_EENS_9allocatorIS2_EEE4sizeEv
FN:855,_ZNSt3__16__treeINS_12__value_typeINS_12basic_stringIcNS_11char_traitsIcEENS_9allocatorIcEEEEPN5Catch18IGeneratorsForTestEEENS_19__map_value_compareIS7_SB_NS_4lessIS7_EELb1EEENS5_ISB_EEE4sizeEv
FN:855,_ZNSt3__16__treeINS_12__value_typeINS_12basic_stringIcNS_11char_traitsIcEENS_9allocatorIcEEEEN5Catch8TagAliasEEENS_19__map_value_compareIS7_SA_NS_4lessIS7_EELb1EEENS5_ISA_EEE4sizeEv
FN:855,_ZNSt3__16__treeINS_12__value_typeINS_12basic_stringIcNS_11char_traitsIcEENS_9allocatorIcEEEEN5Catch3PtrINS8_16IReporterFactoryEEEEENS_19__map_value_compareIS7_SC_NS_4lessIS7_EELb1EEENS5_ISC_EEE4sizeEv
FN:855,_ZNSt3__16__treeINS_12basic_stringIcNS_11char_traitsIcEENS_9allocatorIcEEEENS_4lessIS6_EENS4_IS6_EEE4sizeEv
FN:855,_ZNSt3__16__treeINS_12__value_typeINS_12basic_stringIcNS_11char_traitsIcEENS_9allocatorIcEEEEN5Catch7TagInfoEEENS_19__map_value_compareIS7_SA_NS_4lessIS7_EELb1EEENS5_ISA_EEE4sizeEv
FN:858,_ZNKSt3__16__treeINS_12basic_stringIcNS_11char_traitsIcEENS_9allocatorIcEEEENS_4lessIS6_EENS4_IS6_EEE4sizeEv
FN:858,_ZNKSt3__16__treeINS_12__value_typeIiN5Catch5Clara11CommandLineINS2_10ConfigDataEE3ArgEEENS_19__map_value_compareIiS8_NS_4lessIiEELb1EEENS_9allocatorIS8_EEE4sizeEv
FN:858,_ZNKSt3__16__treeINS_12__value_typeINS_12basic_stringIcNS_11char_traitsIcEENS_9allocatorIcEEEEN5Catch7TagInfoEEENS_19__map_value_compareIS7_SA_NS_4lessIS7_EELb1EEENS5_ISA_EEE4sizeEv
FN:858,_ZNKSt3__16__treeINS_12__value_typeINS_12basic_stringIcNS_11char_traitsIcEENS_9allocatorIcEEEEN5Catch3PtrINS8_16IReporterFactoryEEEEENS_19__map_value_compareIS7_SC_NS_4lessIS7_EELb1EEENS5_ISC_EEE4sizeEv
FN:860,_ZNSt3__16__treeINS_12__value_typeINS_12basic_stringIcNS_11char_traitsIcEENS_9allocatorIcEEEEPN5Catch18IGeneratorsForTestEEENS_19__map_value_compareIS7_SB_NS_4lessIS7_EELb1EEENS5_ISB_EEE10value_compEv
FN:860,_ZNSt3__16__treeINS_12__value_typeINS_12basic_stringIcNS_11char_traitsIcEENS_9allocatorIcEEEEPN5Catch14IGeneratorInfoEEENS_19__map_value_compareIS7_SB_NS_4lessIS7_EELb1EEENS5_ISB_EEE10value_compEv
FN:860,_ZNSt3__16__treeINS_12__value_typeINS_12basic_stringIcNS_11char_traitsIcEENS_9allocatorIcEEEEN5Catch7TagInfoEEENS_19__map_value_compareIS7_SA_NS_4lessIS7_EELb1EEENS5_ISA_EEE10value_compEv
FN:860,_ZNSt3__16__treeINS_12__value_typeINS_12basic_stringIcNS_11char_traitsIcEENS_9allocatorIcEEEEN5Catch3PtrINS8_16IReporterFactoryEEEEENS_19__map_value_compareIS7_SC_NS_4lessIS7_EELb1EEENS5_ISC_EEE10value_compEv
FN:860,_ZNSt3__16__treeIN5Catch8TestCaseENS_4lessIS2_EENS_9allocatorIS2_EEE10value_compEv
FN:860,_ZNSt3__16__treeINS_12basic_stringIcNS_11char_traitsIcEENS_9allocatorIcEEEENS_4lessIS6_EENS4_IS6_EEE10value_compEv
FN:860,_ZNSt3__16__treeINS_12__value_typeINS_12basic_stringIcNS_11char_traitsIcEENS_9allocatorIcEEEEN5Catch8TagAliasEEENS_19__map_value_compareIS7_SA_NS_4lessIS7_EELb1EEENS5_ISA_EEE10value_compEv
FN:862,_ZNKSt3__16__treeINS_12__value_typeINS_12basic_stringIcNS_11char_traitsIcEENS_9allocatorIcEEEEN5Catch3PtrINS8_16IReporterFactoryEEEEENS_19__map_value_compareIS7_SC_NS_4lessIS7_EELb1EEENS5_ISC_EEE10value_compEv
FN:862,_ZNKSt3__16__treeINS_12__value_typeINS_12basic_stringIcNS_11char_traitsIcEENS_9allocatorIcEEEEN5Catch8TagAliasEEENS_19__map_value_compareIS7_SA_NS_4lessIS7_EELb1EEENS5_ISA_EEE10value_compEv
FN:862,_ZNKSt3__16__treeINS_12basic_stringIcNS_11char_traitsIcEENS_9allocatorIcEEEENS_4lessIS6_EENS4_IS6_EEE10value_compEv
FN:862,_ZNKSt3__16__treeINS_12__value_typeIiN5Catch5Clara11CommandLineINS2_10ConfigDataEE3ArgEEENS_19__map_value_compareIiS8_NS_4lessIiEELb1EEENS_9allocatorIS8_EEE10value_compEv
FN:866,_ZNSt3__16__treeINS_12__value_typeINS_12basic_stringIcNS_11char_traitsIcEENS_9allocatorIcEEEEN5Catch3PtrINS8_16IReporterFactoryEEEEENS_19__map_value_compareIS7_SC_NS_4lessIS7_EELb1EEENS5_ISC_EEE6__rootEv
FN:866,_ZNSt3__16__treeINS_12basic_stringIcNS_11char_traitsIcEENS_9allocatorIcEEEENS_4lessIS6_EENS4_IS6_EEE6__rootEv
FN:866,_ZNSt3__16__treeINS_12__value_typeINS_12basic_stringIcNS_11char_traitsIcEENS_9allocatorIcEEEEN5Catch7TagInfoEEENS_19__map_value_compareIS7_SA_NS_4lessIS7_EELb1EEENS5_ISA_EEE6__rootEv
FN:866,_ZNSt3__16__treeINS_12__value_typeINS_12basic_stringIcNS_11char_traitsIcEENS_9allocatorIcEEEEN5Catch8TagAliasEEENS_19__map_value_compareIS7_SA_NS_4lessIS7_EELb1EEENS5_ISA_EEE6__rootEv
FN:866,_ZNSt3__16__treeINS_12__value_typeINS_12basic_stringIcNS_11char_traitsIcEENS_9allocatorIcEEEEPN5Catch14IGeneratorInfoEEENS_19__map_value_compareIS7_SB_NS_4lessIS7_EELb1EEENS5_ISB_EEE6__rootEv
FN:866,_ZNSt3__16__treeIN5Catch8TestCaseENS_4lessIS2_EENS_9allocatorIS2_EEE6__rootEv
FN:866,_ZNSt3__16__treeINS_12__value_typeINS_12basic_stringIcNS_11char_traitsIcEENS_9allocatorIcEEEEPN5Catch18IGeneratorsForTestEEENS_19__map_value_compareIS7_SB_NS_4lessIS7_EELb1EEENS5_ISB_EEE6__rootEv
FN:866,_ZNSt3__16__treeINS_12__value_typeIiN5Catch5Clara11CommandLineINS2_10ConfigDataEE3ArgEEENS_19__map_value_compareIiS8_NS_4lessIiEELb1EEENS_9allocatorIS8_EEE6__rootEv
FN:869,_ZNKSt3__16__treeINS_12__value_typeIiN5Catch5Clara11CommandLineINS2_10ConfigDataEE3ArgEEENS_19__map_value_compareIiS8_NS_4lessIiEELb1EEENS_9allocatorIS8_EEE6__rootEv
FN:869,_ZNKSt3__16__treeINS_12basic_stringIcNS_11char_traitsIcEENS_9allocatorIcEEEENS_4lessIS6_EENS4_IS6_EEE6__rootEv
FN:869,_ZNKSt3__16__treeINS_12__value_typeINS_12basic_stringIcNS_11char_traitsIcEENS_9allocatorIcEEEEN5Catch8TagAliasEEENS_19__map_value_compareIS7_SA_NS_4lessIS7_EELb1EEENS5_ISA_EEE6__rootEv
FN:869,_ZNKSt3__16__treeINS_12__value_typeINS_12basic_stringIcNS_11char_traitsIcEENS_9allocatorIcEEEEN5Catch3PtrINS8_16IReporterFactoryEEEEENS_19__map_value_compareIS7_SC_NS_4lessIS7_EELb1EEENS5_ISC_EEE6__rootEv
FN:903,_ZNSt3__16__treeINS_12__value_typeINS_12basic_stringIcNS_11char_traitsIcEENS_9allocatorIcEEEEN5Catch7TagInfoEEENS_19__map_value_compareIS7_SA_NS_4lessIS7_EELb1EEENS5_ISA_EEE5beginEv
FN:903,_ZNSt3__16__treeINS_12basic_stringIcNS_11char_traitsIcEENS_9allocatorIcEEEENS_4lessIS6_EENS4_IS6_EEE5beginEv
FN:905,_ZNKSt3__16__treeINS_12__value_typeINS_12basic_stringIcNS_11char_traitsIcEENS_9allocatorIcEEEEN5Catch8TagAliasEEENS_19__map_value_compareIS7_SA_NS_4lessIS7_EELb1EEENS5_ISA_EEE5beginEv
FN:905,_ZNKSt3__16__treeINS_12basic_stringIcNS_11char_traitsIcEENS_9allocatorIcEEEENS_4lessIS6_EENS4_IS6_EEE5beginEv
FN:905,_ZNKSt3__16__treeINS_12__value_typeINS_12basic_stringIcNS_11char_traitsIcEENS_9allocatorIcEEEEN5Catch3PtrINS8_16IReporterFactoryEEEEENS_19__map_value_compareIS7_SC_NS_4lessIS7_EELb1EEENS5_ISC_EEE5beginEv
FN:907,_ZNSt3__16__treeINS_12basic_stringIcNS_11char_traitsIcEENS_9allocatorIcEEEENS_4lessIS6_EENS4_IS6_EEE3endEv
FN:907,_ZNSt3__16__treeINS_12__value_typeINS_12basic_stringIcNS_11char_traitsIcEENS_9allocatorIcEEEEPN5Catch18IGeneratorsForTestEEENS_19__map_value_compareIS7_SB_NS_4lessIS7_EELb1EEENS5_ISB_EEE3endEv
FN:907,_ZNSt3__16__treeINS_12__value_typeINS_12basic_stringIcNS_11char_traitsIcEENS_9allocatorIcEEEEN5Catch7TagInfoEEENS_19__map_value_compareIS7_SA_NS_4lessIS7_EELb1EEENS5_ISA_EEE3endEv
FN:907,_ZNSt3__16__treeINS_12__value_typeINS_12basic_stringIcNS_11char_traitsIcEENS_9allocatorIcEEEEPN5Catch14IGeneratorInfoEEENS_19__map_value_compareIS7_SB_NS_4lessIS7_EELb1EEENS5_ISB_EEE3endEv
FN:909,_ZNKSt3__16__treeINS_12__value_typeIiN5Catch5Clara11CommandLineINS2_10ConfigDataEE3ArgEEENS_19__map_value_compareIiS8_NS_4lessIiEELb1EEENS_9allocatorIS8_EEE3endEv
FN:909,_ZNKSt3__16__treeINS_12__value_typeINS_12basic_stringIcNS_11char_traitsIcEENS_9allocatorIcEEEEN5Catch8TagAliasEEENS_19__map_value_compareIS7_SA_NS_4lessIS7_EELb1EEENS5_ISA_EEE3endEv
FN:909,_ZNKSt3__16__treeINS_12__value_typeINS_12basic_stringIcNS_11char_traitsIcEENS_9allocatorIcEEEEN5Catch3PtrINS8_16IReporterFactoryEEEEENS_19__map_value_compareIS7_SC_NS_4lessIS7_EELb1EEENS5_ISC_EEE3endEv
FN:909,_ZNKSt3__16__treeINS_12basic_stringIcNS_11char_traitsIcEENS_9allocatorIcEEEENS_4lessIS6_EENS4_IS6_EEE3endEv
FN:1059,_ZNSt3__16__treeINS_12basic_stringIcNS_11char_traitsIcEENS_9allocatorIcEEEENS_4lessIS6_EENS4_IS6_EEE19__copy_assign_allocERKSA_
FN:1067,_ZNSt3__16__treeINS_12basic_stringIcNS_11char_traitsIcEENS_9allocatorIcEEEENS_4lessIS6_EENS4_IS6_EEE19__copy_assign_allocERKSA_NS_17integral_constantIbLb0EEE
FN:1090,_ZNSt3__16__treeINS_12basic_stringIcNS_11char_traitsIcEENS_9allocatorIcEEEENS_4lessIS6_EENS4_IS6_EEE12__swap_allocERNS4_INS_11__tree_nodeIS6_PvEEEESF_
FN:1104,_ZNSt3__16__treeINS_12basic_stringIcNS_11char_traitsIcEENS_9allocatorIcEEEENS_4lessIS6_EENS4_IS6_EEE12__swap_allocERNS4_INS_11__tree_nodeIS6_PvEEEESF_NS_17integral_constantIbLb0EEE
FN:1111,_ZNSt3__13mapINS_12basic_stringIcNS_11char_traitsIcEENS_9allocatorIcEEEEN5Catch3PtrINS7_16IReporterFactoryEEENS_4lessIS6_EENS4_INS_4pairIKS6_SA_EEEEED1Ev
FN:1111,_ZNSt3__13mapINS_12basic_stringIcNS_11char_traitsIcEENS_9allocatorIcEEEEN5Catch3PtrINS7_16IReporterFactoryEEENS_4lessIS6_EENS4_INS_4pairIKS6_SA_EEEEED2Ev
FN:1116,_ZNSt3__16__treeINS_12__value_typeINS_12basic_stringIcNS_11char_traitsIcEENS_9allocatorIcEEEEPN5Catch18IGeneratorsForTestEEENS_19__map_value_compareIS7_SB_NS_4lessIS7_EELb1EEENS5_ISB_EEEC1ERKSF_
FN:1116,_ZNSt3__16__treeINS_12basic_stringIcNS_11char_traitsIcEENS_9allocatorIcEEEENS_4lessIS6_EENS4_IS6_EEEC2ERKS8_
FN:1116,_ZNSt3__16__treeINS_12__value_typeINS_12basic_stringIcNS_11char_traitsIcEENS_9allocatorIcEEEEPN5Catch14IGeneratorInfoEEENS_19__map_value_compareIS7_SB_NS_4lessIS7_EELb1EEENS5_ISB_EEEC2ERKSF_
FN:1116,_ZNSt3__16__treeINS_12__value_typeIiN5Catch5Clara11CommandLineINS2_10ConfigDataEE3ArgEEENS_19__map_value_compareIiS8_NS_4lessIiEELb1EEENS_9allocatorIS8_EEEC2ERKSC_
FN:1116,_ZNSt3__16__treeINS_12__value_typeINS_12basic_stringIcNS_11char_traitsIcEENS_9allocatorIcEEEEN5Catch3PtrINS8_16IReporterFactoryEEEEENS_19__map_value_compareIS7_SC_NS_4lessIS7_EELb1EEENS5_ISC_EEEC1ERKSG_
FN:1116,_ZNSt3__16__treeINS_12basic_stringIcNS_11char_traitsIcEENS_9allocatorIcEEEENS_4lessIS6_EENS4_IS6_EEEC1ERKS8_
FN:1116,_ZNSt3__16__treeIN5Catch8TestCaseENS_4lessIS2_EENS_9allocatorIS2_EEEC2ERKS4_
FN:1116,_ZNSt3__16__treeINS_12__value_typeIiN5Catch5Clara11CommandLineINS2_10ConfigDataEE3ArgEEENS_19__map_value_compareIiS8_NS_4lessIiEELb1EEENS_9allocatorIS8_EEEC1ERKSC_
FN:1116,_ZNSt3__16__treeINS_12__value_typeINS_12basic_stringIcNS_11char_traitsIcEENS_9allocatorIcEEEEPN5Catch14IGeneratorInfoEEENS_19__map_value_compareIS7_SB_NS_4lessIS7_EELb1EEENS5_ISB_EEEC1ERKSF_
FN:1116,_ZNSt3__16__treeINS_12__value_typeINS_12basic_stringIcNS_11char_traitsIcEENS_9allocatorIcEEEEN5Catch8TagAliasEEENS_19__map_value_compareIS7_SA_NS_4lessIS7_EELb1EEENS5_ISA_EEEC1ERKSE_
FN:1116,_ZNSt3__16__treeINS_12__value_typeINS_12basic_stringIcNS_11char_traitsIcEENS_9allocatorIcEEEEPN5Catch18IGeneratorsForTestEEENS_19__map_value_compareIS7_SB_NS_4lessIS7_EELb1EEENS5_ISB_EEEC2ERKSF_
FN:1116,_ZNSt3__16__treeINS_12__value_typeINS_12basic_stringIcNS_11char_traitsIcEENS_9allocatorIcEEEEN5Catch8TagAliasEEENS_19__map_value_compareIS7_SA_NS_4lessIS7_EELb1EEENS5_ISA_EEEC2ERKSE_
FN:1116,_ZNSt3__16__treeINS_12__value_typeINS_12basic_stringIcNS_11char_traitsIcEENS_9allocatorIcEEEEN5Catch7TagInfoEEENS_19__map_value_compareIS7_SA_NS_4lessIS7_EELb1EEENS5_ISA_EEEC2ERKSE_
FN:1116,_ZNSt3__16__treeINS_12__value_typeINS_12basic_stringIcNS_11char_traitsIcEENS_9allocatorIcEEEEN5Catch3PtrINS8_16IReporterFactoryEEEEENS_19__map_value_compareIS7_SC_NS_4lessIS7_EELb1EEENS5_ISC_EEEC2ERKSG_
FN:1116,_ZNSt3__16__treeINS_12__value_typeINS_12basic_stringIcNS_11char_traitsIcEENS_9allocatorIcEEEEN5Catch7TagInfoEEENS_19__map_value_compareIS7_SA_NS_4lessIS7_EELb1EEENS5_ISA_EEEC1ERKSE_
FN:1116,_ZNSt3__16__treeIN5Catch8TestCaseENS_4lessIS2_EENS_9allocatorIS2_EEEC1ERKS4_
FN:1147,_ZNSt3__16__treeINS_12basic_stringIcNS_11char_traitsIcEENS_9allocatorIcEEEENS_4lessIS6_EENS4_IS6_EEE8__detachEv
FN:1168,_ZNSt3__16__treeINS_12basic_stringIcNS_11char_traitsIcEENS_9allocatorIcEEEENS_4lessIS6_EENS4_IS6_EEE8__detachEPNS_11__tree_nodeIS6_PvEE
FN:1190,_ZNSt3__16__treeINS_12basic_stringIcNS_11char_traitsIcEENS_9allocatorIcEEEENS_4lessIS6_EENS4_IS6_EEEaSERKSA_
FN:1244,_ZNSt3__16__treeINS_12basic_stringIcNS_11char_traitsIcEENS_9allocatorIcEEEENS_4lessIS6_EENS4_IS6_EEE14__assign_multiINS_21__tree_const_iteratorIS6_PNS_11__tree_nodeIS6_PvEElEEEEvT_SI_
FN:1282,_ZNSt3__16__treeINS_12basic_stringIcNS_11char_traitsIcEENS_9allocatorIcEEEENS_4lessIS6_EENS4_IS6_EEEC2ERKSA_
FN:1282,_ZNSt3__16__treeINS_12basic_stringIcNS_11char_traitsIcEENS_9allocatorIcEEEENS_4lessIS6_EENS4_IS6_EEEC1ERKSA_
FN:1293,_ZNSt3__16__treeINS_12basic_stringIcNS_11char_traitsIcEENS_9allocatorIcEEEENS_4lessIS6_EENS4_IS6_EEEC1EOSA_
FN:1293,_ZNSt3__16__treeINS_12basic_stringIcNS_11char_traitsIcEENS_9allocatorIcEEEENS_4lessIS6_EENS4_IS6_EEEC2EOSA_
FN:1423,_ZNSt3__16__treeINS_12__value_typeINS_12basic_stringIcNS_11char_traitsIcEENS_9allocatorIcEEEEN5Catch8TagAliasEEENS_19__map_value_compareIS7_SA_NS_4lessIS7_EELb1EEENS5_ISA_EEED2Ev
FN:1423,_ZNSt3__16__treeINS_12__value_typeINS_12basic_stringIcNS_11char_traitsIcEENS_9allocatorIcEEEEN5Catch3PtrINS8_16IReporterFactoryEEEEENS_19__map_value_compareIS7_SC_NS_4lessIS7_EELb1EEENS5_ISC_EEED1Ev
FN:1423,_ZNSt3__16__treeINS_12__value_typeINS_12basic_stringIcNS_11char_traitsIcEENS_9allocatorIcEEEEPN5Catch18IGeneratorsForTestEEENS_19__map_value_compareIS7_SB_NS_4lessIS7_EELb1EEENS5_ISB_EEED1Ev
FN:1423,_ZNSt3__16__treeIN5Catch8TestCaseENS_4lessIS2_EENS_9allocatorIS2_EEED2Ev
FN:1423,_ZNSt3__16__treeINS_12basic_stringIcNS_11char_traitsIcEENS_9allocatorIcEEEENS_4lessIS6_EENS4_IS6_EEED2Ev
FN:1423,_ZNSt3__16__treeINS_12__value_typeINS_12basic_stringIcNS_11char_traitsIcEENS_9allocatorIcEEEEPN5Catch14IGeneratorInfoEEENS_19__map_value_compareIS7_SB_NS_4lessIS7_EELb1EEENS5_ISB_EEED2Ev
FN:1423,_ZNSt3__16__treeINS_12__value_typeINS_12basic_stringIcNS_11char_traitsIcEENS_9allocatorIcEEEEN5Catch3PtrINS8_16IReporterFactoryEEEEENS_19__map_value_compareIS7_SC_NS_4lessIS7_EELb1EEENS5_ISC_EEED2Ev
FN:1423,_ZNSt3__16__treeINS_12__value_typeINS_12basic_stringIcNS_11char_traitsIcEENS_9allocatorIcEEEEPN5Catch18IGeneratorsForTestEEENS_19__map_value_compareIS7_SB_NS_4lessIS7_EELb1EEENS5_ISB_EEED2Ev
FN:1423,_ZNSt3__16__treeINS_12__value_typeIiN5Catch5Clara11CommandLineINS2_10ConfigDataEE3ArgEEENS_19__map_value_compareIiS8_NS_4lessIiEELb1EEENS_9allocatorIS8_EEED1Ev
FN:1423,_ZNSt3__16__treeINS_12__value_typeINS_12basic_stringIcNS_11char_traitsIcEENS_9allocatorIcEEEEPN5Catch14IGeneratorInfoEEENS_19__map_value_compareIS7_SB_NS_4lessIS7_EELb1EEENS5_ISB_EEED1Ev
FN:1423,_ZNSt3__16__treeINS_12__value_typeINS_12basic_stringIcNS_11char_traitsIcEENS_9allocatorIcEEEEN5Catch8TagAliasEEENS_19__map_value_compareIS7_SA_NS_4lessIS7_EELb1EEENS5_ISA_EEED1Ev
FN:1423,_ZNSt3__16__treeINS_12__value_typeINS_12basic_stringIcNS_11char_traitsIcEENS_9allocatorIcEEEEN5Catch7TagInfoEEENS_19__map_value_compareIS7_SA_NS_4lessIS7_EELb1EEENS5_ISA_EEED2Ev
FN:1423,_ZNSt3__16__treeINS_12basic_stringIcNS_11char_traitsIcEENS_9allocatorIcEEEENS_4lessIS6_EENS4_IS6_EEED1Ev
FN:1423,_ZNSt3__16__treeINS_12__value_typeIiN5Catch5Clara11CommandLineINS2_10ConfigDataEE3ArgEEENS_19__map_value_compareIiS8_NS_4lessIiEELb1EEENS_9allocatorIS8_EEED2Ev
FN:1423,_ZNSt3__16__treeINS_12__value_typeINS_12basic_stringIcNS_11char_traitsIcEENS_9allocatorIcEEEEN5Catch7TagInfoEEENS_19__map_value_compareIS7_SA_NS_4lessIS7_EELb1EEENS5_ISA_EEED1Ev
FN:1423,_ZNSt3__16__treeIN5Catch8TestCaseENS_4lessIS2_EENS_9allocatorIS2_EEED1Ev
FN:1430,_ZNSt3__16__treeINS_12__value_typeIiN5Catch5Clara11CommandLineINS2_10ConfigDataEE3ArgEEENS_19__map_value_compareIiS8_NS_4lessIiEELb1EEENS_9allocatorIS8_EEE7destroyEPNS_11__tree_nodeIS8_PvEE
FN:1430,_ZNSt3__16__treeINS_12__value_typeINS_12basic_stringIcNS_11char_traitsIcEENS_9allocatorIcEEEEPN5Catch18IGeneratorsForTestEEENS_19__map_value_compareIS7_SB_NS_4lessIS7_EELb1EEENS5_ISB_EEE7destroyEPNS_11__tree_nodeISB_PvEE
FN:1430,_ZNSt3__16__treeIN5Catch8TestCaseENS_4lessIS2_EENS_9allocatorIS2_EEE7destroyEPNS_11__tree_nodeIS2_PvEE
FN:1430,_ZNSt3__16__treeINS_12__value_typeINS_12basic_stringIcNS_11char_traitsIcEENS_9allocatorIcEEEEPN5Catch14IGeneratorInfoEEENS_19__map_value_compareIS7_SB_NS_4lessIS7_EELb1EEENS5_ISB_EEE7destroyEPNS_11__tree_nodeISB_PvEE
FN:1430,_ZNSt3__16__treeINS_12__value_typeINS_12basic_stringIcNS_11char_traitsIcEENS_9allocatorIcEEEEN5Catch8TagAliasEEENS_19__map_value_compareIS7_SA_NS_4lessIS7_EELb1EEENS5_ISA_EEE7destroyEPNS_11__tree_nodeISA_PvEE
FN:1430,_ZNSt3__16__treeINS_12__value_typeINS_12basic_stringIcNS_11char_traitsIcEENS_9allocatorIcEEEEN5Catch7TagInfoEEENS_19__map_value_compareIS7_SA_NS_4lessIS7_EELb1EEENS5_ISA_EEE7destroyEPNS_11__tree_nodeISA_PvEE
FN:1430,_ZNSt3__16__treeINS_12__value_typeINS_12basic_stringIcNS_11char_traitsIcEENS_9allocatorIcEEEEN5Catch3PtrINS8_16IReporterFactoryEEEEENS_19__map_value_compareIS7_SC_NS_4lessIS7_EELb1EEENS5_ISC_EEE7destroyEPNS_11__tree_nodeISC_PvEE
FN:1430,_ZNSt3__16__treeINS_12basic_stringIcNS_11char_traitsIcEENS_9allocatorIcEEEENS_4lessIS6_EENS4_IS6_EEE7destroyEPNS_11__tree_nodeIS6_PvEE
FN:1444,_ZNSt3__16__treeINS_12basic_stringIcNS_11char_traitsIcEENS_9allocatorIcEEEENS_4lessIS6_EENS4_IS6_EEE4swapERSA_
FN:1467,_ZNSt3__16__treeINS_12basic_stringIcNS_11char_traitsIcEENS_9allocatorIcEEEENS_4lessIS6_EENS4_IS6_EEE5clearEv
FN:1519,_ZNSt3__16__treeINS_12basic_stringIcNS_11char_traitsIcEENS_9allocatorIcEEEENS_4lessIS6_EENS4_IS6_EEE16__find_leaf_highERPNS_16__tree_node_baseIPvEERKS6_
FN:1597,_ZNSt3__16__treeINS_12basic_stringIcNS_11char_traitsIcEENS_9allocatorIcEEEENS_4lessIS6_EENS4_IS6_EEE12__find_equalIS6_EERPNS_16__tree_node_baseIPvEESG_RKT_
FN:1597,_ZNSt3__16__treeINS_12__value_typeINS_12basic_stringIcNS_11char_traitsIcEENS_9allocatorIcEEEEN5Catch8TagAliasEEENS_19__map_value_compareIS7_SA_NS_4lessIS7_EELb1EEENS5_ISA_EEE12__find_equalISA_EERPNS_16__tree_node_baseIPvEESM_RKT_
FN:1597,_ZNSt3__16__treeINS_12__value_typeINS_12basic_stringIcNS_11char_traitsIcEENS_9allocatorIcEEEEPN5Catch18IGeneratorsForTestEEENS_19__map_value_compareIS7_SB_NS_4lessIS7_EELb1EEENS5_ISB_EEE12__find_equalISB_EERPNS_16__tree_node_baseIPvEESN_RKT_
FN:1597,_ZNSt3__16__treeIN5Catch8TestCaseENS_4lessIS2_EENS_9allocatorIS2_EEE12__find_equalIS2_EERPNS_16__tree_node_baseIPvEESD_RKT_
FN:1597,_ZNSt3__16__treeINS_12__value_typeINS_12basic_stringIcNS_11char_traitsIcEENS_9allocatorIcEEEEPN5Catch14IGeneratorInfoEEENS_19__map_value_compareIS7_SB_NS_4lessIS7_EELb1EEENS5_ISB_EEE12__find_equalISB_EERPNS_16__tree_node_baseIPvEESN_RKT_
FN:1597,_ZNSt3__16__treeINS_12__value_typeINS_12basic_stringIcNS_11char_traitsIcEENS_9allocatorIcEEEEN5Catch7TagInfoEEENS_19__map_value_compareIS7_SA_NS_4lessIS7_EELb1EEENS5_ISA_EEE12__find_equalISA_EERPNS_16__tree_node_baseIPvEESM_RKT_
FN:1597,_ZNSt3__16__treeINS_12__value_typeINS_12basic_stringIcNS_11char_traitsIcEENS_9allocatorIcEEEEN5Catch3PtrINS8_16IReporterFactoryEEEEENS_19__map_value_compareIS7_SC_NS_4lessIS7_EELb1EEENS5_ISC_EEE12__find_equalISC_EERPNS_16__tree_node_baseIPvEESO_RKT_
FN:1646,_ZNSt3__16__treeINS_12basic_stringIcNS_11char_traitsIcEENS_9allocatorIcEEEENS_4lessIS6_EENS4_IS6_EEE12__find_equalIS6_EERPNS_16__tree_node_baseIPvEENS_21__tree_const_iteratorIS6_PNS_11__tree_nodeIS6_SD_EElEESG_RKT_
FN:1699,_ZNSt3__16__treeIN5Catch8TestCaseENS_4lessIS2_EENS_9allocatorIS2_EEE16__insert_node_atEPNS_16__tree_node_baseIPvEERSB_SB_
FN:1699,_ZNSt3__16__treeINS_12__value_typeINS_12basic_stringIcNS_11char_traitsIcEENS_9allocatorIcEEEEPN5Catch14IGeneratorInfoEEENS_19__map_value_compareIS7_SB_NS_4lessIS7_EELb1EEENS5_ISB_EEE16__insert_node_atEPNS_16__tree_node_baseIPvEERSL_SL_
FN:1699,_ZNSt3__16__treeINS_12__value_typeINS_12basic_stringIcNS_11char_traitsIcEENS_9allocatorIcEEEEPN5Catch18IGeneratorsForTestEEENS_19__map_value_compareIS7_SB_NS_4lessIS7_EELb1EEENS5_ISB_EEE16__insert_node_atEPNS_16__tree_node_baseIPvEERSL_SL_
FN:1699,_ZNSt3__16__treeINS_12__value_typeINS_12basic_stringIcNS_11char_traitsIcEENS_9allocatorIcEEEEN5Catch8TagAliasEEENS_19__map_value_compareIS7_SA_NS_4lessIS7_EELb1EEENS5_ISA_EEE16__insert_node_atEPNS_16__tree_node_baseIPvEERSK_SK_
FN:1699,_ZNSt3__16__treeINS_12basic_stringIcNS_11char_traitsIcEENS_9allocatorIcEEEENS_4lessIS6_EENS4_IS6_EEE16__insert_node_atEPNS_16__tree_node_baseIPvEERSE_SE_
FN:1699,_ZNSt3__16__treeINS_12__value_typeINS_12basic_stringIcNS_11char_traitsIcEENS_9allocatorIcEEEEN5Catch7TagInfoEEENS_19__map_value_compareIS7_SA_NS_4lessIS7_EELb1EEENS5_ISA_EEE16__insert_node_atEPNS_16__tree_node_baseIPvEERSK_SK_
FN:1699,_ZNSt3__16__treeINS_12__value_typeINS_12basic_stringIcNS_11char_traitsIcEENS_9allocatorIcEEEEN5Catch3PtrINS8_16IReporterFactoryEEEEENS_19__map_value_compareIS7_SC_NS_4lessIS7_EELb1EEENS5_ISC_EEE16__insert_node_atEPNS_16__tree_node_baseIPvEERSM_SM_
FN:1719,_ZNSt3__16__treeINS_12__value_typeINS_12basic_stringIcNS_11char_traitsIcEENS_9allocatorIcEEEEN5Catch8TagAliasEEENS_19__map_value_compareIS7_SA_NS_4lessIS7_EELb1EEENS5_ISA_EEE16__construct_nodeIJNS_4pairIPKcS9_EEEEENS_10unique_ptrINS_11__tree_nodeISA_PvEENS_22__tree_node_destructorINS5_ISP_EEEEEEDpOT_
FN:1719,_ZNSt3__16__treeINS_12__value_typeINS_12basic_stringIcNS_11char_traitsIcEENS_9allocatorIcEEEEPN5Catch14IGeneratorInfoEEENS_19__map_value_compareIS7_SB_NS_4lessIS7_EELb1EEENS5_ISB_EEE16__construct_nodeIJNS_4pairIS7_SA_EEEEENS_10unique_ptrINS_11__tree_nodeISB_PvEENS_22__tree_node_destructorINS5_ISO_EEEEEEDpOT_
FN:1719,_ZNSt3__16__treeINS_12basic_stringIcNS_11char_traitsIcEENS_9allocatorIcEEEENS_4lessIS6_EENS4_IS6_EEE16__construct_nodeIJS6_EEENS_10unique_ptrINS_11__tree_nodeIS6_PvEENS_22__tree_node_destructorINS4_ISF_EEEEEEDpOT_
FN:1719,_ZNSt3__16__treeIN5Catch8TestCaseENS_4lessIS2_EENS_9allocatorIS2_EEE16__construct_nodeIJRKS2_EEENS_10unique_ptrINS_11__tree_nodeIS2_PvEENS_22__tree_node_destructorINS5_ISE_EEEEEEDpOT_
FN:1719,_ZNSt3__16__treeINS_12basic_stringIcNS_11char_traitsIcEENS_9allocatorIcEEEENS_4lessIS6_EENS4_IS6_EEE16__construct_nodeIJRKS6_EEENS_10unique_ptrINS_11__tree_nodeIS6_PvEENS_22__tree_node_destructorINS4_ISH_EEEEEEDpOT_
FN:1719,_ZNSt3__16__treeINS_12__value_typeINS_12basic_stringIcNS_11char_traitsIcEENS_9allocatorIcEEEEPN5Catch18IGeneratorsForTestEEENS_19__map_value_compareIS7_SB_NS_4lessIS7_EELb1EEENS5_ISB_EEE16__construct_nodeIJNS_4pairIS7_SA_EEEEENS_10unique_ptrINS_11__tree_nodeISB_PvEENS_22__tree_node_destructorINS5_ISO_EEEEEEDpOT_
FN:1719,_ZNSt3__16__treeINS_12__value_typeINS_12basic_stringIcNS_11char_traitsIcEENS_9allocatorIcEEEEN5Catch3PtrINS8_16IReporterFactoryEEEEENS_19__map_value_compareIS7_SC_NS_4lessIS7_EELb1EEENS5_ISC_EEE16__construct_nodeIJNS_4pairIS7_SB_EEEEENS_10unique_ptrINS_11__tree_nodeISC_PvEENS_22__tree_node_destructorINS5_ISP_EEEEEEDpOT_
FN:1719,_ZNSt3__16__treeINS_12__value_typeINS_12basic_stringIcNS_11char_traitsIcEENS_9allocatorIcEEEEN5Catch7TagInfoEEENS_19__map_value_compareIS7_SA_NS_4lessIS7_EELb1EEENS5_ISA_EEE16__construct_nodeIJNS_4pairIS7_S9_EEEEENS_10unique_ptrINS_11__tree_nodeISA_PvEENS_22__tree_node_destructorINS5_ISN_EEEEEEDpOT_
FN:1794,_ZNSt3__16__treeINS_12__value_typeINS_12basic_stringIcNS_11char_traitsIcEENS_9allocatorIcEEEEN5Catch7TagInfoEEENS_19__map_value_compareIS7_SA_NS_4lessIS7_EELb1EEENS5_ISA_EEE15__insert_uniqueINS_4pairIS7_S9_EEEENSI_INS_15__tree_iteratorISA_PNS_11__tree_nodeISA_PvEElEEbEEOT_
FN:1794,_ZNSt3__16__treeINS_12__value_typeINS_12basic_stringIcNS_11char_traitsIcEENS_9allocatorIcEEEEN5Catch3PtrINS8_16IReporterFactoryEEEEENS_19__map_value_compareIS7_SC_NS_4lessIS7_EELb1EEENS5_ISC_EEE15__insert_uniqueINS_4pairIS7_SB_EEEENSK_INS_15__tree_iteratorISC_PNS_11__tree_nodeISC_PvEElEEbEEOT_
FN:1794,_ZNSt3__16__treeINS_12__value_typeINS_12basic_stringIcNS_11char_traitsIcEENS_9allocatorIcEEEEN5Catch8TagAliasEEENS_19__map_value_compareIS7_SA_NS_4lessIS7_EELb1EEENS5_ISA_EEE15__insert_uniqueINS_4pairIPKcS9_EEEENSI_INS_15__tree_iteratorISA_PNS_11__tree_nodeISA_PvEElEEbEEOT_
FN:1794,_ZNSt3__16__treeINS_12__value_typeINS_12basic_stringIcNS_11char_traitsIcEENS_9allocatorIcEEEEPN5Catch18IGeneratorsForTestEEENS_19__map_value_compareIS7_SB_NS_4lessIS7_EELb1EEENS5_ISB_EEE15__insert_uniqueINS_4pairIS7_SA_EEEENSJ_INS_15__tree_iteratorISB_PNS_11__tree_nodeISB_PvEElEEbEEOT_
FN:1794,_ZNSt3__16__treeINS_12basic_stringIcNS_11char_traitsIcEENS_9allocatorIcEEEENS_4lessIS6_EENS4_IS6_EEE15__insert_uniqueIS6_EENS_4pairINS_15__tree_iteratorIS6_PNS_11__tree_nodeIS6_PvEElEEbEEOT_
FN:1794,_ZNSt3__16__treeINS_12__value_typeINS_12basic_stringIcNS_11char_traitsIcEENS_9allocatorIcEEEEPN5Catch14IGeneratorInfoEEENS_19__map_value_compareIS7_SB_NS_4lessIS7_EELb1EEENS5_ISB_EEE15__insert_uniqueINS_4pairIS7_SA_EEEENSJ_INS_15__tree_iteratorISB_PNS_11__tree_nodeISB_PvEElEEbEEOT_
FN:1856,_ZNSt3__16__treeIN5Catch8TestCaseENS_4lessIS2_EENS_9allocatorIS2_EEE15__insert_uniqueERKS2_
FN:1856,_ZNSt3__16__treeINS_12basic_stringIcNS_11char_traitsIcEENS_9allocatorIcEEEENS_4lessIS6_EENS4_IS6_EEE15__insert_uniqueERKS6_
FN:1874,_ZNSt3__16__treeINS_12basic_stringIcNS_11char_traitsIcEENS_9allocatorIcEEEENS_4lessIS6_EENS4_IS6_EEE15__insert_uniqueENS_21__tree_const_iteratorIS6_PNS_11__tree_nodeIS6_PvEElEERKS6_
FN:1890,_ZNSt3__16__treeINS_12basic_stringIcNS_11char_traitsIcEENS_9allocatorIcEEEENS_4lessIS6_EENS4_IS6_EEE14__insert_multiERKS6_
FN:1912,_ZNSt3__16__treeINS_12basic_stringIcNS_11char_traitsIcEENS_9allocatorIcEEEENS_4lessIS6_EENS4_IS6_EEE20__node_insert_uniqueEPNS_11__tree_nodeIS6_PvEE
FN:1912,_ZNSt3__16__treeINS_12__value_typeINS_12basic_stringIcNS_11char_traitsIcEENS_9allocatorIcEEEEPN5Catch14IGeneratorInfoEEENS_19__map_value_compareIS7_SB_NS_4lessIS7_EELb1EEENS5_ISB_EEE20__node_insert_uniqueEPNS_11__tree_nodeISB_PvEE
FN:1912,_ZNSt3__16__treeINS_12__value_typeINS_12basic_stringIcNS_11char_traitsIcEENS_9allocatorIcEEEEN5Catch7TagInfoEEENS_19__map_value_compareIS7_SA_NS_4lessIS7_EELb1EEENS5_ISA_EEE20__node_insert_uniqueEPNS_11__tree_nodeISA_PvEE
FN:1912,_ZNSt3__16__treeINS_12__value_typeINS_12basic_stringIcNS_11char_traitsIcEENS_9allocatorIcEEEEN5Catch8TagAliasEEENS_19__map_value_compareIS7_SA_NS_4lessIS7_EELb1EEENS5_ISA_EEE20__node_insert_uniqueEPNS_11__tree_nodeISA_PvEE
FN:1912,_ZNSt3__16__treeINS_12__value_typeINS_12basic_stringIcNS_11char_traitsIcEENS_9allocatorIcEEEEN5Catch3PtrINS8_16IReporterFactoryEEEEENS_19__map_value_compareIS7_SC_NS_4lessIS7_EELb1EEENS5_ISC_EEE20__node_insert_uniqueEPNS_11__tree_nodeISC_PvEE
FN:1912,_ZNSt3__16__treeINS_12__value_typeINS_12basic_stringIcNS_11char_traitsIcEENS_9allocatorIcEEEEPN5Catch18IGeneratorsForTestEEENS_19__map_value_compareIS7_SB_NS_4lessIS7_EELb1EEENS5_ISB_EEE20__node_insert_uniqueEPNS_11__tree_nodeISB_PvEE
FN:1945,_ZNSt3__16__treeINS_12basic_stringIcNS_11char_traitsIcEENS_9allocatorIcEEEENS_4lessIS6_EENS4_IS6_EEE19__node_insert_multiEPNS_11__tree_nodeIS6_PvEE
FN:2018,_ZNSt3__16__treeINS_12__value_typeINS_12basic_stringIcNS_11char_traitsIcEENS_9allocatorIcEEEEPN5Catch14IGeneratorInfoEEENS_19__map_value_compareIS7_SB_NS_4lessIS7_EELb1EEENS5_ISB_EEE4findIS7_EENS_15__tree_iteratorISB_PNS_11__tree_nodeISB_PvEElEERKT_
FN:2018,_ZNSt3__16__treeINS_12__value_typeINS_12basic_stringIcNS_11char_traitsIcEENS_9allocatorIcEEEEN5Catch7TagInfoEEENS_19__map_value_compareIS7_SA_NS_4lessIS7_EELb1EEENS5_ISA_EEE4findIS7_EENS_15__tree_iteratorISA_PNS_11__tree_nodeISA_PvEElEERKT_
FN:2018,_ZNSt3__16__treeINS_12__value_typeINS_12basic_stringIcNS_11char_traitsIcEENS_9allocatorIcEEEEPN5Catch18IGeneratorsForTestEEENS_19__map_value_compareIS7_SB_NS_4lessIS7_EELb1EEENS5_ISB_EEE4findIS7_EENS_15__tree_iteratorISB_PNS_11__tree_nodeISB_PvEElEERKT_
FN:2029,_ZNKSt3__16__treeINS_12__value_typeINS_12basic_stringIcNS_11char_traitsIcEENS_9allocatorIcEEEEN5Catch8TagAliasEEENS_19__map_value_compareIS7_SA_NS_4lessIS7_EELb1EEENS5_ISA_EEE4findIS7_EENS_21__tree_const_iteratorISA_PNS_11__tree_nodeISA_PvEElEERKT_
FN:2029,_ZNKSt3__16__treeINS_12__value_typeIiN5Catch5Clara11CommandLineINS2_10ConfigDataEE3ArgEEENS_19__map_value_compareIiS8_NS_4lessIiEELb1EEENS_9allocatorIS8_EEE4findIiEENS_21__tree_const_iteratorIS8_PNS_11__tree_nodeIS8_PvEElEERKT_
FN:2029,_ZNKSt3__16__treeINS_12basic_stringIcNS_11char_traitsIcEENS_9allocatorIcEEEENS_4lessIS6_EENS4_IS6_EEE4findIS6_EENS_21__tree_const_iteratorIS6_PNS_11__tree_nodeIS6_PvEElEERKT_
FN:2029,_ZNKSt3__16__treeINS_12__value_typeINS_12basic_stringIcNS_11char_traitsIcEENS_9allocatorIcEEEEN5Catch3PtrINS8_16IReporterFactoryEEEEENS_19__map_value_compareIS7_SC_NS_4lessIS7_EELb1EEENS5_ISC_EEE4findIS7_EENS_21__tree_const_iteratorISC_PNS_11__tree_nodeISC_PvEElEERKT_
FN:2088,_ZNSt3__16__treeINS_12__value_typeINS_12basic_stringIcNS_11char_traitsIcEENS_9allocatorIcEEEEPN5Catch14IGeneratorInfoEEENS_19__map_value_compareIS7_SB_NS_4lessIS7_EELb1EEENS5_ISB_EEE13__lower_boundIS7_EENS_15__tree_iteratorISB_PNS_11__tree_nodeISB_PvEElEERKT_SN_SN_
FN:2088,_ZNSt3__16__treeINS_12__value_typeINS_12basic_stringIcNS_11char_traitsIcEENS_9allocatorIcEEEEPN5Catch18IGeneratorsForTestEEENS_19__map_value_compareIS7_SB_NS_4lessIS7_EELb1EEENS5_ISB_EEE13__lower_boundIS7_EENS_15__tree_iteratorISB_PNS_11__tree_nodeISB_PvEElEERKT_SN_SN_
FN:2088,_ZNSt3__16__treeINS_12__value_typeINS_12basic_stringIcNS_11char_traitsIcEENS_9allocatorIcEEEEN5Catch7TagInfoEEENS_19__map_value_compareIS7_SA_NS_4lessIS7_EELb1EEENS5_ISA_EEE13__lower_boundIS7_EENS_15__tree_iteratorISA_PNS_11__tree_nodeISA_PvEElEERKT_SM_SM_
FN:2108,_ZNKSt3__16__treeINS_12__value_typeINS_12basic_stringIcNS_11char_traitsIcEENS_9allocatorIcEEEEN5Catch3PtrINS8_16IReporterFactoryEEEEENS_19__map_value_compareIS7_SC_NS_4lessIS7_EELb1EEENS5_ISC_EEE13__lower_boundIS7_EENS_21__tree_const_iteratorISC_PNS_11__tree_nodeISC_PvEElEERKT_SO_SO_
FN:2108,_ZNKSt3__16__treeINS_12__value_typeINS_12basic_stringIcNS_11char_traitsIcEENS_9allocatorIcEEEEN5Catch8TagAliasEEENS_19__map_value_compareIS7_SA_NS_4lessIS7_EELb1EEENS5_ISA_EEE13__lower_boundIS7_EENS_21__tree_const_iteratorISA_PNS_11__tree_nodeISA_PvEElEERKT_SM_SM_
FN:2108,_ZNKSt3__16__treeINS_12basic_stringIcNS_11char_traitsIcEENS_9allocatorIcEEEENS_4lessIS6_EENS4_IS6_EEE13__lower_boundIS6_EENS_21__tree_const_iteratorIS6_PNS_11__tree_nodeIS6_PvEElEERKT_SG_SG_
FN:2108,_ZNKSt3__16__treeINS_12__value_typeIiN5Catch5Clara11CommandLineINS2_10ConfigDataEE3ArgEEENS_19__map_value_compareIiS8_NS_4lessIiEELb1EEENS_9allocatorIS8_EEE13__lower_boundIiEENS_21__tree_const_iteratorIS8_PNS_11__tree_nodeIS8_PvEElEERKT_SL_SL_
FNDA:41,_ZNSt3__16__treeINS_12__value_typeINS_12basic_stringIcNS_11char_traitsIcEENS_9allocatorIcEEEEN5Catch3PtrINS8_16IReporterFactoryEEEEENS_19__map_value_compareIS7_SC_NS_4lessIS7_EELb1EEENS5_ISC_EEED1Ev
FNDA:30,_ZNSt3__16__treeINS_12basic_stringIcNS_11char_traitsIcEENS_9allocatorIcEEEENS_4lessIS6_EENS4_IS6_EEEC2ERKSA_
FNDA:12,_ZNSt3__16__treeIN5Catch8TestCaseENS_4lessIS2_EENS_9allocatorIS2_EEE12__node_allocEv
FNDA:12,_ZNSt3__121__tree_const_iteratorINS_12__value_typeINS_12basic_stringIcNS_11char_traitsIcEENS_9allocatorIcEEEEPN5Catch18IGeneratorsForTestEEEPNS_11__tree_nodeISB_PvEElEC2ENS_15__tree_iteratorISB_SF_lEE
FNDA:4,_ZNSt3__16__treeINS_12basic_stringIcNS_11char_traitsIcEENS_9allocatorIcEEEENS_4lessIS6_EENS4_IS6_EEE20__node_insert_uniqueEPNS_11__tree_nodeIS6_PvEE
FNDA:1,_ZNKSt3__121__tree_const_iteratorINS_12__value_typeINS_12basic_stringIcNS_11char_traitsIcEENS_9allocatorIcEEEEPN5Catch14IGeneratorInfoEEEPNS_11__tree_nodeISB_PvEElEptEv
FNDA:51,_ZNSt3__16__treeINS_12__value_typeINS_12basic_stringIcNS_11char_traitsIcEENS_9allocatorIcEEEEN5Catch7TagInfoEEENS_19__map_value_compareIS7_SA_NS_4lessIS7_EELb1EEENS5_ISA_EEE6__rootEv
FNDA:2,_ZNSt3__16__treeINS_12__value_typeINS_12basic_stringIcNS_11char_traitsIcEENS_9allocatorIcEEEEPN5Catch14IGeneratorInfoEEENS_19__map_value_compareIS7_SB_NS_4lessIS7_EELb1EEENS5_ISB_EEE13__lower_boundIS7_EENS_15__tree_iteratorISB_PNS_11__tree_nodeISB_PvEElEERKT_SN_SN_
FNDA:0,_ZNSt3__111__tree_leafIPNS_16__tree_node_baseIPvEEEET_S5_
FNDA:6,_ZNSt3__16__treeINS_12__value_typeINS_12basic_stringIcNS_11char_traitsIcEENS_9allocatorIcEEEEN5Catch8TagAliasEEENS_19__map_value_compareIS7_SA_NS_4lessIS7_EELb1EEENS5_ISA_EEE16__construct_nodeIJNS_4pairIPKcS9_EEEEENS_10unique_ptrINS_11__tree_nodeISA_PvEENS_22__tree_node_destructorINS5_ISP_EEEEEEDpOT_
FNDA:51,_ZNSt3__16__treeINS_12basic_stringIcNS_11char_traitsIcEENS_9allocatorIcEEEENS_4lessIS6_EENS4_IS6_EEE6__rootEv
FNDA:51,_ZNSt3__16__treeINS_12__value_typeINS_12basic_stringIcNS_11char_traitsIcEENS_9allocatorIcEEEEN5Catch3PtrINS8_16IReporterFactoryEEEEENS_19__map_value_compareIS7_SC_NS_4lessIS7_EELb1EEENS5_ISC_EEE6__rootEv
FNDA:1,_ZNKSt3__16__treeINS_12__value_typeINS_12basic_stringIcNS_11char_traitsIcEENS_9allocatorIcEEEEN5Catch3PtrINS8_16IReporterFactoryEEEEENS_19__map_value_compareIS7_SC_NS_4lessIS7_EELb1EEENS5_ISC_EEE13__lower_boundIS7_EENS_21__tree_const_iteratorISC_PNS_11__tree_nodeISC_PvEElEERKT_SO_SO_
FNDA:41,_ZNSt3__16__treeINS_12__value_typeINS_12basic_stringIcNS_11char_traitsIcEENS_9allocatorIcEEEEN5Catch8TagAliasEEENS_19__map_value_compareIS7_SA_NS_4lessIS7_EELb1EEENS5_ISA_EEED2Ev
FNDA:6,_ZNSt3__16__treeINS_12basic_stringIcNS_11char_traitsIcEENS_9allocatorIcEEEENS_4lessIS6_EENS4_IS6_EEE3endEv
FNDA:4,_ZNSt3__120__tree_is_left_childIPNS_16__tree_node_baseIPvEEEEbT_
FNDA:11,_ZNSt3__16__treeINS_12__value_typeINS_12basic_stringIcNS_11char_traitsIcEENS_9allocatorIcEEEEPN5Catch18IGeneratorsForTestEEENS_19__map_value_compareIS7_SB_NS_4lessIS7_EELb1EEENS5_ISB_EEEC1ERKSF_
FNDA:6,_ZNSt3__16__treeINS_12__value_typeIiN5Catch5Clara11CommandLineINS2_10ConfigDataEE3ArgEEENS_19__map_value_compareIiS8_NS_4lessIiEELb1EEENS_9allocatorIS8_EEE7destroyEPNS_11__tree_nodeIS8_PvEE
FNDA:2,_ZNSt3__13setIN5Catch8TestCaseENS_4lessIS2_EENS_9allocatorIS2_EEED2Ev
FNDA:3,_ZNKSt3__16__treeINS_12__value_typeIiN5Catch5Clara11CommandLineINS2_10ConfigDataEE3ArgEEENS_19__map_value_compareIiS8_NS_4lessIiEELb1EEENS_9allocatorIS8_EEE6__rootEv
FNDA:51,_ZNSt3__16__treeINS_12__value_typeINS_12basic_stringIcNS_11char_traitsIcEENS_9allocatorIcEEEEN5Catch8TagAliasEEENS_19__map_value_compareIS7_SA_NS_4lessIS7_EELb1EEENS5_ISA_EEE6__rootEv
FNDA:79,_ZNKSt3__16__treeINS_12__value_typeINS_12basic_stringIcNS_11char_traitsIcEENS_9allocatorIcEEEEN5Catch3PtrINS8_16IReporterFactoryEEEEENS_19__map_value_compareIS7_SC_NS_4lessIS7_EELb1EEENS5_ISC_EEE10__end_nodeEv
FNDA:0,_ZNSt3__111__tree_nextIPNS_16__tree_node_baseIPvEEEET_S5_
FNDA:2,_ZNSt3__16__treeIN5Catch8TestCaseENS_4lessIS2_EENS_9allocatorIS2_EEE15__insert_uniqueERKS2_
FNDA:6,_ZNSt3__16__treeINS_12__value_typeINS_12basic_stringIcNS_11char_traitsIcEENS_9allocatorIcEEEEPN5Catch18IGeneratorsForTestEEENS_19__map_value_compareIS7_SB_NS_4lessIS7_EELb1EEENS5_ISB_EEE7destroyEPNS_11__tree_nodeISB_PvEE
FNDA:11,_ZNSt3__16__treeINS_12basic_stringIcNS_11char_traitsIcEENS_9allocatorIcEEEENS_4lessIS6_EENS4_IS6_EEEC2ERKS8_
FNDA:28,_ZNSt3__115__tree_iteratorINS_12__value_typeINS_12basic_stringIcNS_11char_traitsIcEENS_9allocatorIcEEEEN5Catch7TagInfoEEEPNS_11__tree_nodeISA_PvEElEC1ESE_
FNDA:0,_ZNKSt3__16__treeINS_12basic_stringIcNS_11char_traitsIcEENS_9allocatorIcEEEENS_4lessIS6_EENS4_IS6_EEE4sizeEv
FNDA:0,_ZNSt3__16__treeINS_12basic_stringIcNS_11char_traitsIcEENS_9allocatorIcEEEENS_4lessIS6_EENS4_IS6_EEEC1EOSA_
FNDA:1,_ZNKSt3__16__treeINS_12__value_typeINS_12basic_stringIcNS_11char_traitsIcEENS_9allocatorIcEEEEN5Catch8TagAliasEEENS_19__map_value_compareIS7_SA_NS_4lessIS7_EELb1EEENS5_ISA_EEE4findIS7_EENS_21__tree_const_iteratorISA_PNS_11__tree_nodeISA_PvEElEERKT_
FNDA:41,_ZNSt3__16__treeINS_12__value_typeINS_12basic_stringIcNS_11char_traitsIcEENS_9allocatorIcEEEEPN5Catch18IGeneratorsForTestEEENS_19__map_value_compareIS7_SB_NS_4lessIS7_EELb1EEENS5_ISB_EEED1Ev
FNDA:42,_ZNSt3__1neERKNS_21__tree_const_iteratorINS_12__value_typeINS_12basic_stringIcNS_11char_traitsIcEENS_9allocatorIcEEEEPN5Catch18IGeneratorsForTestEEEPNS_11__tree_nodeISB_PvEElEESI_
FNDA:1,_ZNKSt3__121__tree_const_iteratorINS_12__value_typeINS_12basic_stringIcNS_11char_traitsIcEENS_9allocatorIcEEEEN5Catch8TagAliasEEEPNS_11__tree_nodeISA_PvEElEdeEv
FNDA:2,_ZNSt3__1neERKNS_15__tree_iteratorINS_12__value_typeINS_12basic_stringIcNS_11char_traitsIcEENS_9allocatorIcEEEEPN5Catch14IGeneratorInfoEEEPNS_11__tree_nodeISB_PvEElEESI_
FNDA:112,_ZNSt3__16__treeINS_12__value_typeINS_12basic_stringIcNS_11char_traitsIcEENS_9allocatorIcEEEEPN5Catch18IGeneratorsForTestEEENS_19__map_value_compareIS7_SB_NS_4lessIS7_EELb1EEENS5_ISB_EEE10__end_nodeEv
FNDA:43,_ZNSt3__1eqERKNS_21__tree_const_iteratorINS_12__value_typeINS_12basic_stringIcNS_11char_traitsIcEENS_9allocatorIcEEEEPN5Catch14IGeneratorInfoEEEPNS_11__tree_nodeISB_PvEElEESI_
FNDA:6,_ZNSt3__16__treeIN5Catch8TestCaseENS_4lessIS2_EENS_9allocatorIS2_EEE16__insert_node_atEPNS_16__tree_node_baseIPvEERSB_SB_
FNDA:42,_ZNSt3__1neERKNS_21__tree_const_iteratorINS_12__value_typeINS_12basic_stringIcNS_11char_traitsIcEENS_9allocatorIcEEEEN5Catch7TagInfoEEEPNS_11__tree_nodeISA_PvEElEESH_
FNDA:61,_ZNSt3__16__treeINS_12__value_typeINS_12basic_stringIcNS_11char_traitsIcEENS_9allocatorIcEEEEPN5Catch18IGeneratorsForTestEEENS_19__map_value_compareIS7_SB_NS_4lessIS7_EELb1EEENS5_ISB_EEE12__begin_nodeEv
FNDA:11,_ZNSt3__16__treeINS_12__value_typeINS_12basic_stringIcNS_11char_traitsIcEENS_9allocatorIcEEEEPN5Catch14IGeneratorInfoEEENS_19__map_value_compareIS7_SB_NS_4lessIS7_EELb1EEENS5_ISB_EEEC2ERKSF_
FNDA:112,_ZNSt3__16__treeINS_12__value_typeINS_12basic_stringIcNS_11char_traitsIcEENS_9allocatorIcEEEEPN5Catch14IGeneratorInfoEEENS_19__map_value_compareIS7_SB_NS_4lessIS7_EELb1EEENS5_ISB_EEE10__end_nodeEv
FNDA:0,_ZNSt3__121__tree_const_iteratorINS_12__value_typeINS_12basic_stringIcNS_11char_traitsIcEENS_9allocatorIcEEEEN5Catch3PtrINS8_16IReporterFactoryEEEEEPNS_11__tree_nodeISC_PvEElEC1Ev
FNDA:6,_ZNSt3__16__treeINS_12__value_typeINS_12basic_stringIcNS_11char_traitsIcEENS_9allocatorIcEEEEN5Catch8TagAliasEEENS_19__map_value_compareIS7_SA_NS_4lessIS7_EELb1EEENS5_ISA_EEE7destroyEPNS_11__tree_nodeISA_PvEE
FNDA:1,_ZNKSt3__16__treeINS_12basic_stringIcNS_11char_traitsIcEENS_9allocatorIcEEEENS_4lessIS6_EENS4_IS6_EEE13__lower_boundIS6_EENS_21__tree_const_iteratorIS6_PNS_11__tree_nodeIS6_PvEElEERKT_SG_SG_
FNDA:1,_ZNKSt3__121__tree_const_iteratorINS_12__value_typeINS_12basic_stringIcNS_11char_traitsIcEENS_9allocatorIcEEEEN5Catch3PtrINS8_16IReporterFactoryEEEEEPNS_11__tree_nodeISC_PvEElEptEv
FNDA:1,_ZNKSt3__16__treeINS_12__value_typeINS_12basic_stringIcNS_11char_traitsIcEENS_9allocatorIcEEEEN5Catch8TagAliasEEENS_19__map_value_compareIS7_SA_NS_4lessIS7_EELb1EEENS5_ISA_EEE13__lower_boundIS7_EENS_21__tree_const_iteratorISA_PNS_11__tree_nodeISA_PvEElEERKT_SM_SM_
FNDA:6,_ZNSt3__16__treeINS_12__value_typeINS_12basic_stringIcNS_11char_traitsIcEENS_9allocatorIcEEEEPN5Catch14IGeneratorInfoEEENS_19__map_value_compareIS7_SB_NS_4lessIS7_EELb1EEENS5_ISB_EEE7destroyEPNS_11__tree_nodeISB_PvEE
FNDA:42,_ZNSt3__1neERKNS_21__tree_const_iteratorINS_12__value_typeINS_12basic_stringIcNS_11char_traitsIcEENS_9allocatorIcEEEEN5Catch8TagAliasEEEPNS_11__tree_nodeISA_PvEElEESH_
FNDA:0,_ZNKSt3__16__treeINS_12__value_typeIiN5Catch5Clara11CommandLineINS2_10ConfigDataEE3ArgEEENS_19__map_value_compareIiS8_NS_4lessIiEELb1EEENS_9allocatorIS8_EEE4sizeEv
FNDA:43,_ZNSt3__1eqERKNS_21__tree_const_iteratorINS_12basic_stringIcNS_11char_traitsIcEENS_9allocatorIcEEEEPNS_11__tree_nodeIS6_PvEElEESD_
FNDA:79,_ZNKSt3__16__treeINS_12__value_typeIiN5Catch5Clara11CommandLineINS2_10ConfigDataEE3ArgEEENS_19__map_value_compareIiS8_NS_4lessIiEELb1EEENS_9allocatorIS8_EEE10__end_nodeEv
FNDA:28,_ZNSt3__115__tree_iteratorINS_12__value_typeINS_12basic_stringIcNS_11char_traitsIcEENS_9allocatorIcEEEEPN5Catch18IGeneratorsForTestEEEPNS_11__tree_nodeISB_PvEElEC1ESF_
FNDA:0,_ZNSt3__16__treeINS_12__value_typeINS_12basic_stringIcNS_11char_traitsIcEENS_9allocatorIcEEEEN5Catch7TagInfoEEENS_19__map_value_compareIS7_SA_NS_4lessIS7_EELb1EEENS5_ISA_EEE5beginEv
FNDA:6,_ZNSt3__16__treeIN5Catch8TestCaseENS_4lessIS2_EENS_9allocatorIS2_EEE7destroyEPNS_11__tree_nodeIS2_PvEE
FNDA:36,_ZNKSt3__16__treeINS_12__value_typeINS_12basic_stringIcNS_11char_traitsIcEENS_9allocatorIcEEEEN5Catch3PtrINS8_16IReporterFactoryEEEEENS_19__map_value_compareIS7_SC_NS_4lessIS7_EELb1EEENS5_ISC_EEE10value_compEv
FNDA:28,_ZNSt3__115__tree_iteratorINS_12__value_typeINS_12basic_stringIcNS_11char_traitsIcEENS_9allocatorIcEEEEPN5Catch14IGeneratorInfoEEEPNS_11__tree_nodeISB_PvEElEC2ESF_
FNDA:1,_ZNKSt3__121__tree_const_iteratorINS_12basic_stringIcNS_11char_traitsIcEENS_9allocatorIcEEEEPNS_11__tree_nodeIS6_PvEElEdeEv
FNDA:4,_ZNSt3__16__treeINS_12__value_typeINS_12basic_stringIcNS_11char_traitsIcEENS_9allocatorIcEEEEN5Catch7TagInfoEEENS_19__map_value_compareIS7_SA_NS_4lessIS7_EELb1EEENS5_ISA_EEE15__insert_uniqueINS_4pairIS7_S9_EEEENSI_INS_15__tree_iteratorISA_PNS_11__tree_nodeISA_PvEElEEbEEOT_
FNDA:28,_ZNSt3__115__tree_iteratorINS_12basic_stringIcNS_11char_traitsIcEENS_9allocatorIcEEEEPNS_11__tree_nodeIS6_PvEElEC2ESA_
FNDA:8,_ZNSt3__16__treeINS_12__value_typeINS_12basic_stringIcNS_11char_traitsIcEENS_9allocatorIcEEEEPN5Catch18IGeneratorsForTestEEENS_19__map_value_compareIS7_SB_NS_4lessIS7_EELb1EEENS5_ISB_EEE10value_compEv
FNDA:41,_ZNSt3__16__treeIN5Catch8TestCaseENS_4lessIS2_EENS_9allocatorIS2_EEED2Ev
FNDA:2,_ZNSt3__13mapINS_12basic_stringIcNS_11char_traitsIcEENS_9allocatorIcEEEEPN5Catch18IGeneratorsForTestENS_4lessIS6_EENS4_INS_4pairIKS6_S9_EEEEED1Ev
FNDA:10,_ZNSt3__16__treeINS_12__value_typeINS_12basic_stringIcNS_11char_traitsIcEENS_9allocatorIcEEEEPN5Catch14IGeneratorInfoEEENS_19__map_value_compareIS7_SB_NS_4lessIS7_EELb1EEENS5_ISB_EEE4sizeEv
FNDA:0,_ZNSt3__121__tree_const_iteratorINS_12__value_typeINS_12basic_stringIcNS_11char_traitsIcEENS_9allocatorIcEEEEN5Catch7TagInfoEEEPNS_11__tree_nodeISA_PvEElEppEv
FNDA:30,_ZNSt3__16__treeINS_12basic_stringIcNS_11char_traitsIcEENS_9allocatorIcEEEENS_4lessIS6_EENS4_IS6_EEEC1ERKSA_
FNDA:73,_ZNKSt3__16__treeINS_12__value_typeINS_12basic_stringIcNS_11char_traitsIcEENS_9allocatorIcEEEEN5Catch8TagAliasEEENS_19__map_value_compareIS7_SA_NS_4lessIS7_EELb1EEENS5_ISA_EEE3endEv
FNDA:3,_ZNKSt3__16__treeINS_12basic_stringIcNS_11char_traitsIcEENS_9allocatorIcEEEENS_4lessIS6_EENS4_IS6_EEE6__rootEv
FNDA:2,_ZNSt3__16__treeINS_12basic_stringIcNS_11char_traitsIcEENS_9allocatorIcEEEENS_4lessIS6_EENS4_IS6_EEE15__insert_uniqueERKS6_
FNDA:1,_ZNKSt3__121__tree_const_iteratorINS_12__value_typeINS_12basic_stringIcNS_11char_traitsIcEENS_9allocatorIcEEEEN5Catch3PtrINS8_16IReporterFactoryEEEEEPNS_11__tree_nodeISC_PvEElEdeEv
FNDA:11,_ZNSt3__16__treeINS_12__value_typeINS_12basic_stringIcNS_11char_traitsIcEENS_9allocatorIcEEEEN5Catch3PtrINS8_16IReporterFactoryEEEEENS_19__map_value_compareIS7_SC_NS_4lessIS7_EELb1EEENS5_ISC_EEEC1ERKSG_
FNDA:73,_ZNKSt3__16__treeINS_12__value_typeIiN5Catch5Clara11CommandLineINS2_10ConfigDataEE3ArgEEENS_19__map_value_compareIiS8_NS_4lessIiEELb1EEENS_9allocatorIS8_EEE3endEv
FNDA:0,_ZNKSt3__115__tree_iteratorINS_12__value_typeINS_12basic_stringIcNS_11char_traitsIcEENS_9allocatorIcEEEEPN5Catch18IGeneratorsForTestEEEPNS_11__tree_nodeISB_PvEElEdeEv
FNDA:11,_ZNSt3__16__treeINS_12__value_typeIiN5Catch5Clara11CommandLineINS2_10ConfigDataEE3ArgEEENS_19__map_value_compareIiS8_NS_4lessIiEELb1EEENS_9allocatorIS8_EEEC2ERKSC_
FNDA:0,_ZNKSt3__115__tree_iteratorINS_12__value_typeINS_12basic_stringIcNS_11char_traitsIcEENS_9allocatorIcEEEEN5Catch7TagInfoEEEPNS_11__tree_nodeISA_PvEElEptEv
FNDA:222,_ZNSt3__121__tree_const_iteratorINS_12basic_stringIcNS_11char_traitsIcEENS_9allocatorIcEEEEPNS_11__tree_nodeIS6_PvEElEC1ESA_
FNDA:6,_ZNSt3__122__tree_node_destructorINS_9allocatorINS_11__tree_nodeINS_12__value_typeINS_12basic_stringIcNS_11char_traitsIcEENS1_IcEEEEPN5Catch14IGeneratorInfoEEEPvEEEEEC2ERSF_b
FNDA:6,_ZNSt3__16__treeINS_12basic_stringIcNS_11char_traitsIcEENS_9allocatorIcEEEENS_4lessIS6_EENS4_IS6_EEE16__construct_nodeIJS6_EEENS_10unique_ptrINS_11__tree_nodeIS6_PvEENS_22__tree_node_destructorINS4_ISF_EEEEEEDpOT_
FNDA:0,_ZNSt3__121__tree_const_iteratorINS_12__value_typeINS_12basic_stringIcNS_11char_traitsIcEENS_9allocatorIcEEEEN5Catch3PtrINS8_16IReporterFactoryEEEEEPNS_11__tree_nodeISC_PvEElEC2Ev
FNDA:11,_ZNSt3__16__treeIN5Catch8TestCaseENS_4lessIS2_EENS_9allocatorIS2_EEEC2ERKS4_
FNDA:0,_ZNSt3__16__treeINS_12basic_stringIcNS_11char_traitsIcEENS_9allocatorIcEEEENS_4lessIS6_EENS4_IS6_EEE19__node_insert_multiEPNS_11__tree_nodeIS6_PvEE
FNDA:0,_ZNSt3__122__tree_node_destructorINS_9allocatorINS_11__tree_nodeIN5Catch8TestCaseEPvEEEEEclEPS6_
FNDA:6,_ZNSt3__16__treeINS_12__value_typeINS_12basic_stringIcNS_11char_traitsIcEENS_9allocatorIcEEEEPN5Catch14IGeneratorInfoEEENS_19__map_value_compareIS7_SB_NS_4lessIS7_EELb1EEENS5_ISB_EEE16__insert_node_atEPNS_16__tree_node_baseIPvEERSL_SL_
FNDA:1,_ZNKSt3__121__tree_const_iteratorINS_12__value_typeINS_12basic_stringIcNS_11char_traitsIcEENS_9allocatorIcEEEEN5Catch7TagInfoEEEPNS_11__tree_nodeISA_PvEElEptEv
FNDA:51,_ZNSt3__16__treeINS_12__value_typeINS_12basic_stringIcNS_11char_traitsIcEENS_9allocatorIcEEEEPN5Catch14IGeneratorInfoEEENS_19__map_value_compareIS7_SB_NS_4lessIS7_EELb1EEENS5_ISB_EEE6__rootEv
FNDA:11,_ZNSt3__16__treeINS_12basic_stringIcNS_11char_traitsIcEENS_9allocatorIcEEEENS_4lessIS6_EENS4_IS6_EEEC1ERKS8_
FNDA:8,_ZNSt3__16__treeINS_12__value_typeINS_12basic_stringIcNS_11char_traitsIcEENS_9allocatorIcEEEEPN5Catch14IGeneratorInfoEEENS_19__map_value_compareIS7_SB_NS_4lessIS7_EELb1EEENS5_ISB_EEE10value_compEv
FNDA:6,_ZNSt3__16__treeINS_12__value_typeINS_12basic_stringIcNS_11char_traitsIcEENS_9allocatorIcEEEEPN5Catch14IGeneratorInfoEEENS_19__map_value_compareIS7_SB_NS_4lessIS7_EELb1EEENS5_ISB_EEE16__construct_nodeIJNS_4pairIS7_SA_EEEEENS_10unique_ptrINS_11__tree_nodeISB_PvEENS_22__tree_node_destructorINS5_ISO_EEEEEEDpOT_
FNDA:12,_ZNSt3__122__tree_node_destructorINS_9allocatorINS_11__tree_nodeIN5Catch8TestCaseEPvEEEEEC1ERS7_b
FNDA:41,_ZNSt3__16__treeINS_12__value_typeINS_12basic_stringIcNS_11char_traitsIcEENS_9allocatorIcEEEEN5Catch3PtrINS8_16IReporterFactoryEEEEENS_19__map_value_compareIS7_SC_NS_4lessIS7_EELb1EEENS5_ISC_EEED2Ev
FNDA:2,_ZNSt3__1neERKNS_15__tree_iteratorINS_12__value_typeINS_12basic_stringIcNS_11char_traitsIcEENS_9allocatorIcEEEEPN5Catch18IGeneratorsForTestEEEPNS_11__tree_nodeISB_PvEElEESI_
FNDA:35,_ZNKSt3__16__treeINS_12basic_stringIcNS_11char_traitsIcEENS_9allocatorIcEEEENS_4lessIS6_EENS4_IS6_EEE12__begin_nodeEv
FNDA:6,_ZNSt3__16__treeINS_12__value_typeINS_12basic_stringIcNS_11char_traitsIcEENS_9allocatorIcEEEEPN5Catch18IGeneratorsForTestEEENS_19__map_value_compareIS7_SB_NS_4lessIS7_EELb1EEENS5_ISB_EEE16__insert_node_atEPNS_16__tree_node_baseIPvEERSL_SL_
FNDA:4,_ZNSt3__16__treeINS_12__value_typeINS_12basic_stringIcNS_11char_traitsIcEENS_9allocatorIcEEEEN5Catch3PtrINS8_16IReporterFactoryEEEEENS_19__map_value_compareIS7_SC_NS_4lessIS7_EELb1EEENS5_ISC_EEE15__insert_uniqueINS_4pairIS7_SB_EEEENSK_INS_15__tree_iteratorISC_PNS_11__tree_nodeISC_PvEElEEbEEOT_
FNDA:0,_ZNKSt3__115__tree_iteratorINS_12__value_typeINS_12basic_stringIcNS_11char_traitsIcEENS_9allocatorIcEEEEN5Catch7TagInfoEEEPNS_11__tree_nodeISA_PvEElEdeEv
FNDA:51,_ZNSt3__16__treeIN5Catch8TestCaseENS_4lessIS2_EENS_9allocatorIS2_EEE6__rootEv
FNDA:41,_ZNSt3__16__treeINS_12__value_typeINS_12basic_stringIcNS_11char_traitsIcEENS_9allocatorIcEEEEPN5Catch14IGeneratorInfoEEENS_19__map_value_compareIS7_SB_NS_4lessIS7_EELb1EEENS5_ISB_EEED2Ev
FNDA:2,_ZNSt3__1eqERKNS_15__tree_iteratorINS_12__value_typeINS_12basic_stringIcNS_11char_traitsIcEENS_9allocatorIcEEEEPN5Catch18IGeneratorsForTestEEEPNS_11__tree_nodeISB_PvEElEESI_
FNDA:2,_ZNSt3__16__treeINS_12basic_stringIcNS_11char_traitsIcEENS_9allocatorIcEEEENS_4lessIS6_EENS4_IS6_EEE12__find_equalIS6_EERPNS_16__tree_node_baseIPvEESG_RKT_
FNDA:41,_ZNSt3__16__treeINS_12basic_stringIcNS_11char_traitsIcEENS_9allocatorIcEEEENS_4lessIS6_EENS4_IS6_EEED2Ev
FNDA:28,_ZNSt3__115__tree_iteratorIN5Catch8TestCaseEPNS_11__tree_nodeIS2_PvEElEC2ES6_
FNDA:6,_ZNSt3__122__tree_node_destructorINS_9allocatorINS_11__tree_nodeIN5Catch8TestCaseEPvEEEEEC2ERS7_b
FNDA:222,_ZNSt3__121__tree_const_iteratorINS_12__value_typeINS_12basic_stringIcNS_11char_traitsIcEENS_9allocatorIcEEEEN5Catch3PtrINS8_16IReporterFactoryEEEEEPNS_11__tree_nodeISC_PvEElEC2ESG_
FNDA:79,_ZNKSt3__16__treeINS_12__value_typeINS_12basic_stringIcNS_11char_traitsIcEENS_9allocatorIcEEEEN5Catch8TagAliasEEENS_19__map_value_compareIS7_SA_NS_4lessIS7_EELb1EEENS5_ISA_EEE10__end_nodeEv
FNDA:6,_ZNSt3__16__treeIN5Catch8TestCaseENS_4lessIS2_EENS_9allocatorIS2_EEE16__construct_nodeIJRKS2_EEENS_10unique_ptrINS_11__tree_nodeIS2_PvEENS_22__tree_node_destructorINS5_ISE_EEEEEEDpOT_
FNDA:2,_ZNSt3__16__treeINS_12basic_stringIcNS_11char_traitsIcEENS_9allocatorIcEEEENS_4lessIS6_EENS4_IS6_EEE5clearEv
FNDA:82,_ZNSt3__115__tree_end_nodeIPNS_16__tree_node_baseIPvEEEC1Ev
FNDA:11,_ZNSt3__16__treeINS_12__value_typeIiN5Catch5Clara11CommandLineINS2_10ConfigDataEE3ArgEEENS_19__map_value_compareIiS8_NS_4lessIiEELb1EEENS_9allocatorIS8_EEEC1ERKSC_
FNDA:222,_ZNSt3__121__tree_const_iteratorINS_12__value_typeINS_12basic_stringIcNS_11char_traitsIcEENS_9allocatorIcEEEEN5Catch8TagAliasEEEPNS_11__tree_nodeISA_PvEElEC2ESE_
FNDA:2,_ZNSt3__13mapINS_12basic_stringIcNS_11char_traitsIcEENS_9allocatorIcEEEEN5Catch3PtrINS7_16IReporterFactoryEEENS_4lessIS6_EENS4_INS_4pairIKS6_SA_EEEEED2Ev
FNDA:51,_ZNSt3__16__treeINS_12__value_typeINS_12basic_stringIcNS_11char_traitsIcEENS_9allocatorIcEEEEPN5Catch18IGeneratorsForTestEEENS_19__map_value_compareIS7_SB_NS_4lessIS7_EELb1EEENS5_ISB_EEE6__rootEv
FNDA:35,_ZNKSt3__16__treeINS_12__value_typeINS_12basic_stringIcNS_11char_traitsIcEENS_9allocatorIcEEEEN5Catch8TagAliasEEENS_19__map_value_compareIS7_SA_NS_4lessIS7_EELb1EEENS5_ISA_EEE12__begin_nodeEv
FNDA:6,_ZNSt3__16__treeINS_12__value_typeINS_12basic_stringIcNS_11char_traitsIcEENS_9allocatorIcEEEEN5Catch7TagInfoEEENS_19__map_value_compareIS7_SA_NS_4lessIS7_EELb1EEENS5_ISA_EEE7destroyEPNS_11__tree_nodeISA_PvEE
FNDA:6,_ZNSt3__16__treeINS_12basic_stringIcNS_11char_traitsIcEENS_9allocatorIcEEEENS_4lessIS6_EENS4_IS6_EEE16__construct_nodeIJRKS6_EEENS_10unique_ptrINS_11__tree_nodeIS6_PvEENS_22__tree_node_destructorINS4_ISH_EEEEEEDpOT_
FNDA:1,_ZNKSt3__16__treeINS_12basic_stringIcNS_11char_traitsIcEENS_9allocatorIcEEEENS_4lessIS6_EENS4_IS6_EEE4findIS6_EENS_21__tree_const_iteratorIS6_PNS_11__tree_nodeIS6_PvEElEERKT_
FNDA:0,_ZNSt3__122__tree_node_destructorINS_9allocatorINS_11__tree_nodeINS_12__value_typeINS_12basic_stringIcNS_11char_traitsIcEENS1_IcEEEEPN5Catch18IGeneratorsForTestEEEPvEEEEEclEPSE_
FNDA:2,_ZNSt3__16__treeINS_12__value_typeINS_12basic_stringIcNS_11char_traitsIcEENS_9allocatorIcEEEEN5Catch8TagAliasEEENS_19__map_value_compareIS7_SA_NS_4lessIS7_EELb1EEENS5_ISA_EEE12__find_equalISA_EERPNS_16__tree_node_baseIPvEESM_RKT_
FNDA:61,_ZNSt3__16__treeINS_12__value_typeINS_12basic_stringIcNS_11char_traitsIcEENS_9allocatorIcEEEEN5Catch8TagAliasEEENS_19__map_value_compareIS7_SA_NS_4lessIS7_EELb1EEENS5_ISA_EEE12__begin_nodeEv
FNDA:1,_ZNKSt3__16__treeINS_12__value_typeIiN5Catch5Clara11CommandLineINS2_10ConfigDataEE3ArgEEENS_19__map_value_compareIiS8_NS_4lessIiEELb1EEENS_9allocatorIS8_EEE4findIiEENS_21__tree_const_iteratorIS8_PNS_11__tree_nodeIS8_PvEElEERKT_
FNDA:12,_ZNSt3__16__treeINS_12__value_typeINS_12basic_stringIcNS_11char_traitsIcEENS_9allocatorIcEEEEPN5Catch14IGeneratorInfoEEENS_19__map_value_compareIS7_SB_NS_4lessIS7_EELb1EEENS5_ISB_EEE12__node_allocEv
FNDA:2,_ZNSt3__16__treeINS_12__value_typeINS_12basic_stringIcNS_11char_traitsIcEENS_9allocatorIcEEEEPN5Catch18IGeneratorsForTestEEENS_19__map_value_compareIS7_SB_NS_4lessIS7_EELb1EEENS5_ISB_EEE13__lower_boundIS7_EENS_15__tree_iteratorISB_PNS_11__tree_nodeISB_PvEElEERKT_SN_SN_
FNDA:0,_ZNSt3__16__treeINS_12basic_stringIcNS_11char_traitsIcEENS_9allocatorIcEEEENS_4lessIS6_EENS4_IS6_EEE12__find_equalIS6_EERPNS_16__tree_node_baseIPvEENS_21__tree_const_iteratorIS6_PNS_11__tree_nodeIS6_SD_EElEESG_RKT_
FNDA:0,_ZNSt3__16__treeINS_12basic_stringIcNS_11char_traitsIcEENS_9allocatorIcEEEENS_4lessIS6_EENS4_IS6_EEEC2EOSA_
FNDA:12,_ZNSt3__121__tree_const_iteratorINS_12basic_stringIcNS_11char_traitsIcEENS_9allocatorIcEEEEPNS_11__tree_nodeIS6_PvEElEC2ENS_15__tree_iteratorIS6_SA_lEE
FNDA:12,_ZNSt3__121__tree_const_iteratorINS_12basic_stringIcNS_11char_traitsIcEENS_9allocatorIcEEEEPNS_11__tree_nodeIS6_PvEElEC1ENS_15__tree_iteratorIS6_SA_lEE
FNDA:0,_ZNSt3__16__treeINS_12basic_stringIcNS_11char_traitsIcEENS_9allocatorIcEEEENS_4lessIS6_EENS4_IS6_EEE12__swap_allocERNS4_INS_11__tree_nodeIS6_PvEEEESF_NS_17integral_constantIbLb0EEE
FNDA:6,_ZNSt3__16__treeINS_12__value_typeINS_12basic_stringIcNS_11char_traitsIcEENS_9allocatorIcEEEEPN5Catch18IGeneratorsForTestEEENS_19__map_value_compareIS7_SB_NS_4lessIS7_EELb1EEENS5_ISB_EEE3endEv
FNDA:10,_ZNSt3__16__treeIN5Catch8TestCaseENS_4lessIS2_EENS_9allocatorIS2_EEE4sizeEv
FNDA:28,_ZNSt3__115__tree_iteratorINS_12__value_typeINS_12basic_stringIcNS_11char_traitsIcEENS_9allocatorIcEEEEN5Catch3PtrINS8_16IReporterFactoryEEEEEPNS_11__tree_nodeISC_PvEElEC1ESG_
FNDA:2,_ZNSt3__13mapINS_12basic_stringIcNS_11char_traitsIcEENS_9allocatorIcEEEEN5Catch3PtrINS7_16IReporterFactoryEEENS_4lessIS6_EENS4_INS_4pairIKS6_SA_EEEEED1Ev
FNDA:2,_ZNSt3__13mapINS_12basic_stringIcNS_11char_traitsIcEENS_9allocatorIcEEEEN5Catch7TagInfoENS_4lessIS6_EENS4_INS_4pairIKS6_S8_EEEEED2Ev
FNDA:42,_ZNSt3__1neERKNS_21__tree_const_iteratorINS_12basic_stringIcNS_11char_traitsIcEENS_9allocatorIcEEEEPNS_11__tree_nodeIS6_PvEElEESD_
FNDA:35,_ZNKSt3__16__treeINS_12__value_typeINS_12basic_stringIcNS_11char_traitsIcEENS_9allocatorIcEEEEN5Catch8TagAliasEEENS_19__map_value_compareIS7_SA_NS_4lessIS7_EELb1EEENS5_ISA_EEE5beginEv
FNDA:43,_ZNSt3__1eqERKNS_21__tree_const_iteratorINS_12__value_typeIiN5Catch5Clara11CommandLineINS2_10ConfigDataEE3ArgEEEPNS_11__tree_nodeIS8_PvEElEESF_
FNDA:12,_ZNSt3__16__treeINS_12__value_typeINS_12basic_stringIcNS_11char_traitsIcEENS_9allocatorIcEEEEPN5Catch18IGeneratorsForTestEEENS_19__map_value_compareIS7_SB_NS_4lessIS7_EELb1EEENS5_ISB_EEE12__node_allocEv
FNDA:12,_ZNSt3__122__tree_node_destructorINS_9allocatorINS_11__tree_nodeINS_12__value_typeINS_12basic_stringIcNS_11char_traitsIcEENS1_IcEEEEN5Catch8TagAliasEEEPvEEEEEC1ERSE_b
FNDA:222,_ZNSt3__121__tree_const_iteratorINS_12__value_typeINS_12basic_stringIcNS_11char_traitsIcEENS_9allocatorIcEEEEN5Catch8TagAliasEEEPNS_11__tree_nodeISA_PvEElEC1ESE_
FNDA:41,_ZNSt3__16__treeINS_12__value_typeINS_12basic_stringIcNS_11char_traitsIcEENS_9allocatorIcEEEEPN5Catch18IGeneratorsForTestEEENS_19__map_value_compareIS7_SB_NS_4lessIS7_EELb1EEENS5_ISB_EEED2Ev
FNDA:2,_ZNSt3__1eqERKNS_15__tree_iteratorINS_12__value_typeINS_12basic_stringIcNS_11char_traitsIcEENS_9allocatorIcEEEEN5Catch7TagInfoEEEPNS_11__tree_nodeISA_PvEElEESH_
FNDA:222,_ZNSt3__121__tree_const_iteratorINS_12basic_stringIcNS_11char_traitsIcEENS_9allocatorIcEEEEPNS_11__tree_nodeIS6_PvEElEC2ESA_
FNDA:6,_ZNSt3__16__treeINS_12__value_typeINS_12basic_stringIcNS_11char_traitsIcEENS_9allocatorIcEEEEPN5Catch18IGeneratorsForTestEEENS_19__map_value_compareIS7_SB_NS_4lessIS7_EELb1EEENS5_ISB_EEE16__construct_nodeIJNS_4pairIS7_SA_EEEEENS_10unique_ptrINS_11__tree_nodeISB_PvEENS_22__tree_node_destructorINS5_ISO_EEEEEEDpOT_
FNDA:112,_ZNSt3__16__treeINS_12__value_typeIiN5Catch5Clara11CommandLineINS2_10ConfigDataEE3ArgEEENS_19__map_value_compareIiS8_NS_4lessIiEELb1EEENS_9allocatorIS8_EEE10__end_nodeEv
FNDA:10,_ZNSt3__16__treeINS_12__value_typeINS_12basic_stringIcNS_11char_traitsIcEENS_9allocatorIcEEEEPN5Catch18IGeneratorsForTestEEENS_19__map_value_compareIS7_SB_NS_4lessIS7_EELb1EEENS5_ISB_EEE4sizeEv
FNDA:61,_ZNSt3__16__treeINS_12__value_typeINS_12basic_stringIcNS_11char_traitsIcEENS_9allocatorIcEEEEN5Catch7TagInfoEEENS_19__map_value_compareIS7_SA_NS_4lessIS7_EELb1EEENS5_ISA_EEE12__begin_nodeEv
FNDA:222,_ZNSt3__121__tree_const_iteratorINS_12__value_typeIiN5Catch5Clara11CommandLineINS2_10ConfigDataEE3ArgEEEPNS_11__tree_nodeIS8_PvEElEC1ESC_
FNDA:12,_ZNSt3__121__tree_const_iteratorIN5Catch8TestCaseEPNS_11__tree_nodeIS2_PvEElEC1ENS_15__tree_iteratorIS2_S6_lEE
FNDA:2,_ZNSt3__16__treeINS_12__value_typeINS_12basic_stringIcNS_11char_traitsIcEENS_9allocatorIcEEEEPN5Catch14IGeneratorInfoEEENS_19__map_value_compareIS7_SB_NS_4lessIS7_EELb1EEENS5_ISB_EEE4findIS7_EENS_15__tree_iteratorISB_PNS_11__tree_nodeISB_PvEElEERKT_
FNDA:8,_ZNSt3__16__treeINS_12__value_typeINS_12basic_stringIcNS_11char_traitsIcEENS_9allocatorIcEEEEN5Catch7TagInfoEEENS_19__map_value_compareIS7_SA_NS_4lessIS7_EELb1EEENS5_ISA_EEE10value_compEv
FNDA:1,_ZNKSt3__121__tree_const_iteratorINS_12__value_typeINS_12basic_stringIcNS_11char_traitsIcEENS_9allocatorIcEEEEN5Catch8TagAliasEEEPNS_11__tree_nodeISA_PvEElEptEv
FNDA:12,_ZNSt3__121__tree_const_iteratorINS_12__value_typeINS_12basic_stringIcNS_11char_traitsIcEENS_9allocatorIcEEEEPN5Catch14IGeneratorInfoEEEPNS_11__tree_nodeISB_PvEElEC2ENS_15__tree_iteratorISB_SF_lEE
FNDA:12,_ZNSt3__16__treeINS_12__value_typeINS_12basic_stringIcNS_11char_traitsIcEENS_9allocatorIcEEEEN5Catch7TagInfoEEENS_19__map_value_compareIS7_SA_NS_4lessIS7_EELb1EEENS5_ISA_EEE12__node_allocEv
FNDA:3,_ZNKSt3__16__treeINS_12__value_typeINS_12basic_stringIcNS_11char_traitsIcEENS_9allocatorIcEEEEN5Catch8TagAliasEEENS_19__map_value_compareIS7_SA_NS_4lessIS7_EELb1EEENS5_ISA_EEE6__rootEv
FNDA:10,_ZNSt3__16__treeINS_12__value_typeINS_12basic_stringIcNS_11char_traitsIcEENS_9allocatorIcEEEEN5Catch8TagAliasEEENS_19__map_value_compareIS7_SA_NS_4lessIS7_EELb1EEENS5_ISA_EEE4sizeEv
FNDA:2,_ZNSt3__16__treeINS_12__value_typeINS_12basic_stringIcNS_11char_traitsIcEENS_9allocatorIcEEEEPN5Catch18IGeneratorsForTestEEENS_19__map_value_compareIS7_SB_NS_4lessIS7_EELb1EEENS5_ISB_EEE12__find_equalISB_EERPNS_16__tree_node_baseIPvEESN_RKT_
FNDA:4,_ZNSt3__16__treeINS_12__value_typeINS_12basic_stringIcNS_11char_traitsIcEENS_9allocatorIcEEEEPN5Catch14IGeneratorInfoEEENS_19__map_value_compareIS7_SB_NS_4lessIS7_EELb1EEENS5_ISB_EEE20__node_insert_uniqueEPNS_11__tree_nodeISB_PvEE
FNDA:28,_ZNSt3__115__tree_iteratorINS_12__value_typeINS_12basic_stringIcNS_11char_traitsIcEENS_9allocatorIcEEEEN5Catch8TagAliasEEEPNS_11__tree_nodeISA_PvEElEC1ESE_
FNDA:12,_ZNSt3__121__tree_const_iteratorINS_12__value_typeINS_12basic_stringIcNS_11char_traitsIcEENS_9allocatorIcEEEEN5Catch7TagInfoEEEPNS_11__tree_nodeISA_PvEElEC1ENS_15__tree_iteratorISA_SE_lEE
FNDA:51,_ZNSt3__16__treeINS_12__value_typeIiN5Catch5Clara11CommandLineINS2_10ConfigDataEE3ArgEEENS_19__map_value_compareIiS8_NS_4lessIiEELb1EEENS_9allocatorIS8_EEE6__rootEv
FNDA:112,_ZNSt3__16__treeINS_12basic_stringIcNS_11char_traitsIcEENS_9allocatorIcEEEENS_4lessIS6_EENS4_IS6_EEE10__end_nodeEv
FNDA:41,_ZNSt3__16__treeINS_12__value_typeIiN5Catch5Clara11CommandLineINS2_10ConfigDataEE3ArgEEENS_19__map_value_compareIiS8_NS_4lessIiEELb1EEENS_9allocatorIS8_EEED1Ev
FNDA:12,_ZNSt3__16__treeINS_12__value_typeINS_12basic_stringIcNS_11char_traitsIcEENS_9allocatorIcEEEEN5Catch8TagAliasEEENS_19__map_value_compareIS7_SA_NS_4lessIS7_EELb1EEENS5_ISA_EEE12__node_allocEv
FNDA:4,_ZNSt3__16__treeINS_12__value_typeINS_12basic_stringIcNS_11char_traitsIcEENS_9allocatorIcEEEEN5Catch8TagAliasEEENS_19__map_value_compareIS7_SA_NS_4lessIS7_EELb1EEENS5_ISA_EEE15__insert_uniqueINS_4pairIPKcS9_EEEENSI_INS_15__tree_iteratorISA_PNS_11__tree_nodeISA_PvEElEEbEEOT_
FNDA:36,_ZNKSt3__16__treeINS_12__value_typeINS_12basic_stringIcNS_11char_traitsIcEENS_9allocatorIcEEEEN5Catch8TagAliasEEENS_19__map_value_compareIS7_SA_NS_4lessIS7_EELb1EEENS5_ISA_EEE10value_compEv
FNDA:61,_ZNSt3__16__treeINS_12basic_stringIcNS_11char_traitsIcEENS_9allocatorIcEEEENS_4lessIS6_EENS4_IS6_EEE12__begin_nodeEv
FNDA:6,_ZNSt3__122__tree_node_destructorINS_9allocatorINS_11__tree_nodeINS_12__value_typeINS_12basic_stringIcNS_11char_traitsIcEENS1_IcEEEEN5Catch3PtrINS9_16IReporterFactoryEEEEEPvEEEEEC2ERSG_b
FNDA:10,_ZNSt3__16__treeINS_12__value_typeINS_12basic_stringIcNS_11char_traitsIcEENS_9allocatorIcEEEEN5Catch3PtrINS8_16IReporterFactoryEEEEENS_19__map_value_compareIS7_SC_NS_4lessIS7_EELb1EEENS5_ISC_EEE4sizeEv
FNDA:2,_ZNSt3__16__treeIN5Catch8TestCaseENS_4lessIS2_EENS_9allocatorIS2_EEE12__find_equalIS2_EERPNS_16__tree_node_baseIPvEESD_RKT_
FNDA:6,_ZNSt3__122__tree_node_destructorINS_9allocatorINS_11__tree_nodeINS_12__value_typeINS_12basic_stringIcNS_11char_traitsIcEENS1_IcEEEEN5Catch7TagInfoEEEPvEEEEEC2ERSE_b
FNDA:35,_ZNKSt3__16__treeINS_12basic_stringIcNS_11char_traitsIcEENS_9allocatorIcEEEENS_4lessIS6_EENS4_IS6_EEE5beginEv
FNDA:112,_ZNSt3__16__treeINS_12__value_typeINS_12basic_stringIcNS_11char_traitsIcEENS_9allocatorIcEEEEN5Catch8TagAliasEEENS_19__map_value_compareIS7_SA_NS_4lessIS7_EELb1EEENS5_ISA_EEE10__end_nodeEv
FNDA:2,_ZNSt3__16__treeINS_12__value_typeINS_12basic_stringIcNS_11char_traitsIcEENS_9allocatorIcEEEEPN5Catch14IGeneratorInfoEEENS_19__map_value_compareIS7_SB_NS_4lessIS7_EELb1EEENS5_ISB_EEE12__find_equalISB_EERPNS_16__tree_node_baseIPvEESN_RKT_
FNDA:6,_ZNSt3__16__treeINS_12__value_typeINS_12basic_stringIcNS_11char_traitsIcEENS_9allocatorIcEEEEN5Catch8TagAliasEEENS_19__map_value_compareIS7_SA_NS_4lessIS7_EELb1EEENS5_ISA_EEE16__insert_node_atEPNS_16__tree_node_baseIPvEERSK_SK_
FNDA:2,_ZNSt3__16__treeINS_12__value_typeINS_12basic_stringIcNS_11char_traitsIcEENS_9allocatorIcEEEEN5Catch7TagInfoEEENS_19__map_value_compareIS7_SA_NS_4lessIS7_EELb1EEENS5_ISA_EEE13__lower_boundIS7_EENS_15__tree_iteratorISA_PNS_11__tree_nodeISA_PvEElEERKT_SM_SM_
FNDA:8,_ZNSt3__16__treeINS_12__value_typeINS_12basic_stringIcNS_11char_traitsIcEENS_9allocatorIcEEEEN5Catch3PtrINS8_16IReporterFactoryEEEEENS_19__map_value_compareIS7_SC_NS_4lessIS7_EELb1EEENS5_ISC_EEE10value_compEv
FNDA:41,_ZNSt3__16__treeINS_12__value_typeINS_12basic_stringIcNS_11char_traitsIcEENS_9allocatorIcEEEEPN5Catch14IGeneratorInfoEEENS_19__map_value_compareIS7_SB_NS_4lessIS7_EELb1EEENS5_ISB_EEED1Ev
FNDA:2,_ZNSt3__1eqERKNS_15__tree_iteratorINS_12__value_typeINS_12basic_stringIcNS_11char_traitsIcEENS_9allocatorIcEEEEPN5Catch14IGeneratorInfoEEEPNS_11__tree_nodeISB_PvEElEESI_
FNDA:0,_ZNSt3__118__tree_left_rotateIPNS_16__tree_node_baseIPvEEEEvT_
FNDA:2,_ZNSt3__16__treeINS_12basic_stringIcNS_11char_traitsIcEENS_9allocatorIcEEEENS_4lessIS6_EENS4_IS6_EEEaSERKSA_
FNDA:61,_ZNSt3__16__treeINS_12__value_typeIiN5Catch5Clara11CommandLineINS2_10ConfigDataEE3ArgEEENS_19__map_value_compareIiS8_NS_4lessIiEELb1EEENS_9allocatorIS8_EEE12__begin_nodeEv
FNDA:2,_ZNSt3__1neERKNS_15__tree_iteratorINS_12__value_typeINS_12basic_stringIcNS_11char_traitsIcEENS_9allocatorIcEEEEN5Catch7TagInfoEEEPNS_11__tree_nodeISA_PvEElEESH_
FNDA:12,_ZNSt3__121__tree_const_iteratorINS_12__value_typeINS_12basic_stringIcNS_11char_traitsIcEENS_9allocatorIcEEEEPN5Catch18IGeneratorsForTestEEEPNS_11__tree_nodeISB_PvEElEC1ENS_15__tree_iteratorISB_SF_lEE
FNDA:112,_ZNSt3__16__treeIN5Catch8TestCaseENS_4lessIS2_EENS_9allocatorIS2_EEE10__end_nodeEv
FNDA:0,_ZNSt3__16__treeINS_12basic_stringIcNS_11char_traitsIcEENS_9allocatorIcEEEENS_4lessIS6_EENS4_IS6_EEE15__insert_uniqueENS_21__tree_const_iteratorIS6_PNS_11__tree_nodeIS6_PvEElEERKS6_
FNDA:1,_ZNKSt3__121__tree_const_iteratorINS_12__value_typeIiN5Catch5Clara11CommandLineINS2_10ConfigDataEE3ArgEEEPNS_11__tree_nodeIS8_PvEElEptEv
FNDA:11,_ZNSt3__16__treeINS_12__value_typeINS_12basic_stringIcNS_11char_traitsIcEENS_9allocatorIcEEEEPN5Catch14IGeneratorInfoEEENS_19__map_value_compareIS7_SB_NS_4lessIS7_EELb1EEENS5_ISB_EEEC1ERKSF_
FNDA:0,_ZNSt3__16__treeINS_12basic_stringIcNS_11char_traitsIcEENS_9allocatorIcEEEENS_4lessIS6_EENS4_IS6_EEE16__find_leaf_highERPNS_16__tree_node_baseIPvEERKS6_
FNDA:1,_ZNSt3__127__tree_balance_after_insertIPNS_16__tree_node_baseIPvEEEEvT_S5_
FNDA:0,_ZNKSt3__115__tree_iteratorINS_12__value_typeINS_12basic_stringIcNS_11char_traitsIcEENS_9allocatorIcEEEEPN5Catch14IGeneratorInfoEEEPNS_11__tree_nodeISB_PvEElEdeEv
FNDA:4,_ZNSt3__16__treeINS_12__value_typeINS_12basic_stringIcNS_11char_traitsIcEENS_9allocatorIcEEEEPN5Catch18IGeneratorsForTestEEENS_19__map_value_compareIS7_SB_NS_4lessIS7_EELb1EEENS5_ISB_EEE15__insert_uniqueINS_4pairIS7_SA_EEEENSJ_INS_15__tree_iteratorISB_PNS_11__tree_nodeISB_PvEElEEbEEOT_
FNDA:11,_ZNSt3__16__treeINS_12__value_typeINS_12basic_stringIcNS_11char_traitsIcEENS_9allocatorIcEEEEN5Catch8TagAliasEEENS_19__map_value_compareIS7_SA_NS_4lessIS7_EELb1EEENS5_ISA_EEEC2ERKSE_
FNDA:6,_ZNSt3__122__tree_node_destructorINS_9allocatorINS_11__tree_nodeINS_12basic_stringIcNS_11char_traitsIcEENS1_IcEEEEPvEEEEEC2ERSA_b
FNDA:11,_ZNSt3__16__treeINS_12__value_typeINS_12basic_stringIcNS_11char_traitsIcEENS_9allocatorIcEEEEPN5Catch18IGeneratorsForTestEEENS_19__map_value_compareIS7_SB_NS_4lessIS7_EELb1EEENS5_ISB_EEEC2ERKSF_
FNDA:2,_ZNSt3__13mapINS_12basic_stringIcNS_11char_traitsIcEENS_9allocatorIcEEEEN5Catch7TagInfoENS_4lessIS6_EENS4_INS_4pairIKS6_S8_EEEEED1Ev
FNDA:42,_ZNSt3__1neERKNS_21__tree_const_iteratorINS_12__value_typeINS_12basic_stringIcNS_11char_traitsIcEENS_9allocatorIcEEEEN5Catch3PtrINS8_16IReporterFactoryEEEEEPNS_11__tree_nodeISC_PvEElEESJ_
FNDA:12,_ZNSt3__122__tree_node_destructorINS_9allocatorINS_11__tree_nodeINS_12__value_typeINS_12basic_stringIcNS_11char_traitsIcEENS1_IcEEEEPN5Catch18IGeneratorsForTestEEEPvEEEEEC1ERSF_b
FNDA:112,_ZNSt3__16__treeINS_12__value_typeINS_12basic_stringIcNS_11char_traitsIcEENS_9allocatorIcEEEEN5Catch7TagInfoEEENS_19__map_value_compareIS7_SA_NS_4lessIS7_EELb1EEENS5_ISA_EEE10__end_nodeEv
FNDA:11,_ZNSt3__16__treeINS_12__value_typeINS_12basic_stringIcNS_11char_traitsIcEENS_9allocatorIcEEEEN5Catch8TagAliasEEENS_19__map_value_compareIS7_SA_NS_4lessIS7_EELb1EEENS5_ISA_EEEC1ERKSE_
FNDA:28,_ZNSt3__115__tree_iteratorINS_12__value_typeINS_12basic_stringIcNS_11char_traitsIcEENS_9allocatorIcEEEEN5Catch7TagInfoEEEPNS_11__tree_nodeISA_PvEElEC2ESE_
FNDA:1,_ZNKSt3__121__tree_const_iteratorINS_12__value_typeINS_12basic_stringIcNS_11char_traitsIcEENS_9allocatorIcEEEEPN5Catch18IGeneratorsForTestEEEPNS_11__tree_nodeISB_PvEElEptEv
FNDA:4,_ZNSt3__16__treeINS_12__value_typeINS_12basic_stringIcNS_11char_traitsIcEENS_9allocatorIcEEEEN5Catch8TagAliasEEENS_19__map_value_compareIS7_SA_NS_4lessIS7_EELb1EEENS5_ISA_EEE20__node_insert_uniqueEPNS_11__tree_nodeISA_PvEE
FNDA:12,_ZNSt3__16__treeINS_12__value_typeINS_12basic_stringIcNS_11char_traitsIcEENS_9allocatorIcEEEEN5Catch3PtrINS8_16IReporterFactoryEEEEENS_19__map_value_compareIS7_SC_NS_4lessIS7_EELb1EEENS5_ISC_EEE12__node_allocEv
FNDA:12,_ZNSt3__122__tree_node_destructorINS_9allocatorINS_11__tree_nodeINS_12__value_typeINS_12basic_stringIcNS_11char_traitsIcEENS1_IcEEEEN5Catch3PtrINS9_16IReporterFactoryEEEEEPvEEEEEC1ERSG_b
FNDA:0,_ZNSt3__122__tree_node_destructorINS_9allocatorINS_11__tree_nodeINS_12__value_typeINS_12basic_stringIcNS_11char_traitsIcEENS1_IcEEEEN5Catch8TagAliasEEEPvEEEEEclEPSD_
FNDA:42,_ZNSt3__1neERKNS_21__tree_const_iteratorINS_12__value_typeIiN5Catch5Clara11CommandLineINS2_10ConfigDataEE3ArgEEEPNS_11__tree_nodeIS8_PvEElEESF_
FNDA:12,_ZNSt3__121__tree_const_iteratorINS_12__value_typeINS_12basic_stringIcNS_11char_traitsIcEENS_9allocatorIcEEEEPN5Catch14IGeneratorInfoEEEPNS_11__tree_nodeISB_PvEElEC1ENS_15__tree_iteratorISB_SF_lEE
FNDA:6,_ZNSt3__16__treeINS_12__value_typeINS_12basic_stringIcNS_11char_traitsIcEENS_9allocatorIcEEEEN5Catch3PtrINS8_16IReporterFactoryEEEEENS_19__map_value_compareIS7_SC_NS_4lessIS7_EELb1EEENS5_ISC_EEE7destroyEPNS_11__tree_nodeISC_PvEE
FNDA:4,_ZNSt3__16__treeINS_12__value_typeINS_12basic_stringIcNS_11char_traitsIcEENS_9allocatorIcEEEEN5Catch7TagInfoEEENS_19__map_value_compareIS7_SA_NS_4lessIS7_EELb1EEENS5_ISA_EEE20__node_insert_uniqueEPNS_11__tree_nodeISA_PvEE
FNDA:8,_ZNSt3__16__treeIN5Catch8TestCaseENS_4lessIS2_EENS_9allocatorIS2_EEE10value_compEv
FNDA:8,_ZNSt3__16__treeINS_12__value_typeINS_12basic_stringIcNS_11char_traitsIcEENS_9allocatorIcEEEEN5Catch8TagAliasEEENS_19__map_value_compareIS7_SA_NS_4lessIS7_EELb1EEENS5_ISA_EEE10value_compEv
FNDA:28,_ZNSt3__115__tree_iteratorINS_12__value_typeINS_12basic_stringIcNS_11char_traitsIcEENS_9allocatorIcEEEEPN5Catch18IGeneratorsForTestEEEPNS_11__tree_nodeISB_PvEElEC2ESF_
FNDA:6,_ZNSt3__122__tree_node_destructorINS_9allocatorINS_11__tree_nodeINS_12__value_typeINS_12basic_stringIcNS_11char_traitsIcEENS1_IcEEEEN5Catch8TagAliasEEEPvEEEEEC2ERSE_b
FNDA:0,_ZNSt3__111__tree_prevIPNS_16__tree_node_baseIPvEEEET_S5_
FNDA:6,_ZNSt3__16__treeINS_12basic_stringIcNS_11char_traitsIcEENS_9allocatorIcEEEENS_4lessIS6_EENS4_IS6_EEE7destroyEPNS_11__tree_nodeIS6_PvEE
FNDA:11,_ZNSt3__16__treeIN5Catch8TestCaseENS_4lessIS2_EENS_9allocatorIS2_EEEC1ERKS4_
FNDA:10,_ZNSt3__16__treeINS_12basic_stringIcNS_11char_traitsIcEENS_9allocatorIcEEEENS_4lessIS6_EENS4_IS6_EEE4sizeEv
FNDA:41,_ZNSt3__16__treeINS_12basic_stringIcNS_11char_traitsIcEENS_9allocatorIcEEEENS_4lessIS6_EENS4_IS6_EEED1Ev
FNDA:11,_ZNSt3__16__treeINS_12__value_typeINS_12basic_stringIcNS_11char_traitsIcEENS_9allocatorIcEEEEN5Catch7TagInfoEEENS_19__map_value_compareIS7_SA_NS_4lessIS7_EELb1EEENS5_ISA_EEEC1ERKSE_
FNDA:41,_ZNSt3__16__treeINS_12__value_typeINS_12basic_stringIcNS_11char_traitsIcEENS_9allocatorIcEEEEN5Catch8TagAliasEEENS_19__map_value_compareIS7_SA_NS_4lessIS7_EELb1EEENS5_ISA_EEED1Ev
FNDA:4,_ZNSt3__16__treeINS_12basic_stringIcNS_11char_traitsIcEENS_9allocatorIcEEEENS_4lessIS6_EENS4_IS6_EEE15__insert_uniqueIS6_EENS_4pairINS_15__tree_iteratorIS6_PNS_11__tree_nodeIS6_PvEElEEbEEOT_
FNDA:41,_ZNSt3__16__treeINS_12__value_typeINS_12basic_stringIcNS_11char_traitsIcEENS_9allocatorIcEEEEN5Catch7TagInfoEEENS_19__map_value_compareIS7_SA_NS_4lessIS7_EELb1EEENS5_ISA_EEED2Ev
FNDA:6,_ZNSt3__122__tree_node_destructorINS_9allocatorINS_11__tree_nodeINS_12__value_typeINS_12basic_stringIcNS_11char_traitsIcEENS1_IcEEEEPN5Catch18IGeneratorsForTestEEEPvEEEEEC2ERSF_b
FNDA:43,_ZNSt3__1eqERKNS_21__tree_const_iteratorINS_12__value_typeINS_12basic_stringIcNS_11char_traitsIcEENS_9allocatorIcEEEEN5Catch8TagAliasEEEPNS_11__tree_nodeISA_PvEElEESH_
FNDA:11,_ZNSt3__16__treeINS_12__value_typeINS_12basic_stringIcNS_11char_traitsIcEENS_9allocatorIcEEEEN5Catch3PtrINS8_16IReporterFactoryEEEEENS_19__map_value_compareIS7_SC_NS_4lessIS7_EELb1EEENS5_ISC_EEEC2ERKSG_
FNDA:4,_ZNSt3__16__treeINS_12__value_typeINS_12basic_stringIcNS_11char_traitsIcEENS_9allocatorIcEEEEN5Catch3PtrINS8_16IReporterFactoryEEEEENS_19__map_value_compareIS7_SC_NS_4lessIS7_EELb1EEENS5_ISC_EEE20__node_insert_uniqueEPNS_11__tree_nodeISC_PvEE
FNDA:36,_ZNKSt3__16__treeINS_12basic_stringIcNS_11char_traitsIcEENS_9allocatorIcEEEENS_4lessIS6_EENS4_IS6_EEE10value_compEv
FNDA:11,_ZNSt3__16__treeINS_12__value_typeINS_12basic_stringIcNS_11char_traitsIcEENS_9allocatorIcEEEEN5Catch7TagInfoEEENS_19__map_value_compareIS7_SA_NS_4lessIS7_EELb1EEENS5_ISA_EEEC2ERKSE_
FNDA:8,_ZNSt3__16__treeINS_12basic_stringIcNS_11char_traitsIcEENS_9allocatorIcEEEENS_4lessIS6_EENS4_IS6_EEE10value_compEv
FNDA:0,_ZNSt3__122__tree_node_destructorINS_9allocatorINS_11__tree_nodeINS_12__value_typeINS_12basic_stringIcNS_11char_traitsIcEENS1_IcEEEEPN5Catch14IGeneratorInfoEEEPvEEEEEclEPSE_
FNDA:6,_ZNSt3__16__treeINS_12basic_stringIcNS_11char_traitsIcEENS_9allocatorIcEEEENS_4lessIS6_EENS4_IS6_EEE16__insert_node_atEPNS_16__tree_node_baseIPvEERSE_SE_
FNDA:61,_ZNSt3__16__treeIN5Catch8TestCaseENS_4lessIS2_EENS_9allocatorIS2_EEE12__begin_nodeEv
FNDA:0,_ZNSt3__121__tree_const_iteratorINS_12basic_stringIcNS_11char_traitsIcEENS_9allocatorIcEEEEPNS_11__tree_nodeIS6_PvEElEmmEv
FNDA:6,_ZNSt3__16__treeINS_12__value_typeINS_12basic_stringIcNS_11char_traitsIcEENS_9allocatorIcEEEEN5Catch7TagInfoEEENS_19__map_value_compareIS7_SA_NS_4lessIS7_EELb1EEENS5_ISA_EEE16__insert_node_atEPNS_16__tree_node_baseIPvEERSK_SK_
FNDA:2,_ZNSt3__13mapINS_12basic_stringIcNS_11char_traitsIcEENS_9allocatorIcEEEEPN5Catch18IGeneratorsForTestENS_4lessIS6_EENS4_INS_4pairIKS6_S9_EEEEED2Ev
FNDA:10,_ZNSt3__16__treeINS_12__value_typeINS_12basic_stringIcNS_11char_traitsIcEENS_9allocatorIcEEEEN5Catch7TagInfoEEENS_19__map_value_compareIS7_SA_NS_4lessIS7_EELb1EEENS5_ISA_EEE4sizeEv
FNDA:12,_ZNSt3__16__treeINS_12__value_typeIiN5Catch5Clara11CommandLineINS2_10ConfigDataEE3ArgEEENS_19__map_value_compareIiS8_NS_4lessIiEELb1EEENS_9allocatorIS8_EEE12__node_allocEv
FNDA:2,_ZNSt3__16__treeINS_12basic_stringIcNS_11char_traitsIcEENS_9allocatorIcEEEENS_4lessIS6_EENS4_IS6_EEE14__assign_multiINS_21__tree_const_iteratorIS6_PNS_11__tree_nodeIS6_PvEElEEEEvT_SI_
FNDA:222,_ZNSt3__121__tree_const_iteratorINS_12__value_typeIiN5Catch5Clara11CommandLineINS2_10ConfigDataEE3ArgEEEPNS_11__tree_nodeIS8_PvEElEC2ESC_
FNDA:1,_ZNKSt3__16__treeINS_12__value_typeINS_12basic_stringIcNS_11char_traitsIcEENS_9allocatorIcEEEEN5Catch3PtrINS8_16IReporterFactoryEEEEENS_19__map_value_compareIS7_SC_NS_4lessIS7_EELb1EEENS5_ISC_EEE4findIS7_EENS_21__tree_const_iteratorISC_PNS_11__tree_nodeISC_PvEElEERKT_
FNDA:0,_ZNSt3__16__treeINS_12basic_stringIcNS_11char_traitsIcEENS_9allocatorIcEEEENS_4lessIS6_EENS4_IS6_EEE4swapERSA_
FNDA:0,_ZNKSt3__16__treeINS_12__value_typeINS_12basic_stringIcNS_11char_traitsIcEENS_9allocatorIcEEEEN5Catch7TagInfoEEENS_19__map_value_compareIS7_SA_NS_4lessIS7_EELb1EEENS5_ISA_EEE4sizeEv
FNDA:6,_ZNSt3__16__treeINS_12__value_typeINS_12basic_stringIcNS_11char_traitsIcEENS_9allocatorIcEEEEN5Catch3PtrINS8_16IReporterFactoryEEEEENS_19__map_value_compareIS7_SC_NS_4lessIS7_EELb1EEENS5_ISC_EEE16__construct_nodeIJNS_4pairIS7_SB_EEEEENS_10unique_ptrINS_11__tree_nodeISC_PvEENS_22__tree_node_destructorINS5_ISP_EEEEEEDpOT_
FNDA:43,_ZNSt3__1eqERKNS_21__tree_const_iteratorINS_12__value_typeINS_12basic_stringIcNS_11char_traitsIcEENS_9allocatorIcEEEEN5Catch7TagInfoEEEPNS_11__tree_nodeISA_PvEElEESH_
FNDA:0,_ZNSt3__16__treeINS_12basic_stringIcNS_11char_traitsIcEENS_9allocatorIcEEEENS_4lessIS6_EENS4_IS6_EEE12__swap_allocERNS4_INS_11__tree_nodeIS6_PvEEEESF_
FNDA:12,_ZNSt3__122__tree_node_destructorINS_9allocatorINS_11__tree_nodeINS_12__value_typeINS_12basic_stringIcNS_11char_traitsIcEENS1_IcEEEEPN5Catch14IGeneratorInfoEEEPvEEEEEC1ERSF_b
FNDA:2,_ZNSt3__13setIN5Catch8TestCaseENS_4lessIS2_EENS_9allocatorIS2_EEED1Ev
FNDA:1,_ZNSt3__119__tree_right_rotateIPNS_16__tree_node_baseIPvEEEEvT_
FNDA:6,_ZNSt3__16__treeINS_12__value_typeINS_12basic_stringIcNS_11char_traitsIcEENS_9allocatorIcEEEEPN5Catch14IGeneratorInfoEEENS_19__map_value_compareIS7_SB_NS_4lessIS7_EELb1EEENS5_ISB_EEE3endEv
FNDA:0,_ZNSt3__121__tree_const_iteratorINS_12basic_stringIcNS_11char_traitsIcEENS_9allocatorIcEEEEPNS_11__tree_nodeIS6_PvEElEppEv
FNDA:82,_ZNSt3__115__tree_end_nodeIPNS_16__tree_node_baseIPvEEEC2Ev
FNDA:2,_ZNSt3__16__treeINS_12basic_stringIcNS_11char_traitsIcEENS_9allocatorIcEEEENS_4lessIS6_EENS4_IS6_EEE19__copy_assign_allocERKSA_NS_17integral_constantIbLb0EEE
FNDA:73,_ZNKSt3__16__treeINS_12__value_typeINS_12basic_stringIcNS_11char_traitsIcEENS_9allocatorIcEEEEN5Catch3PtrINS8_16IReporterFactoryEEEEENS_19__map_value_compareIS7_SC_NS_4lessIS7_EELb1EEENS5_ISC_EEE3endEv
FNDA:73,_ZNKSt3__16__treeINS_12basic_stringIcNS_11char_traitsIcEENS_9allocatorIcEEEENS_4lessIS6_EENS4_IS6_EEE3endEv
FNDA:12,_ZNSt3__121__tree_const_iteratorINS_12__value_typeINS_12basic_stringIcNS_11char_traitsIcEENS_9allocatorIcEEEEN5Catch7TagInfoEEEPNS_11__tree_nodeISA_PvEElEC2ENS_15__tree_iteratorISA_SE_lEE
FNDA:0,_ZNSt3__122__tree_node_destructorINS_9allocatorINS_11__tree_nodeINS_12__value_typeINS_12basic_stringIcNS_11char_traitsIcEENS1_IcEEEEN5Catch7TagInfoEEEPvEEEEEclEPSD_
FNDA:1,_ZNKSt3__121__tree_const_iteratorINS_12__value_typeIiN5Catch5Clara11CommandLineINS2_10ConfigDataEE3ArgEEEPNS_11__tree_nodeIS8_PvEElEdeEv
FNDA:28,_ZNSt3__115__tree_iteratorIN5Catch8TestCaseEPNS_11__tree_nodeIS2_PvEElEC1ES6_
FNDA:41,_ZNSt3__16__treeINS_12__value_typeIiN5Catch5Clara11CommandLineINS2_10ConfigDataEE3ArgEEENS_19__map_value_compareIiS8_NS_4lessIiEELb1EEENS_9allocatorIS8_EEED2Ev
FNDA:2,_ZNSt3__16__treeINS_12__value_typeINS_12basic_stringIcNS_11char_traitsIcEENS_9allocatorIcEEEEN5Catch7TagInfoEEENS_19__map_value_compareIS7_SA_NS_4lessIS7_EELb1EEENS5_ISA_EEE12__find_equalISA_EERPNS_16__tree_node_baseIPvEESM_RKT_
FNDA:6,_ZNSt3__16__treeINS_12__value_typeINS_12basic_stringIcNS_11char_traitsIcEENS_9allocatorIcEEEEN5Catch7TagInfoEEENS_19__map_value_compareIS7_SA_NS_4lessIS7_EELb1EEENS5_ISA_EEE3endEv
FNDA:4,_ZNSt3__16__treeINS_12__value_typeINS_12basic_stringIcNS_11char_traitsIcEENS_9allocatorIcEEEEPN5Catch18IGeneratorsForTestEEENS_19__map_value_compareIS7_SB_NS_4lessIS7_EELb1EEENS5_ISB_EEE20__node_insert_uniqueEPNS_11__tree_nodeISB_PvEE
FNDA:28,_ZNSt3__115__tree_iteratorINS_12basic_stringIcNS_11char_traitsIcEENS_9allocatorIcEEEEPNS_11__tree_nodeIS6_PvEElEC1ESA_
FNDA:30,_ZNKSt3__16__treeINS_12basic_stringIcNS_11char_traitsIcEENS_9allocatorIcEEEENS_4lessIS6_EENS4_IS6_EEE12__node_allocEv
FNDA:0,_ZNSt3__121__tree_const_iteratorINS_12__value_typeINS_12basic_stringIcNS_11char_traitsIcEENS_9allocatorIcEEEEN5Catch8TagAliasEEEPNS_11__tree_nodeISA_PvEElEppEv
FNDA:1,_ZNKSt3__121__tree_const_iteratorIN5Catch8TestCaseEPNS_11__tree_nodeIS2_PvEElEptEv
FNDA:2,_ZNSt3__16__treeINS_12__value_typeINS_12basic_stringIcNS_11char_traitsIcEENS_9allocatorIcEEEEN5Catch7TagInfoEEENS_19__map_value_compareIS7_SA_NS_4lessIS7_EELb1EEENS5_ISA_EEE4findIS7_EENS_15__tree_iteratorISA_PNS_11__tree_nodeISA_PvEElEERKT_
FNDA:12,_ZNSt3__122__tree_node_destructorINS_9allocatorINS_11__tree_nodeINS_12__value_typeINS_12basic_stringIcNS_11char_traitsIcEENS1_IcEEEEN5Catch7TagInfoEEEPvEEEEEC1ERSE_b
FNDA:28,_ZNSt3__115__tree_iteratorINS_12__value_typeINS_12basic_stringIcNS_11char_traitsIcEENS_9allocatorIcEEEEPN5Catch14IGeneratorInfoEEEPNS_11__tree_nodeISB_PvEElEC1ESF_
FNDA:1,_ZNKSt3__16__treeINS_12__value_typeIiN5Catch5Clara11CommandLineINS2_10ConfigDataEE3ArgEEENS_19__map_value_compareIiS8_NS_4lessIiEELb1EEENS_9allocatorIS8_EEE13__lower_boundIiEENS_21__tree_const_iteratorIS8_PNS_11__tree_nodeIS8_PvEElEERKT_SL_SL_
FNDA:3,_ZNKSt3__16__treeINS_12__value_typeINS_12basic_stringIcNS_11char_traitsIcEENS_9allocatorIcEEEEN5Catch3PtrINS8_16IReporterFactoryEEEEENS_19__map_value_compareIS7_SC_NS_4lessIS7_EELb1EEENS5_ISC_EEE6__rootEv
FNDA:0,_ZNSt3__121__tree_const_iteratorINS_12__value_typeINS_12basic_stringIcNS_11char_traitsIcEENS_9allocatorIcEEEEN5Catch3PtrINS8_16IReporterFactoryEEEEEPNS_11__tree_nodeISC_PvEElEppEv
FNDA:0,_ZNSt3__122__tree_node_destructorINS_9allocatorINS_11__tree_nodeINS_12basic_stringIcNS_11char_traitsIcEENS1_IcEEEEPvEEEEEclEPS9_
FNDA:222,_ZNSt3__121__tree_const_iteratorINS_12__value_typeINS_12basic_stringIcNS_11char_traitsIcEENS_9allocatorIcEEEEN5Catch3PtrINS8_16IReporterFactoryEEEEEPNS_11__tree_nodeISC_PvEElEC1ESG_
FNDA:43,_ZNSt3__1eqERKNS_21__tree_const_iteratorINS_12__value_typeINS_12basic_stringIcNS_11char_traitsIcEENS_9allocatorIcEEEEN5Catch3PtrINS8_16IReporterFactoryEEEEEPNS_11__tree_nodeISC_PvEElEESJ_
FNDA:35,_ZNKSt3__16__treeINS_12__value_typeINS_12basic_stringIcNS_11char_traitsIcEENS_9allocatorIcEEEEN5Catch3PtrINS8_16IReporterFactoryEEEEENS_19__map_value_compareIS7_SC_NS_4lessIS7_EELb1EEENS5_ISC_EEE5beginEv
FNDA:43,_ZNSt3__1eqERKNS_21__tree_const_iteratorINS_12__value_typeINS_12basic_stringIcNS_11char_traitsIcEENS_9allocatorIcEEEEPN5Catch18IGeneratorsForTestEEEPNS_11__tree_nodeISB_PvEElEESI_
FNDA:0,_ZNSt3__16__treeINS_12basic_stringIcNS_11char_traitsIcEENS_9allocatorIcEEEENS_4lessIS6_EENS4_IS6_EEE14__insert_multiERKS6_
FNDA:112,_ZNSt3__16__treeINS_12__value_typeINS_12basic_stringIcNS_11char_traitsIcEENS_9allocatorIcEEEEN5Catch3PtrINS8_16IReporterFactoryEEEEENS_19__map_value_compareIS7_SC_NS_4lessIS7_EELb1EEENS5_ISC_EEE10__end_nodeEv
FNDA:12,_ZNSt3__121__tree_const_iteratorIN5Catch8TestCaseEPNS_11__tree_nodeIS2_PvEElEC2ENS_15__tree_iteratorIS2_S6_lEE
FNDA:2,_ZNSt3__16__treeINS_12__value_typeINS_12basic_stringIcNS_11char_traitsIcEENS_9allocatorIcEEEEPN5Catch18IGeneratorsForTestEEENS_19__map_value_compareIS7_SB_NS_4lessIS7_EELb1EEENS5_ISB_EEE4findIS7_EENS_15__tree_iteratorISB_PNS_11__tree_nodeISB_PvEElEERKT_
FNDA:12,_ZNSt3__16__treeINS_12basic_stringIcNS_11char_traitsIcEENS_9allocatorIcEEEENS_4lessIS6_EENS4_IS6_EEE12__node_allocEv
FNDA:35,_ZNKSt3__16__treeINS_12__value_typeINS_12basic_stringIcNS_11char_traitsIcEENS_9allocatorIcEEEEN5Catch3PtrINS8_16IReporterFactoryEEEEENS_19__map_value_compareIS7_SC_NS_4lessIS7_EELb1EEENS5_ISC_EEE12__begin_nodeEv
FNDA:61,_ZNSt3__16__treeINS_12__value_typeINS_12basic_stringIcNS_11char_traitsIcEENS_9allocatorIcEEEEPN5Catch14IGeneratorInfoEEENS_19__map_value_compareIS7_SB_NS_4lessIS7_EELb1EEENS5_ISB_EEE12__begin_nodeEv
FNDA:6,_ZNSt3__16__treeINS_12__value_typeINS_12basic_stringIcNS_11char_traitsIcEENS_9allocatorIcEEEEN5Catch7TagInfoEEENS_19__map_value_compareIS7_SA_NS_4lessIS7_EELb1EEENS5_ISA_EEE16__construct_nodeIJNS_4pairIS7_S9_EEEEENS_10unique_ptrINS_11__tree_nodeISA_PvEENS_22__tree_node_destructorINS5_ISN_EEEEEEDpOT_
FNDA:79,_ZNKSt3__16__treeINS_12basic_stringIcNS_11char_traitsIcEENS_9allocatorIcEEEENS_4lessIS6_EENS4_IS6_EEE10__end_nodeEv
FNDA:41,_ZNSt3__16__treeIN5Catch8TestCaseENS_4lessIS2_EENS_9allocatorIS2_EEED1Ev
FNDA:2,_ZNSt3__16__treeINS_12basic_stringIcNS_11char_traitsIcEENS_9allocatorIcEEEENS_4lessIS6_EENS4_IS6_EEE19__copy_assign_allocERKSA_
FNDA:0,_ZNSt3__122__tree_node_destructorINS_9allocatorINS_11__tree_nodeINS_12__value_typeINS_12basic_stringIcNS_11char_traitsIcEENS1_IcEEEEN5Catch3PtrINS9_16IReporterFactoryEEEEEPvEEEEEclEPSF_
FNDA:61,_ZNSt3__16__treeINS_12__value_typeINS_12basic_stringIcNS_11char_traitsIcEENS_9allocatorIcEEEEN5Catch3PtrINS8_16IReporterFactoryEEEEENS_19__map_value_compareIS7_SC_NS_4lessIS7_EELb1EEENS5_ISC_EEE12__begin_nodeEv
FNDA:0,_ZNSt3__110__tree_maxIPNS_16__tree_node_baseIPvEEEET_S5_
FNDA:28,_ZNSt3__115__tree_iteratorINS_12__value_typeINS_12basic_stringIcNS_11char_traitsIcEENS_9allocatorIcEEEEN5Catch3PtrINS8_16IReporterFactoryEEEEEPNS_11__tree_nodeISC_PvEElEC2ESG_
FNDA:4,_ZNSt3__16__treeINS_12__value_typeINS_12basic_stringIcNS_11char_traitsIcEENS_9allocatorIcEEEEPN5Catch14IGeneratorInfoEEENS_19__map_value_compareIS7_SB_NS_4lessIS7_EELb1EEENS5_ISB_EEE15__insert_uniqueINS_4pairIS7_SA_EEEENSJ_INS_15__tree_iteratorISB_PNS_11__tree_nodeISB_PvEElEEbEEOT_
FNDA:0,_ZNSt3__16__treeINS_12basic_stringIcNS_11char_traitsIcEENS_9allocatorIcEEEENS_4lessIS6_EENS4_IS6_EEE8__detachEv
FNDA:41,_ZNSt3__16__treeINS_12__value_typeINS_12basic_stringIcNS_11char_traitsIcEENS_9allocatorIcEEEEN5Catch7TagInfoEEENS_19__map_value_compareIS7_SA_NS_4lessIS7_EELb1EEENS5_ISA_EEED1Ev
FNDA:0,_ZNSt3__16__treeINS_12basic_stringIcNS_11char_traitsIcEENS_9allocatorIcEEEENS_4lessIS6_EENS4_IS6_EEE8__detachEPNS_11__tree_nodeIS6_PvEE
FNDA:12,_ZNSt3__122__tree_node_destructorINS_9allocatorINS_11__tree_nodeINS_12basic_stringIcNS_11char_traitsIcEENS1_IcEEEEPvEEEEEC1ERSA_b
FNDA:0,_ZNSt3__110__tree_minIPNS_16__tree_node_baseIPvEEEET_S5_
FNDA:2,_ZNSt3__16__treeINS_12__value_typeINS_12basic_stringIcNS_11char_traitsIcEENS_9allocatorIcEEEEN5Catch3PtrINS8_16IReporterFactoryEEEEENS_19__map_value_compareIS7_SC_NS_4lessIS7_EELb1EEENS5_ISC_EEE12__find_equalISC_EERPNS_16__tree_node_baseIPvEESO_RKT_
FNDA:6,_ZNSt3__16__treeINS_12__value_typeINS_12basic_stringIcNS_11char_traitsIcEENS_9allocatorIcEEEEN5Catch3PtrINS8_16IReporterFactoryEEEEENS_19__map_value_compareIS7_SC_NS_4lessIS7_EELb1EEENS5_ISC_EEE16__insert_node_atEPNS_16__tree_node_baseIPvEERSM_SM_
FNDA:0,_ZNKSt3__16__treeINS_12__value_typeINS_12basic_stringIcNS_11char_traitsIcEENS_9allocatorIcEEEEN5Catch3PtrINS8_16IReporterFactoryEEEEENS_19__map_value_compareIS7_SC_NS_4lessIS7_EELb1EEENS5_ISC_EEE4sizeEv
FNDA:36,_ZNKSt3__16__treeINS_12__value_typeIiN5Catch5Clara11CommandLineINS2_10ConfigDataEE3ArgEEENS_19__map_value_compareIiS8_NS_4lessIiEELb1EEENS_9allocatorIS8_EEE10value_compEv
FNDA:0,_ZNSt3__16__treeINS_12basic_stringIcNS_11char_traitsIcEENS_9allocatorIcEEEENS_4lessIS6_EENS4_IS6_EEE5beginEv
FNDA:28,_ZNSt3__115__tree_iteratorINS_12__value_typeINS_12basic_stringIcNS_11char_traitsIcEENS_9allocatorIcEEEEN5Catch8TagAliasEEEPNS_11__tree_nodeISA_PvEElEC2ESE_
FNF:301
FNH:259
DA:60,4
DA:126,0
DA:127,0
DA:128,0
DA:138,0
DA:139,0
DA:140,0
DA:149,0
DA:150,0
DA:151,0
DA:152,0
DA:153,0
DA:154,0
DA:162,0
DA:163,0
DA:164,0
DA:165,0
DA:166,0
DA:167,0
DA:175,0
DA:177,0
DA:179,0
DA:180,0
DA:182,0
DA:184,0
DA:185,0
DA:187,0
DA:189,0
DA:199,0
DA:200,0
DA:201,0
DA:202,0
DA:203,0
DA:204,0
DA:205,0
DA:207,0
DA:208,0
DA:209,0
DA:210,0
DA:219,1
DA:220,1
DA:221,1
DA:222,0
DA:223,1
DA:224,1
DA:225,1
DA:227,0
DA:228,1
DA:229,1
DA:230,1
DA:244,6
DA:245,25
DA:248,2
DA:250,2
DA:251,3
DA:253,1
DA:254,1
DA:255,1
DA:256,1
DA:257,1
DA:258,1
DA:261,1
DA:263,0
DA:264,0
DA:265,0
DA:266,1
DA:267,1
DA:268,1
DA:269,1
DA:270,1
DA:271,1
DA:273,1
DA:276,0
DA:277,0
DA:279,0
DA:280,0
DA:281,0
DA:282,0
DA:283,0
DA:284,0
DA:287,0
DA:289,0
DA:290,0
DA:291,0
DA:292,0
DA:293,0
DA:294,0
DA:295,0
DA:296,0
DA:297,0
DA:301,6
DA:518,6
DA:519,6
DA:520,12
DA:525,0
DA:526,0
DA:527,0
DA:528,0
DA:529,0
DA:544,82
DA:642,0
DA:644,0
DA:664,2
DA:667,2
DA:671,28
DA:675,2
DA:677,2
DA:715,0
DA:731,12
DA:733,1
DA:735,1
DA:739,0
DA:740,0
DA:747,0
DA:748,0
DA:755,43
DA:758,42
DA:763,222
DA:826,112
DA:828,112
DA:834,79
DA:836,79
DA:840,12
DA:844,30
DA:846,61
DA:848,35
DA:855,10
DA:858,0
DA:860,8
DA:863,36
DA:867,51
DA:870,3
DA:875,11
DA:903,0
DA:905,35
DA:907,6
DA:909,73
DA:1060,2
DA:1061,2
DA:1067,2
DA:1094,0
DA:1095,0
DA:1106,0
DA:1111,2
DA:1120,11
DA:1121,11
DA:1122,11
DA:1123,22
DA:1149,0
DA:1150,0
DA:1151,0
DA:1152,0
DA:1153,0
DA:1155,0
DA:1156,0
DA:1159,0
DA:1170,0
DA:1171,0
DA:1172,0
DA:1174,0
DA:1175,0
DA:1176,0
DA:1177,0
DA:1178,0
DA:1181,0
DA:1182,0
DA:1183,0
DA:1184,0
DA:1185,0
DA:1186,0
DA:1192,2
DA:1194,2
DA:1195,2
DA:1196,2
DA:1197,2
DA:1198,2
DA:1246,2
DA:1248,0
DA:1253,0
DA:1255,0
DA:1256,0
DA:1257,0
DA:1258,0
DA:1259,0
DA:1261,0
DA:1264,0
DA:1265,0
DA:1266,0
DA:1267,0
DA:1268,0
DA:1270,0
DA:1272,0
DA:1273,0
DA:1274,0
DA:1275,0
DA:1276,0
DA:1277,4
DA:1278,0
DA:1279,2
DA:1283,30
DA:1284,30
DA:1285,30
DA:1286,30
DA:1287,30
DA:1288,60
DA:1297,0
DA:1298,0
DA:1299,0
DA:1300,0
DA:1301,0
DA:1302,0
DA:1305,0
DA:1306,0
DA:1307,0
DA:1308,0
DA:1310,0
DA:1424,41
DA:1425,41
DA:1426,82
DA:1432,55
DA:1434,6
DA:1435,6
DA:1436,6
DA:1437,6
DA:1438,6
DA:1439,6
DA:1440,55
DA:1451,0
DA:1452,0
DA:1453,0
DA:1454,0
DA:1455,0
DA:1456,0
DA:1458,0
DA:1459,0
DA:1460,0
DA:1462,0
DA:1463,0
DA:1469,2
DA:1470,2
DA:1471,2
DA:1472,2
DA:1473,2
DA:1522,0
DA:1523,0
DA:1525,0
DA:1527,0
DA:1529,0
DA:1530,0
DA:1533,0
DA:1534,0
DA:1536,0
DA:1539,0
DA:1540,0
DA:1543,0
DA:1544,0
DA:1549,0
DA:1550,0
DA:1551,0
DA:1600,6
DA:1601,6
DA:1603,6
DA:1605,6
DA:1607,6
DA:1608,2
DA:1611,4
DA:1612,4
DA:1614,2
DA:1615,0
DA:1617,0
DA:1618,0
DA:1621,0
DA:1622,0
DA:1624,0
DA:1627,0
DA:1628,0
DA:1632,2
DA:1633,2
DA:1634,6
DA:1650,0
DA:1653,0
DA:1654,0
DA:1657,0
DA:1659,0
DA:1660,0
DA:1664,0
DA:1665,0
DA:1669,0
DA:1671,0
DA:1674,0
DA:1675,0
DA:1678,0
DA:1680,0
DA:1681,0
DA:1685,0
DA:1686,0
DA:1690,0
DA:1693,0
DA:1694,0
DA:1695,0
DA:1703,6
DA:1704,6
DA:1705,6
DA:1706,6
DA:1707,6
DA:1708,6
DA:1709,6
DA:1710,6
DA:1711,6
DA:1721,6
DA:1722,6
DA:1723,6
DA:1724,6
DA:1725,6
DA:1726,12
DA:1796,4
DA:1797,8
DA:1798,4
DA:1799,4
DA:1801,4
DA:1859,2
DA:1860,2
DA:1861,2
DA:1862,2
DA:1864,2
DA:1865,2
DA:1866,2
DA:1867,2
DA:1868,2
DA:1869,2
DA:1870,0
DA:1877,0
DA:1878,0
DA:1879,0
DA:1881,0
DA:1882,0
DA:1883,0
DA:1884,0
DA:1885,0
DA:1886,0
DA:1893,0
DA:1894,0
DA:1895,0
DA:1896,0
DA:1897,0
DA:1915,4
DA:1916,4
DA:1917,4
DA:1918,4
DA:1920,4
DA:1921,4
DA:1922,4
DA:1923,4
DA:1924,4
DA:1948,0
DA:1949,0
DA:1950,0
DA:2020,2
DA:2021,2
DA:2022,0
DA:2023,2
DA:2024,2
DA:2031,3
DA:2032,4
DA:2033,1
DA:2034,2
DA:2035,3
DA:2092,4
DA:2094,0
DA:2096,0
DA:2097,0
DA:2098,0
DA:2100,0
DA:2102,2
DA:2112,12
DA:2114,3
DA:2116,2
DA:2117,2
DA:2118,2
DA:2120,1
DA:2122,3
LF:381
LH:170
end_of_record
TN:
SF:/Applications/Xcode.app/Contents/Developer/Toolchains/XcodeDefault.xctoolchain/usr/include/c++/v1/algorithm
FN:702,_ZNKSt3__16__lessImmEclERKmS3_
FN:702,_ZNKSt3__16__lessIllEclERKlS3_
FN:702,_ZNKSt3__16__lessIPcS1_EclERKS1_S4_
FN:862,_ZNSt3__14findINS_11__wrap_iterIPKNS_12basic_stringIcNS_11char_traitsIcEENS_9allocatorIcEEEEEES7_EET_SB_SB_RKT0_
FN:862,_ZNSt3__14findINS_11__wrap_iterIPN5Catch11MessageInfoEEES3_EET_S6_S6_RKT0_
FN:875,_ZNSt3__17find_ifINS_11__wrap_iterIPN5Catch3PtrINS2_16TestCaseTracking8ITrackerEEEEENS4_11TrackerBase14TrackerHasNameEEET_SB_SB_T0_
FN:875,_ZNSt3__17find_ifINS_11__wrap_iterIPN5Catch3PtrINS2_22CumulativeReporterBase11SectionNodeEEEEENS4_13BySectionInfoEEET_SA_SA_T0_
FN:981,_ZNSt3__110__find_endIPFbccEPKcS4_EET0_S5_S5_T1_S6_T_NS_26random_access_iterator_tagES8_
FN:1456,_ZNSt3__18__searchIPFbccEPKcS4_EET0_S5_S5_T1_S6_T_NS_26random_access_iterator_tagES8_
FN:1712,_ZNSt3__113__unwrap_iterIPN5Catch11MessageInfoEEET_S4_
FN:1881,_ZNSt3__16__moveIPN5Catch11MessageInfoES3_EET0_T_S5_S4_
FN:1906,_ZNSt3__14moveIPN5Catch11MessageInfoES3_EET0_T_S5_S4_
FN:1957,_ZNSt3__19transformINS_11__wrap_iterIPcEES3_PFiiEEET0_T_S7_S6_T1_
FN:2123,_ZNSt3__16removeINS_11__wrap_iterIPN5Catch11MessageInfoEEES3_EET_S6_S6_RKT0_
FN:2581,_ZNSt3__13minImNS_6__lessImmEEEERKT_S5_S5_T0_
FN:2589,_ZNSt3__13minImEERKT_S3_S3_
FN:2654,_ZNSt3__13maxImNS_6__lessImmEEEERKT_S5_S5_T0_
FN:2654,_ZNSt3__13maxIPcNS_6__lessIS1_S1_EEEERKT_S6_S6_T0_
FN:2654,_ZNSt3__13maxIlNS_6__lessIllEEEERKT_S5_S5_T0_
FN:2662,_ZNSt3__13maxImEERKT_S3_S3_
FN:2662,_ZNSt3__13maxIPcEERKT_S4_S4_
FN:2662,_ZNSt3__13maxIlEERKT_S3_S3_
FN:3109,_ZNSt3__114random_shuffleINS_11__wrap_iterIPN5Catch8TestCaseEEERNS2_21RandomNumberGeneratorEEEvT_S8_OT0_
FN:3609,_ZNSt3__17__sort3IRN5Catch7LexSortEPNS1_8TestCaseEEEjT0_S6_S6_T_
FN:3646,_ZNSt3__17__sort4IRN5Catch7LexSortEPNS1_8TestCaseEEEjT0_S6_S6_S6_T_
FN:3672,_ZNSt3__17__sort5IRN5Catch7LexSortEPNS1_8TestCaseEEEjT0_S6_S6_S6_S6_T_
FN:3736,_ZNSt3__118__insertion_sort_3IRN5Catch7LexSortEPNS1_8TestCaseEEEvT0_S6_T_
FN:3761,_ZNSt3__127__insertion_sort_incompleteIRN5Catch7LexSortEPNS1_8TestCaseEEEbT0_S6_T_
FN:3845,_ZNSt3__16__sortIRN5Catch7LexSortEPNS1_8TestCaseEEEvT0_S6_T_
FN:4040,_ZNSt3__14sortIPN5Catch8TestCaseERNS1_7LexSortEEEvT_S6_T0_
FN:4079,_ZNSt3__14sortIN5Catch8TestCaseENS1_7LexSortEEEvNS_11__wrap_iterIPT_EES7_T0_
FNDA:0,_ZNSt3__14findINS_11__wrap_iterIPKNS_12basic_stringIcNS_11char_traitsIcEENS_9allocatorIcEEEEEES7_EET_SB_SB_RKT0_
FNDA:0,_ZNSt3__17__sort4IRN5Catch7LexSortEPNS1_8TestCaseEEEjT0_S6_S6_S6_T_
FNDA:0,_ZNSt3__16__moveIPN5Catch11MessageInfoES3_EET0_T_S5_S4_
FNDA:93,_ZNSt3__13maxIPcNS_6__lessIS1_S1_EEEERKT_S6_S6_T0_
FNDA:93,_ZNSt3__13maxImNS_6__lessImmEEEERKT_S5_S5_T0_
FNDA:2,_ZNSt3__17find_ifINS_11__wrap_iterIPN5Catch3PtrINS2_16TestCaseTracking8ITrackerEEEEENS4_11TrackerBase14TrackerHasNameEEET_SB_SB_T0_
FNDA:31,_ZNSt3__13maxImEERKT_S3_S3_
FNDA:77,_ZNSt3__13minImEERKT_S3_S3_
FNDA:31,_ZNSt3__13maxIPcEERKT_S4_S4_
FNDA:0,_ZNSt3__110__find_endIPFbccEPKcS4_EET0_S5_S5_T1_S6_T_NS_26random_access_iterator_tagES8_
FNDA:0,_ZNSt3__14sortIN5Catch8TestCaseENS1_7LexSortEEEvNS_11__wrap_iterIPT_EES7_T0_
FNDA:0,_ZNSt3__113__unwrap_iterIPN5Catch11MessageInfoEEET_S4_
FNDA:1,_ZNSt3__19transformINS_11__wrap_iterIPcEES3_PFiiEEET0_T_S7_S6_T1_
FNDA:93,_ZNSt3__13maxIlNS_6__lessIllEEEERKT_S5_S5_T0_
FNDA:0,_ZNSt3__16removeINS_11__wrap_iterIPN5Catch11MessageInfoEEES3_EET_S6_S6_RKT0_
FNDA:0,_ZNSt3__17__sort5IRN5Catch7LexSortEPNS1_8TestCaseEEEjT0_S6_S6_S6_S6_T_
FNDA:0,_ZNSt3__127__insertion_sort_incompleteIRN5Catch7LexSortEPNS1_8TestCaseEEEbT0_S6_T_
FNDA:0,_ZNSt3__17__sort3IRN5Catch7LexSortEPNS1_8TestCaseEEEjT0_S6_S6_T_
FNDA:0,_ZNSt3__114random_shuffleINS_11__wrap_iterIPN5Catch8TestCaseEEERNS2_21RandomNumberGeneratorEEEvT_S8_OT0_
FNDA:108,_ZNKSt3__16__lessIllEclERKlS3_
FNDA:0,_ZNSt3__14moveIPN5Catch11MessageInfoES3_EET0_T_S5_S4_
FNDA:108,_ZNKSt3__16__lessImmEclERKmS3_
FNDA:31,_ZNSt3__13maxIlEERKT_S3_S3_
FNDA:231,_ZNSt3__13minImNS_6__lessImmEEEERKT_S5_S5_T0_
FNDA:2,_ZNSt3__17find_ifINS_11__wrap_iterIPN5Catch3PtrINS2_22CumulativeReporterBase11SectionNodeEEEEENS4_13BySectionInfoEEET_SA_SA_T0_
FNDA:0,_ZNSt3__118__insertion_sort_3IRN5Catch7LexSortEPNS1_8TestCaseEEEvT0_S6_T_
FNDA:52,_ZNSt3__18__searchIPFbccEPKcS4_EET0_S5_S5_T1_S6_T_NS_26random_access_iterator_tagES8_
FNDA:0,_ZNSt3__14findINS_11__wrap_iterIPN5Catch11MessageInfoEEES3_EET_S6_S6_RKT0_
FNDA:108,_ZNKSt3__16__lessIPcS1_EclERKS1_S4_
FNDA:0,_ZNSt3__16__sortIRN5Catch7LexSortEPNS1_8TestCaseEEEvT0_S6_T_
FNDA:0,_ZNSt3__14sortIPN5Catch8TestCaseERNS1_7LexSortEEEvT_S6_T0_
FNF:31
FNH:15
DA:702,108
DA:864,0
DA:865,0
DA:866,0
DA:867,0
DA:877,4
DA:878,0
DA:879,0
DA:880,2
DA:986,0
DA:987,0
DA:988,0
DA:989,0
DA:990,0
DA:991,0
DA:992,0
DA:993,0
DA:994,0
DA:995,0
DA:996,0
DA:998,0
DA:1000,0
DA:1001,0
DA:1002,0
DA:1003,0
DA:1005,0
DA:1006,0
DA:1007,0
DA:1009,0
DA:1010,0
DA:1012,0
DA:1014,0
DA:1018,0
DA:1463,52
DA:1464,52
DA:1465,0
DA:1466,52
DA:1467,52
DA:1468,0
DA:1469,52
DA:1470,52
DA:1473,202
DA:1475,202
DA:1476,52
DA:1477,150
DA:1478,0
DA:1479,150
DA:1512,0
DA:1513,0
DA:1515,0
DA:1517,0
DA:1518,0
DA:1519,0
DA:1520,0
DA:1522,0
DA:1523,0
DA:1564,52
DA:1714,0
DA:1883,0
DA:1884,0
DA:1885,0
DA:1908,0
DA:1959,4
DA:1960,1
DA:1961,1
DA:2125,0
DA:2126,0
DA:2128,0
DA:2129,0
DA:2131,0
DA:2133,0
DA:2134,0
DA:2135,0
DA:2137,0
DA:2138,0
DA:2583,231
DA:2591,77
DA:2656,93
DA:2664,31
DA:3117,0
DA:3118,0
DA:3120,0
DA:3122,0
DA:3123,0
DA:3124,0
DA:3125,0
DA:3126,0
DA:3611,0
DA:3612,0
DA:3614,0
DA:3615,0
DA:3617,0
DA:3618,0
DA:3619,0
DA:3621,0
DA:3622,0
DA:3623,0
DA:3624,0
DA:3626,0
DA:3628,0
DA:3629,0
DA:3630,0
DA:3632,0
DA:3633,0
DA:3634,0
DA:3636,0
DA:3637,0
DA:3638,0
DA:3639,0
DA:3640,0
DA:3649,0
DA:3650,0
DA:3652,0
DA:3653,0
DA:3654,0
DA:3656,0
DA:3657,0
DA:3658,0
DA:3660,0
DA:3661,0
DA:3662,0
DA:3663,0
DA:3664,0
DA:3665,0
DA:3666,0
DA:3675,0
DA:3676,0
DA:3678,0
DA:3679,0
DA:3680,0
DA:3682,0
DA:3683,0
DA:3684,0
DA:3686,0
DA:3687,0
DA:3688,0
DA:3690,0
DA:3691,0
DA:3692,0
DA:3693,0
DA:3694,0
DA:3695,0
DA:3696,0
DA:3697,0
DA:3739,0
DA:3740,0
DA:3741,0
DA:3743,0
DA:3745,0
DA:3746,0
DA:3747,0
DA:3748,0
DA:3750,0
DA:3751,0
DA:3752,0
DA:3753,0
DA:3754,0
DA:3755,0
DA:3756,0
DA:3757,0
DA:3763,0
DA:3767,0
DA:3769,0
DA:3770,0
DA:3771,0
DA:3773,0
DA:3774,0
DA:3776,0
DA:3777,0
DA:3779,0
DA:3780,0
DA:3783,0
DA:3784,0
DA:3785,0
DA:3786,0
DA:3787,0
DA:3789,0
DA:3791,0
DA:3792,0
DA:3793,0
DA:3794,0
DA:3796,0
DA:3797,0
DA:3798,0
DA:3799,0
DA:3800,0
DA:3801,0
DA:3802,0
DA:3803,0
DA:3804,0
DA:3805,0
DA:3806,0
DA:3850,0
DA:3852,0
DA:3853,0
DA:3855,0
DA:3856,0
DA:3860,0
DA:3862,0
DA:3863,0
DA:3864,0
DA:3866,0
DA:3867,0
DA:3869,0
DA:3870,0
DA:3872,0
DA:3873,0
DA:3875,0
DA:3877,0
DA:3878,0
DA:3881,0
DA:3882,0
DA:3883,0
DA:3887,0
DA:3889,0
DA:3890,0
DA:3891,0
DA:3892,0
DA:3893,0
DA:3896,0
DA:3897,0
DA:3898,0
DA:3904,0
DA:3905,0
DA:3909,0
DA:3913,0
DA:3915,0
DA:3919,0
DA:3920,0
DA:3921,0
DA:3923,0
DA:3925,0
DA:3926,0
DA:3927,0
DA:3929,0
DA:3930,0
DA:3931,0
DA:3932,0
DA:3934,0
DA:3936,0
DA:3938,0
DA:3939,0
DA:3940,0
DA:3942,0
DA:3943,0
DA:3944,0
DA:3946,0
DA:3947,0
DA:3948,0
DA:3949,0
DA:3950,0
DA:3955,0
DA:3956,0
DA:3958,0
DA:3960,0
DA:3961,0
DA:3962,0
DA:3965,0
DA:3967,0
DA:3970,0
DA:3974,0
DA:3977,0
DA:3978,0
DA:3980,0
DA:3982,0
DA:3983,0
DA:3984,0
DA:3985,0
DA:3988,0
DA:3989,0
DA:3990,0
DA:3992,0
DA:3994,0
DA:3996,0
DA:3997,0
DA:3998,0
DA:4001,0
DA:4003,0
DA:4004,0
DA:4006,0
DA:4007,0
DA:4008,0
DA:4009,0
DA:4013,0
DA:4015,0
DA:4016,0
DA:4019,0
DA:4021,0
DA:4023,0
DA:4025,0
DA:4026,0
DA:4029,0
DA:4031,0
DA:4034,0
DA:4048,0
DA:4050,0
DA:4082,0
DA:4083,0
LF:298
LH:22
end_of_record
TN:
SF:/Applications/Xcode.app/Contents/Developer/Toolchains/XcodeDefault.xctoolchain/usr/include/c++/v1/exception
FN:93,_ZNSt9exceptionC2Ev
FNDA:0,_ZNSt9exceptionC2Ev
FNF:1
FNH:0
DA:93,0
LF:1
LH:0
end_of_record
TN:
SF:/Applications/Xcode.app/Contents/Developer/Toolchains/XcodeDefault.xctoolchain/usr/include/c++/v1/fstream
FN:249,_ZNSt3__113basic_filebufIcNS_11char_traitsIcEEEC1Ev
FN:249,_ZNSt3__113basic_filebufIcNS_11char_traitsIcEEEC2Ev
FN:353,_ZNSt3__113basic_filebufIcNS_11char_traitsIcEEED1Ev
FN:353,_ZNSt3__113basic_filebufIcNS_11char_traitsIcEEED2Ev
FN:353,_ZNSt3__113basic_filebufIcNS_11char_traitsIcEEED0Ev
FN:461,_ZNKSt3__113basic_filebufIcNS_11char_traitsIcEEE7is_openEv
FN:468,_ZNSt3__113basic_filebufIcNS_11char_traitsIcEEE4openEPKcj
FN:556,_ZNSt3__113basic_filebufIcNS_11char_traitsIcEEE5closeEv
FN:575,_ZNSt3__113basic_filebufIcNS_11char_traitsIcEEE9underflowEv
FN:643,_ZNSt3__113basic_filebufIcNS_11char_traitsIcEEE9pbackfailEi
FN:665,_ZNSt3__113basic_filebufIcNS_11char_traitsIcEEE8overflowEi
FN:731,_ZNSt3__113basic_filebufIcNS_11char_traitsIcEEE6setbufEPcl
FN:784,_ZNSt3__113basic_filebufIcNS_11char_traitsIcEEE7seekoffExNS_8ios_base7seekdirEj
FN:825,_ZNSt3__113basic_filebufIcNS_11char_traitsIcEEE7seekposENS_4fposI11__mbstate_tEEj
FN:842,_ZNSt3__113basic_filebufIcNS_11char_traitsIcEEE4syncEv
FN:912,_ZNSt3__113basic_filebufIcNS_11char_traitsIcEEE5imbueERKNS_6localeE
FN:956,_ZNSt3__113basic_filebufIcNS_11char_traitsIcEEE11__read_modeEv
FN:975,_ZNSt3__113basic_filebufIcNS_11char_traitsIcEEE12__write_modeEv
FN:1038,_ZNSt3__114basic_ifstreamIcNS_11char_traitsIcEEEC1EPKcj
FN:1105,_ZNKSt3__114basic_ifstreamIcNS_11char_traitsIcEEE7is_openEv
FN:1176,_ZNSt3__114basic_ofstreamIcNS_11char_traitsIcEEEC1Ev
FN:1257,_ZNSt3__114basic_ofstreamIcNS_11char_traitsIcEEE4openEPKcj
FNDA:0,_ZNSt3__114basic_ofstreamIcNS_11char_traitsIcEEEC1Ev
FNDA:0,_ZNSt3__113basic_filebufIcNS_11char_traitsIcEEE11__read_modeEv
FNDA:0,_ZNSt3__113basic_filebufIcNS_11char_traitsIcEEEC1Ev
FNDA:0,_ZNSt3__113basic_filebufIcNS_11char_traitsIcEEE12__write_modeEv
FNDA:0,_ZNSt3__113basic_filebufIcNS_11char_traitsIcEEED0Ev
FNDA:0,_ZNSt3__113basic_filebufIcNS_11char_traitsIcEEED2Ev
FNDA:0,_ZNSt3__113basic_filebufIcNS_11char_traitsIcEEE9underflowEv
FNDA:0,_ZNSt3__113basic_filebufIcNS_11char_traitsIcEEED1Ev
FNDA:0,_ZNKSt3__113basic_filebufIcNS_11char_traitsIcEEE7is_openEv
FNDA:0,_ZNKSt3__114basic_ifstreamIcNS_11char_traitsIcEEE7is_openEv
FNDA:0,_ZNSt3__113basic_filebufIcNS_11char_traitsIcEEE9pbackfailEi
FNDA:0,_ZNSt3__114basic_ifstreamIcNS_11char_traitsIcEEEC1EPKcj
FNDA:0,_ZNSt3__113basic_filebufIcNS_11char_traitsIcEEE7seekoffExNS_8ios_base7seekdirEj
FNDA:0,_ZNSt3__113basic_filebufIcNS_11char_traitsIcEEE4openEPKcj
FNDA:0,_ZNSt3__113basic_filebufIcNS_11char_traitsIcEEE6setbufEPcl
FNDA:0,_ZNSt3__113basic_filebufIcNS_11char_traitsIcEEE5closeEv
FNDA:0,_ZNSt3__113basic_filebufIcNS_11char_traitsIcEEE7seekposENS_4fposI11__mbstate_tEEj
FNDA:0,_ZNSt3__113basic_filebufIcNS_11char_traitsIcEEE4syncEv
FNDA:0,_ZNSt3__113basic_filebufIcNS_11char_traitsIcEEE5imbueERKNS_6localeE
FNDA:0,_ZNSt3__113basic_filebufIcNS_11char_traitsIcEEE8overflowEi
FNDA:0,_ZNSt3__113basic_filebufIcNS_11char_traitsIcEEEC2Ev
FNDA:0,_ZNSt3__114basic_ofstreamIcNS_11char_traitsIcEEE4openEPKcj
FNF:22
FNH:0
DA:195,0
DA:250,0
DA:251,0
DA:252,0
DA:253,0
DA:254,0
DA:255,0
DA:256,0
DA:257,0
DA:258,0
DA:259,0
DA:260,0
DA:261,0
DA:262,0
DA:263,0
DA:264,0
DA:265,0
DA:266,0
DA:268,0
DA:269,0
DA:270,0
DA:271,0
DA:272,0
DA:354,0
DA:359,0
DA:361,0
DA:364,0
DA:366,0
DA:367,0
DA:368,0
DA:369,0
DA:370,0
DA:463,0
DA:470,0
DA:471,0
DA:473,0
DA:475,0
DA:479,0
DA:480,0
DA:483,0
DA:484,0
DA:486,0
DA:487,0
DA:489,0
DA:490,0
DA:492,0
DA:493,0
DA:496,0
DA:497,0
DA:500,0
DA:501,0
DA:504,0
DA:505,0
DA:507,0
DA:508,0
DA:510,0
DA:511,0
DA:513,0
DA:514,0
DA:517,0
DA:518,0
DA:520,0
DA:521,0
DA:523,0
DA:525,0
DA:526,0
DA:528,0
DA:529,0
DA:531,0
DA:533,0
DA:534,0
DA:535,0
DA:536,0
DA:537,0
DA:538,0
DA:540,0
DA:541,0
DA:542,0
DA:543,0
DA:558,0
DA:559,0
DA:561,0
DA:562,0
DA:563,0
DA:564,0
DA:565,0
DA:566,0
DA:568,0
DA:569,0
DA:570,0
DA:571,0
DA:577,0
DA:578,0
DA:579,0
DA:581,0
DA:582,0
DA:583,0
DA:584,0
DA:585,0
DA:587,0
DA:588,0
DA:590,0
DA:591,0
DA:592,0
DA:594,0
DA:595,0
DA:596,0
DA:597,0
DA:598,0
DA:599,0
DA:602,0
DA:603,0
DA:604,0
DA:605,0
DA:606,0
DA:608,0
DA:609,0
DA:610,0
DA:613,0
DA:614,0
DA:616,0
DA:618,0
DA:619,0
DA:620,0
DA:621,0
DA:623,0
DA:624,0
DA:625,0
DA:626,0
DA:628,0
DA:629,0
DA:630,0
DA:631,0
DA:633,0
DA:635,0
DA:636,0
DA:637,0
DA:638,0
DA:639,0
DA:645,0
DA:647,0
DA:649,0
DA:650,0
DA:652,0
DA:653,0
DA:655,0
DA:656,0
DA:657,0
DA:659,0
DA:660,0
DA:661,0
DA:667,0
DA:668,0
DA:669,0
DA:671,0
DA:672,0
DA:673,0
DA:675,0
DA:676,0
DA:677,0
DA:678,0
DA:679,0
DA:680,0
DA:682,0
DA:684,0
DA:685,0
DA:686,0
DA:687,0
DA:690,0
DA:692,0
DA:695,0
DA:696,0
DA:699,0
DA:700,0
DA:701,0
DA:702,0
DA:703,0
DA:705,0
DA:706,0
DA:707,0
DA:708,0
DA:709,0
DA:711,0
DA:712,0
DA:713,0
DA:714,0
DA:716,0
DA:717,0
DA:718,0
DA:719,0
DA:721,0
DA:722,0
DA:724,0
DA:725,0
DA:726,0
DA:727,0
DA:733,0
DA:734,0
DA:735,0
DA:736,0
DA:737,0
DA:738,0
DA:739,0
DA:740,0
DA:742,0
DA:744,0
DA:745,0
DA:746,0
DA:749,0
DA:750,0
DA:752,0
DA:755,0
DA:756,0
DA:757,0
DA:759,0
DA:761,0
DA:762,0
DA:764,0
DA:765,0
DA:766,0
DA:769,0
DA:770,0
DA:772,0
DA:775,0
DA:776,0
DA:777,0
DA:779,0
DA:788,0
DA:789,0
DA:791,0
DA:792,0
DA:793,0
DA:796,0
DA:799,0
DA:800,0
DA:802,0
DA:803,0
DA:805,0
DA:806,0
DA:808,0
DA:815,0
DA:816,0
DA:817,0
DA:819,0
DA:820,0
DA:821,0
DA:827,0
DA:828,0
DA:833,0
DA:834,0
DA:836,0
DA:837,0
DA:838,0
DA:844,0
DA:845,0
DA:847,0
DA:848,0
DA:850,0
DA:852,0
DA:853,0
DA:854,0
DA:856,0
DA:859,0
DA:860,0
DA:861,0
DA:862,0
DA:863,0
DA:864,0
DA:865,0
DA:866,0
DA:867,0
DA:868,0
DA:869,0
DA:872,0
DA:873,0
DA:874,0
DA:875,0
DA:878,0
DA:879,0
DA:880,0
DA:881,0
DA:884,0
DA:886,0
DA:887,0
DA:888,0
DA:889,0
DA:890,0
DA:891,0
DA:898,0
DA:899,0
DA:901,0
DA:902,0
DA:903,0
DA:904,0
DA:905,0
DA:906,0
DA:907,0
DA:908,0
DA:914,0
DA:915,0
DA:916,0
DA:917,0
DA:918,0
DA:920,0
DA:921,0
DA:923,0
DA:925,0
DA:926,0
DA:927,0
DA:928,0
DA:929,0
DA:930,0
DA:931,0
DA:932,0
DA:933,0
DA:936,0
DA:938,0
DA:939,0
DA:940,0
DA:941,0
DA:942,0
DA:943,0
DA:946,0
DA:947,0
DA:948,0
DA:951,0
DA:952,0
DA:958,0
DA:960,0
DA:961,0
DA:962,0
DA:963,0
DA:964,0
DA:966,0
DA:967,0
DA:968,0
DA:970,0
DA:971,0
DA:977,0
DA:979,0
DA:980,0
DA:982,0
DA:983,0
DA:984,0
DA:986,0
DA:987,0
DA:989,0
DA:990,0
DA:991,0
DA:992,0
DA:1008,0
DA:1039,0
DA:1040,0
DA:1041,0
DA:1042,0
DA:1043,0
DA:1107,0
DA:1152,0
DA:1177,0
DA:1178,0
DA:1179,0
DA:1259,0
DA:1260,0
DA:1262,0
DA:1263,0
LF:365
LH:0
end_of_record
TN:
SF:/Applications/Xcode.app/Contents/Developer/Toolchains/XcodeDefault.xctoolchain/usr/include/c++/v1/iomanip
FN:180,_ZNSt3__18__iom_t4IcEC1Ec
FN:180,_ZNSt3__18__iom_t4IcEC2Ec
FN:186,_ZNSt3__1lsINS_11char_traitsIcEEEERNS_13basic_ostreamIcT_EES6_RKNS_8__iom_t4IcEE
FN:196,_ZNSt3__17setfillIcEENS_8__iom_t4IT_EES2_
FN:208,_ZNSt3__18__iom_t5C1Ei
FN:208,_ZNSt3__18__iom_t5C2Ei
FN:224,_ZNSt3__1lsIcNS_11char_traitsIcEEEERNS_13basic_ostreamIT_T0_EES7_RKNS_8__iom_t5E
FN:233,_ZNSt3__112setprecisionEi
FN:245,_ZNSt3__18__iom_t6C1Ei
FN:245,_ZNSt3__18__iom_t6C2Ei
FN:261,_ZNSt3__1lsIcNS_11char_traitsIcEEEERNS_13basic_ostreamIT_T0_EES7_RKNS_8__iom_t6E
FN:270,_ZNSt3__14setwEi
FNDA:13,_ZNSt3__1lsIcNS_11char_traitsIcEEEERNS_13basic_ostreamIT_T0_EES7_RKNS_8__iom_t5E
FNDA:0,_ZNSt3__14setwEi
FNDA:0,_ZNSt3__1lsINS_11char_traitsIcEEEERNS_13basic_ostreamIcT_EES6_RKNS_8__iom_t4IcEE
FNDA:0,_ZNSt3__18__iom_t6C2Ei
FNDA:0,_ZNSt3__17setfillIcEENS_8__iom_t4IT_EES2_
FNDA:26,_ZNSt3__18__iom_t5C2Ei
FNDA:0,_ZNSt3__18__iom_t6C1Ei
FNDA:13,_ZNSt3__112setprecisionEi
FNDA:0,_ZNSt3__1lsIcNS_11char_traitsIcEEEERNS_13basic_ostreamIT_T0_EES7_RKNS_8__iom_t6E
FNDA:0,_ZNSt3__18__iom_t4IcEC2Ec
FNDA:0,_ZNSt3__18__iom_t4IcEC1Ec
FNDA:26,_ZNSt3__18__iom_t5C1Ei
FNF:12
FNH:4
DA:180,0
DA:188,0
DA:189,0
DA:198,0
DA:208,26
DA:226,13
DA:227,13
DA:235,13
DA:245,0
DA:263,0
DA:264,0
DA:272,0
LF:12
LH:4
end_of_record
TN:
SF:/Applications/Xcode.app/Contents/Developer/Toolchains/XcodeDefault.xctoolchain/usr/include/c++/v1/ios
FN:333,_ZNSt3__18ios_baseC2Ev
FN:337,_ZNKSt3__18ios_base5rdbufEv
FN:340,_ZNSt3__18ios_base5rdbufEPv
FN:435,_ZNKSt3__18ios_base5flagsEv
FN:451,_ZNSt3__18ios_base4setfEj
FN:460,_ZNSt3__18ios_base6unsetfEj
FN:467,_ZNSt3__18ios_base4setfEjj
FN:486,_ZNSt3__18ios_base9precisionEl
FN:497,_ZNKSt3__18ios_base5widthEv
FN:504,_ZNSt3__18ios_base5widthEl
FN:522,_ZNSt3__18ios_base8setstateEj
FN:543,_ZNKSt3__18ios_base4failEv
FN:585,_ZNKSt3__19basic_iosIcNS_11char_traitsIcEEEcvbEv
FN:588,_ZNSt3__19basic_iosIcNS_11char_traitsIcEEE5clearEj
FN:589,_ZNSt3__19basic_iosIcNS_11char_traitsIcEEE8setstateEj
FN:592,_ZNKSt3__19basic_iosIcNS_11char_traitsIcEEE4failEv
FN:631,_ZNSt3__19basic_iosIcNS_11char_traitsIcEEEC2Ev
FN:666,_ZNSt3__19basic_iosIcNS_11char_traitsIcEEE4initEPNS_15basic_streambufIcS2_EE
FN:694,_ZNKSt3__19basic_iosIcNS_11char_traitsIcEEE5rdbufEv
FN:702,_ZNSt3__19basic_iosIcNS_11char_traitsIcEEE5rdbufEPNS_15basic_streambufIcS2_EE
FN:732,_ZNKSt3__19basic_iosIcNS_11char_traitsIcEEE5widenEc
FN:740,_ZNKSt3__19basic_iosIcNS_11char_traitsIcEEE4fillEv
FN:750,_ZNSt3__19basic_iosIcNS_11char_traitsIcEEE4fillEc
FN:884,_ZNSt3__19uppercaseERNS_8ios_baseE
FN:948,_ZNSt3__13hexERNS_8ios_baseE
FN:964,_ZNSt3__15fixedERNS_8ios_baseE
FNDA:59,_ZNSt3__19basic_iosIcNS_11char_traitsIcEEEC2Ev
FNDA:59,_ZNSt3__18ios_baseC2Ev
FNDA:0,_ZNSt3__19basic_iosIcNS_11char_traitsIcEEE5rdbufEPNS_15basic_streambufIcS2_EE
FNDA:0,_ZNSt3__19basic_iosIcNS_11char_traitsIcEEE5clearEj
FNDA:13,_ZNSt3__18ios_base9precisionEl
FNDA:16,_ZNKSt3__19basic_iosIcNS_11char_traitsIcEEE5rdbufEv
FNDA:13,_ZNSt3__18ios_base4setfEjj
FNDA:0,_ZNKSt3__18ios_base4failEv
FNDA:0,_ZNSt3__18ios_base4setfEj
FNDA:0,_ZNKSt3__19basic_iosIcNS_11char_traitsIcEEEcvbEv
FNDA:6,_ZNKSt3__19basic_iosIcNS_11char_traitsIcEEE5widenEc
FNDA:0,_ZNSt3__19basic_iosIcNS_11char_traitsIcEEE8setstateEj
FNDA:16,_ZNKSt3__18ios_base5rdbufEv
FNDA:0,_ZNKSt3__19basic_iosIcNS_11char_traitsIcEEE4failEv
FNDA:13,_ZNSt3__15fixedERNS_8ios_baseE
FNDA:15,_ZNKSt3__18ios_base5widthEv
FNDA:13,_ZNSt3__18ios_base6unsetfEj
FNDA:1,_ZNKSt3__19basic_iosIcNS_11char_traitsIcEEE4fillEv
FNDA:0,_ZNSt3__19basic_iosIcNS_11char_traitsIcEEE4fillEc
FNDA:0,_ZNSt3__19uppercaseERNS_8ios_baseE
FNDA:0,_ZNSt3__13hexERNS_8ios_baseE
FNDA:15,_ZNKSt3__18ios_base5flagsEv
FNDA:59,_ZNSt3__19basic_iosIcNS_11char_traitsIcEEE4initEPNS_15basic_streambufIcS2_EE
FNDA:15,_ZNSt3__18ios_base5widthEl
FNDA:0,_ZNSt3__18ios_base5rdbufEPv
FNDA:0,_ZNSt3__18ios_base8setstateEj
FNF:26
FNH:14
DA:333,59
DA:334,59
DA:337,16
DA:342,0
DA:343,0
DA:344,0
DA:437,15
DA:453,0
DA:454,0
DA:455,0
DA:462,13
DA:463,13
DA:469,13
DA:470,13
DA:471,13
DA:472,13
DA:488,13
DA:489,13
DA:490,13
DA:499,15
DA:506,15
DA:507,15
DA:508,15
DA:524,0
DA:525,0
DA:545,0
DA:585,0
DA:588,0
DA:589,0
DA:592,0
DA:631,59
DA:632,59
DA:668,59
DA:669,59
DA:670,59
DA:671,59
DA:696,16
DA:704,0
DA:705,0
DA:706,0
DA:734,6
DA:735,0
DA:742,15
DA:743,1
DA:744,15
DA:752,0
DA:753,0
DA:754,0
DA:886,0
DA:887,0
DA:950,0
DA:951,0
DA:966,13
DA:967,13
LF:54
LH:30
end_of_record
TN:
SF:/Applications/Xcode.app/Contents/Developer/Toolchains/XcodeDefault.xctoolchain/usr/include/c++/v1/iosfwd
FN:117,_ZNSt3__115basic_stringbufIcNS_11char_traitsIcEENS_9allocatorIcEEED0Ev
FN:117,_ZNSt3__115basic_stringbufIcNS_11char_traitsIcEENS_9allocatorIcEEED1Ev
FN:117,_ZNSt3__115basic_stringbufIcNS_11char_traitsIcEENS_9allocatorIcEEED2Ev
FN:123,_ZNSt3__119basic_ostringstreamIcNS_11char_traitsIcEENS_9allocatorIcEEED1Ev
FN:123,_ZTv0_n24_NSt3__119basic_ostringstreamIcNS_11char_traitsIcEENS_9allocatorIcEEED1Ev
FN:123,_ZNSt3__119basic_ostringstreamIcNS_11char_traitsIcEENS_9allocatorIcEEED2Ev
FN:123,_ZTv0_n24_NSt3__119basic_ostringstreamIcNS_11char_traitsIcEENS_9allocatorIcEEED0Ev
FN:123,_ZNSt3__119basic_ostringstreamIcNS_11char_traitsIcEENS_9allocatorIcEEED0Ev
FN:126,_ZTv0_n24_NSt3__118basic_stringstreamIcNS_11char_traitsIcEENS_9allocatorIcEEED1Ev
FN:126,_ZNSt3__118basic_stringstreamIcNS_11char_traitsIcEENS_9allocatorIcEEED0Ev
FN:126,_ZThn16_NSt3__118basic_stringstreamIcNS_11char_traitsIcEENS_9allocatorIcEEED0Ev
FN:126,_ZNSt3__118basic_stringstreamIcNS_11char_traitsIcEENS_9allocatorIcEEED1Ev
FN:126,_ZTv0_n24_NSt3__118basic_stringstreamIcNS_11char_traitsIcEENS_9allocatorIcEEED0Ev
FN:126,_ZNSt3__118basic_stringstreamIcNS_11char_traitsIcEENS_9allocatorIcEEED2Ev
FN:126,_ZThn16_NSt3__118basic_stringstreamIcNS_11char_traitsIcEENS_9allocatorIcEEED1Ev
FN:131,_ZNSt3__114basic_ifstreamIcNS_11char_traitsIcEEED2Ev
FN:131,_ZTv0_n24_NSt3__114basic_ifstreamIcNS_11char_traitsIcEEED1Ev
FN:131,_ZTv0_n24_NSt3__114basic_ifstreamIcNS_11char_traitsIcEEED0Ev
FN:131,_ZNSt3__114basic_ifstreamIcNS_11char_traitsIcEEED0Ev
FN:131,_ZNSt3__114basic_ifstreamIcNS_11char_traitsIcEEED1Ev
FN:133,_ZNSt3__114basic_ofstreamIcNS_11char_traitsIcEEED1Ev
FN:133,_ZTv0_n24_NSt3__114basic_ofstreamIcNS_11char_traitsIcEEED0Ev
FN:133,_ZTv0_n24_NSt3__114basic_ofstreamIcNS_11char_traitsIcEEED1Ev
FN:133,_ZNSt3__114basic_ofstreamIcNS_11char_traitsIcEEED2Ev
FN:133,_ZNSt3__114basic_ofstreamIcNS_11char_traitsIcEEED0Ev
FNDA:116,_ZNSt3__115basic_stringbufIcNS_11char_traitsIcEENS_9allocatorIcEEED0Ev
FNDA:116,_ZNSt3__119basic_ostringstreamIcNS_11char_traitsIcEENS_9allocatorIcEEED2Ev
FNDA:116,_ZNSt3__115basic_stringbufIcNS_11char_traitsIcEENS_9allocatorIcEEED1Ev
FNDA:116,_ZTv0_n24_NSt3__119basic_ostringstreamIcNS_11char_traitsIcEENS_9allocatorIcEEED1Ev
FNDA:0,_ZNSt3__118basic_stringstreamIcNS_11char_traitsIcEENS_9allocatorIcEEED2Ev
FNDA:0,_ZThn16_NSt3__118basic_stringstreamIcNS_11char_traitsIcEENS_9allocatorIcEEED1Ev
FNDA:116,_ZNSt3__115basic_stringbufIcNS_11char_traitsIcEENS_9allocatorIcEEED2Ev
FNDA:0,_ZNSt3__114basic_ofstreamIcNS_11char_traitsIcEEED0Ev
FNDA:116,_ZTv0_n24_NSt3__119basic_ostringstreamIcNS_11char_traitsIcEENS_9allocatorIcEEED0Ev
FNDA:0,_ZNSt3__114basic_ofstreamIcNS_11char_traitsIcEEED2Ev
FNDA:116,_ZNSt3__119basic_ostringstreamIcNS_11char_traitsIcEENS_9allocatorIcEEED0Ev
FNDA:0,_ZTv0_n24_NSt3__118basic_stringstreamIcNS_11char_traitsIcEENS_9allocatorIcEEED1Ev
FNDA:0,_ZNSt3__114basic_ifstreamIcNS_11char_traitsIcEEED2Ev
FNDA:0,_ZThn16_NSt3__118basic_stringstreamIcNS_11char_traitsIcEENS_9allocatorIcEEED0Ev
FNDA:0,_ZNSt3__114basic_ofstreamIcNS_11char_traitsIcEEED1Ev
FNDA:0,_ZNSt3__118basic_stringstreamIcNS_11char_traitsIcEENS_9allocatorIcEEED0Ev
FNDA:0,_ZNSt3__118basic_stringstreamIcNS_11char_traitsIcEENS_9allocatorIcEEED1Ev
FNDA:116,_ZNSt3__119basic_ostringstreamIcNS_11char_traitsIcEENS_9allocatorIcEEED1Ev
FNDA:0,_ZTv0_n24_NSt3__114basic_ifstreamIcNS_11char_traitsIcEEED0Ev
FNDA:0,_ZTv0_n24_NSt3__114basic_ifstreamIcNS_11char_traitsIcEEED1Ev
FNDA:0,_ZNSt3__114basic_ifstreamIcNS_11char_traitsIcEEED0Ev
FNDA:0,_ZTv0_n24_NSt3__118basic_stringstreamIcNS_11char_traitsIcEENS_9allocatorIcEEED0Ev
FNDA:0,_ZNSt3__114basic_ifstreamIcNS_11char_traitsIcEEED1Ev
FNDA:0,_ZTv0_n24_NSt3__114basic_ofstreamIcNS_11char_traitsIcEEED1Ev
FNDA:0,_ZTv0_n24_NSt3__114basic_ofstreamIcNS_11char_traitsIcEEED0Ev
FNF:25
FNH:8
DA:117,116
DA:123,116
DA:126,0
DA:131,0
DA:133,0
LF:5
LH:2
end_of_record
TN:
SF:/Applications/Xcode.app/Contents/Developer/Toolchains/XcodeDefault.xctoolchain/usr/include/c++/v1/istream
FN:276,_ZNKSt3__113basic_istreamIcNS_11char_traitsIcEEE6sentrycvbEv
FN:308,_ZNSt3__113basic_istreamIcNS_11char_traitsIcEEEC2EPNS_15basic_streambufIcS2_EE
FN:1507,_ZNSt3__114basic_iostreamIcNS_11char_traitsIcEEEC2EPNS_15basic_streambufIcS2_EE
FN:1600,_ZNSt3__17getlineIcNS_11char_traitsIcEENS_9allocatorIcEEEERNS_13basic_istreamIT_T0_EES9_RNS_12basic_stringIS6_S7_T1_EES6_
FN:1649,_ZNSt3__17getlineIcNS_11char_traitsIcEENS_9allocatorIcEEEERNS_13basic_istreamIT_T0_EES9_RNS_12basic_stringIS6_S7_T1_EE
FNDA:0,_ZNSt3__114basic_iostreamIcNS_11char_traitsIcEEEC2EPNS_15basic_streambufIcS2_EE
FNDA:0,_ZNSt3__17getlineIcNS_11char_traitsIcEENS_9allocatorIcEEEERNS_13basic_istreamIT_T0_EES9_RNS_12basic_stringIS6_S7_T1_EE
FNDA:0,_ZNSt3__113basic_istreamIcNS_11char_traitsIcEEEC2EPNS_15basic_streambufIcS2_EE
FNDA:0,_ZNSt3__17getlineIcNS_11char_traitsIcEENS_9allocatorIcEEEERNS_13basic_istreamIT_T0_EES9_RNS_12basic_stringIS6_S7_T1_EES6_
FNDA:0,_ZNKSt3__113basic_istreamIcNS_11char_traitsIcEEE6sentrycvbEv
FNF:5
FNH:0
DA:276,0
DA:309,0
DA:310,0
DA:311,0
DA:312,0
DA:1488,0
DA:1508,0
DA:1509,0
DA:1510,0
DA:1607,0
DA:1608,0
DA:1610,0
DA:1611,0
DA:1612,0
DA:1613,0
DA:1615,0
DA:1616,0
DA:1618,0
DA:1619,0
DA:1621,0
DA:1622,0
DA:1623,0
DA:1624,0
DA:1625,0
DA:1626,0
DA:1628,0
DA:1629,0
DA:1632,0
DA:1633,0
DA:1634,0
DA:1635,0
DA:1637,0
DA:1640,0
DA:1641,0
DA:1643,0
DA:1644,0
DA:1652,0
LF:37
LH:0
end_of_record
TN:
SF:/Applications/Xcode.app/Contents/Developer/Toolchains/XcodeDefault.xctoolchain/usr/include/c++/v1/iterator
FN:462,_ZNSt3__19__advanceINS_21__tree_const_iteratorINS_12basic_stringIcNS_11char_traitsIcEENS_9allocatorIcEEEEPNS_11__tree_nodeIS7_PvEElEEEEvRT_NS_15iterator_traitsISD_E15difference_typeENS_26bidirectional_iterator_tagE
FN:483,_ZNSt3__17advanceINS_21__tree_const_iteratorINS_12basic_stringIcNS_11char_traitsIcEENS_9allocatorIcEEEEPNS_11__tree_nodeIS7_PvEElEEEEvRT_NS_15iterator_traitsISD_E15difference_typeE
FN:503,_ZNSt3__110__distanceIPcEENS_15iterator_traitsIT_E15difference_typeES3_S3_NS_26random_access_iterator_tagE
FN:503,_ZNSt3__110__distanceINS_11__wrap_iterIPKN5Catch11MessageInfoEEEEENS_15iterator_traitsIT_E15difference_typeES8_S8_NS_26random_access_iterator_tagE
FN:511,_ZNSt3__18distanceINS_11__wrap_iterIPKN5Catch11MessageInfoEEEEENS_15iterator_traitsIT_E15difference_typeES8_S8_
FN:511,_ZNSt3__18distanceIPcEENS_15iterator_traitsIT_E15difference_typeES3_S3_
FN:519,_ZNSt3__14nextINS_21__tree_const_iteratorINS_12basic_stringIcNS_11char_traitsIcEENS_9allocatorIcEEEEPNS_11__tree_nodeIS7_PvEElEEEET_SD_NS_15iterator_traitsISD_E15difference_typeEPNS_9enable_ifIXsr21__is_forward_iteratorISD_EE5valueEvE4typeE
FN:557,_ZNSt3__116reverse_iteratorINS_11__wrap_iterIPN5Catch14SectionEndInfoEEEEC2ES5_
FN:557,_ZNSt3__116reverse_iteratorINS_11__wrap_iterIPN5Catch14SectionEndInfoEEEEC1ES5_
FN:558,_ZNSt3__116reverse_iteratorINS_11__wrap_iterIPKN5Catch14SectionEndInfoEEEEC1INS1_IPS3_EEEERKNS0_IT_EE
FN:558,_ZNSt3__116reverse_iteratorINS_11__wrap_iterIPKN5Catch14SectionEndInfoEEEEC2INS1_IPS3_EEEERKNS0_IT_EE
FN:560,_ZNKSt3__116reverse_iteratorINS_11__wrap_iterIPN5Catch14SectionEndInfoEEEE4baseEv
FN:560,_ZNKSt3__116reverse_iteratorINS_11__wrap_iterIPKN5Catch14SectionEndInfoEEEE4baseEv
FN:561,_ZNKSt3__116reverse_iteratorINS_11__wrap_iterIPKN5Catch14SectionEndInfoEEEEdeEv
FN:563,_ZNSt3__116reverse_iteratorINS_11__wrap_iterIPKN5Catch14SectionEndInfoEEEEppEv
FN:600,_ZNSt3__1neINS_11__wrap_iterIPKN5Catch14SectionEndInfoEEES6_EEbRKNS_16reverse_iteratorIT_EERKNS7_IT0_EE
FN:907,_ZNSt3__119ostreambuf_iteratorIcNS_11char_traitsIcEEEC2ERNS_13basic_ostreamIcS2_EE
FN:907,_ZNSt3__119ostreambuf_iteratorIcNS_11char_traitsIcEEEC1ERNS_13basic_ostreamIcS2_EE
FN:920,_ZNKSt3__119ostreambuf_iteratorIcNS_11char_traitsIcEEE6failedEv
FN:1128,_ZNSt3__111__wrap_iterIPKN5Catch5Clara11CommandLineINS1_10ConfigDataEE3ArgEEC2Ev
FN:1128,_ZNSt3__111__wrap_iterIPKN5Catch5Clara11CommandLineINS1_10ConfigDataEE3ArgEEC1Ev
FN:1137,_ZNSt3__111__wrap_iterIPKPN5Catch14IGeneratorInfoEEC1IPS3_EERKNS0_IT_EEPNS_9enable_ifIXsr14is_convertibleIS9_S5_EE5valueEvE4typeE
FN:1137,_ZNSt3__111__wrap_iterIPKPKN5Catch20IExceptionTranslatorEEC1IPS4_EERKNS0_IT_EEPNS_9enable_ifIXsr14is_convertibleISA_S6_EE5valueEvE4typeE
FN:1137,_ZNSt3__111__wrap_iterIPKN5Catch14SectionEndInfoEEC1IPS2_EERKNS0_IT_EEPNS_9enable_ifIXsr14is_convertibleIS8_S4_EE5valueEvE4typeE
FN:1137,_ZNSt3__111__wrap_iterIPKN5Catch3PtrINS1_22CumulativeReporterBase11SectionNodeEEEEC2IPS5_EERKNS0_IT_EEPNS_9enable_ifIXsr14is_convertibleISB_S7_EE5valueEvE4typeE
FN:1137,_ZNSt3__111__wrap_iterIPKN5Catch8TestCaseEEC1IPS2_EERKNS0_IT_EEPNS_9enable_ifIXsr14is_convertibleIS8_S4_EE5valueEvE4typeE
FN:1137,_ZNSt3__111__wrap_iterIPKN5Catch11SectionInfoEEC1IPS2_EERKNS0_IT_EEPNS_9enable_ifIXsr14is_convertibleIS8_S4_EE5valueEvE4typeE
FN:1137,_ZNSt3__111__wrap_iterIPKN5Catch11MessageInfoEEC2IPS2_EERKNS0_IT_EEPNS_9enable_ifIXsr14is_convertibleIS8_S4_EE5valueEvE4typeE
FN:1137,_ZNSt3__111__wrap_iterIPKPN5Catch14IGeneratorInfoEEC2IPS3_EERKNS0_IT_EEPNS_9enable_ifIXsr14is_convertibleIS9_S5_EE5valueEvE4typeE
FN:1137,_ZNSt3__111__wrap_iterIPKN5Catch11SectionInfoEEC2IPS2_EERKNS0_IT_EEPNS_9enable_ifIXsr14is_convertibleIS8_S4_EE5valueEvE4typeE
FN:1137,_ZNSt3__111__wrap_iterIPKN5Catch3PtrINS1_16IReporterFactoryEEEEC2IPS4_EERKNS0_IT_EEPNS_9enable_ifIXsr14is_convertibleISA_S6_EE5valueEvE4typeE
FN:1137,_ZNSt3__111__wrap_iterIPKNS_12basic_stringIcNS_11char_traitsIcEENS_9allocatorIcEEEEEC1IPS6_EERKNS0_IT_EEPNS_9enable_ifIXsr14is_convertibleISC_S8_EE5valueEvE4typeE
FN:1137,_ZNSt3__111__wrap_iterIPKN5Catch3PtrINS1_18IStreamingReporterEEEEC1IPS4_EERKNS0_IT_EEPNS_9enable_ifIXsr14is_convertibleISA_S6_EE5valueEvE4typeE
FN:1137,_ZNSt3__111__wrap_iterIPKN5Catch3PtrINS1_18IStreamingReporterEEEEC2IPS4_EERKNS0_IT_EEPNS_9enable_ifIXsr14is_convertibleISA_S6_EE5valueEvE4typeE
FN:1137,_ZNSt3__111__wrap_iterIPKN5Catch11MessageInfoEEC1IPS2_EERKNS0_IT_EEPNS_9enable_ifIXsr14is_convertibleIS8_S4_EE5valueEvE4typeE
FN:1137,_ZNSt3__111__wrap_iterIPKN5Catch3PtrINS1_16TestCaseTracking8ITrackerEEEEC2IPS5_EERKNS0_IT_EEPNS_9enable_ifIXsr14is_convertibleISB_S7_EE5valueEvE4typeE
FN:1137,_ZNSt3__111__wrap_iterIPKN5Catch14SectionEndInfoEEC2IPS2_EERKNS0_IT_EEPNS_9enable_ifIXsr14is_convertibleIS8_S4_EE5valueEvE4typeE
FN:1137,_ZNSt3__111__wrap_iterIPKN5Catch3PtrINS1_16TestCaseTracking8ITrackerEEEEC1IPS5_EERKNS0_IT_EEPNS_9enable_ifIXsr14is_convertibleISB_S7_EE5valueEvE4typeE
FN:1137,_ZNSt3__111__wrap_iterIPKN5Catch8TestCaseEEC2IPS2_EERKNS0_IT_EEPNS_9enable_ifIXsr14is_convertibleIS8_S4_EE5valueEvE4typeE
FN:1137,_ZNSt3__111__wrap_iterIPKPKN5Catch20IExceptionTranslatorEEC2IPS4_EERKNS0_IT_EEPNS_9enable_ifIXsr14is_convertibleISA_S6_EE5valueEvE4typeE
FN:1137,_ZNSt3__111__wrap_iterIPKN5Catch3PtrINS1_22CumulativeReporterBase11SectionNodeEEEEC1IPS5_EERKNS0_IT_EEPNS_9enable_ifIXsr14is_convertibleISB_S7_EE5valueEvE4typeE
FN:1137,_ZNSt3__111__wrap_iterIPKNS_12basic_stringIcNS_11char_traitsIcEENS_9allocatorIcEEEEEC2IPS6_EERKNS0_IT_EEPNS_9enable_ifIXsr14is_convertibleISC_S8_EE5valueEvE4typeE
FN:1137,_ZNSt3__111__wrap_iterIPKN5Catch3PtrINS1_16IReporterFactoryEEEEC1IPS4_EERKNS0_IT_EEPNS_9enable_ifIXsr14is_convertibleISA_S6_EE5valueEvE4typeE
FN:1168,_ZNKSt3__111__wrap_iterIPcEdeEv
FN:1168,_ZNKSt3__111__wrap_iterIPKPKN5Catch20IExceptionTranslatorEEdeEv
FN:1168,_ZNKSt3__111__wrap_iterIPKN5Catch14SectionEndInfoEEdeEv
FN:1168,_ZNKSt3__111__wrap_iterIPKN5Catch3PtrINS1_8TestSpec7PatternEEEEdeEv
FN:1168,_ZNKSt3__111__wrap_iterIPN5Catch3PtrINS1_16TestCaseTracking8ITrackerEEEEdeEv
FN:1168,_ZNKSt3__111__wrap_iterIPNS_12basic_stringIcNS_11char_traitsIcEENS_9allocatorIcEEEEEdeEv
FN:1168,_ZNKSt3__111__wrap_iterIPKN5Catch3PtrINS1_22CumulativeReporterBase11SectionNodeEEEEdeEv
FN:1168,_ZNKSt3__111__wrap_iterIPKN5Catch3PtrINS1_16IReporterFactoryEEEEdeEv
FN:1168,_ZNKSt3__111__wrap_iterIPN5Catch8TestCaseEEdeEv
FN:1168,_ZNKSt3__111__wrap_iterIPKNS_12basic_stringIcNS_11char_traitsIcEENS_9allocatorIcEEEEEdeEv
FN:1168,_ZNKSt3__111__wrap_iterIPKN5Catch3PtrINS1_18IStreamingReporterEEEEdeEv
FN:1168,_ZNKSt3__111__wrap_iterIPN5Catch3PtrINS1_22CumulativeReporterBase11SectionNodeEEEEdeEv
FN:1168,_ZNKSt3__111__wrap_iterIPKPN5Catch14IGeneratorInfoEEdeEv
FN:1168,_ZNKSt3__111__wrap_iterIPKN5Catch8TestCaseEEdeEv
FN:1168,_ZNKSt3__111__wrap_iterIPN5Catch11MessageInfoEEdeEv
FN:1168,_ZNKSt3__111__wrap_iterIPKN5Catch3PtrINS1_22CumulativeReporterBase4NodeINS1_13TestCaseStatsENS3_11SectionNodeEEEEEEdeEv
FN:1168,_ZNKSt3__111__wrap_iterIPKN5Catch5Clara11CommandLineINS1_10ConfigDataEE3ArgEEdeEv
FN:1168,_ZNKSt3__111__wrap_iterIPKN5Catch14AssertionStatsEEdeEv
FN:1176,_ZNKSt3__111__wrap_iterIPKN5Catch11MessageInfoEEptEv
FN:1176,_ZNKSt3__111__wrap_iterIPKN5Catch8TestSpec6FilterEEptEv
FN:1176,_ZNKSt3__111__wrap_iterIPKN5Catch3PtrINS1_16TestCaseTracking8ITrackerEEEEptEv
FN:1176,_ZNKSt3__111__wrap_iterIPKN5Catch15ConsoleReporter13SummaryColumnEEptEv
FN:1176,_ZNKSt3__111__wrap_iterIPNS_12basic_stringIcNS_11char_traitsIcEENS_9allocatorIcEEEEEptEv
FN:1176,_ZNKSt3__111__wrap_iterIPKN5Catch8TestCaseEEptEv
FN:1176,_ZNKSt3__111__wrap_iterIPKN5Catch11SectionInfoEEptEv
FN:1176,_ZNKSt3__111__wrap_iterIPKN5Catch5Clara11CommandLineINS1_10ConfigDataEE3ArgEEptEv
FN:1184,_ZNSt3__111__wrap_iterIPN5Catch3PtrINS1_22CumulativeReporterBase11SectionNodeEEEEppEv
FN:1184,_ZNSt3__111__wrap_iterIPN5Catch11MessageInfoEEppEv
FN:1184,_ZNSt3__111__wrap_iterIPcEppEv
FN:1184,_ZNSt3__111__wrap_iterIPN5Catch8TestCaseEEppEv
FN:1184,_ZNSt3__111__wrap_iterIPKN5Catch8TestCaseEEppEv
FN:1184,_ZNSt3__111__wrap_iterIPKN5Catch15ConsoleReporter13SummaryColumnEEppEv
FN:1184,_ZNSt3__111__wrap_iterIPKN5Catch11SectionInfoEEppEv
FN:1184,_ZNSt3__111__wrap_iterIPKN5Catch3PtrINS1_8TestSpec7PatternEEEEppEv
FN:1184,_ZNSt3__111__wrap_iterIPKN5Catch14AssertionStatsEEppEv
FN:1184,_ZNSt3__111__wrap_iterIPKNS_12basic_stringIcNS_11char_traitsIcEENS_9allocatorIcEEEEEppEv
FN:1184,_ZNSt3__111__wrap_iterIPKN5Catch5Clara11CommandLineINS1_10ConfigDataEE3ArgEEppEv
FN:1184,_ZNSt3__111__wrap_iterIPKN5Catch8TestSpec6FilterEEppEv
FN:1184,_ZNSt3__111__wrap_iterIPN5Catch3PtrINS1_16TestCaseTracking8ITrackerEEEEppEv
FN:1184,_ZNSt3__111__wrap_iterIPKN5Catch3PtrINS1_16IReporterFactoryEEEEppEv
FN:1184,_ZNSt3__111__wrap_iterIPKPKN5Catch20IExceptionTranslatorEEppEv
FN:1184,_ZNSt3__111__wrap_iterIPNS_12basic_stringIcNS_11char_traitsIcEENS_9allocatorIcEEEEEppEv
FN:1184,_ZNSt3__111__wrap_iterIPKN5Catch11MessageInfoEEppEv
FN:1184,_ZNSt3__111__wrap_iterIPKN5Catch3PtrINS1_22CumulativeReporterBase11SectionNodeEEEEppEv
FN:1184,_ZNSt3__111__wrap_iterIPKPN5Catch14IGeneratorInfoEEppEv
FN:1184,_ZNSt3__111__wrap_iterIPKN5Catch3PtrINS1_22CumulativeReporterBase4NodeINS1_13TestCaseStatsENS3_11SectionNodeEEEEEEppEv
FN:1184,_ZNSt3__111__wrap_iterIPKN5Catch3PtrINS1_18IStreamingReporterEEEEppEv
FN:1195,_ZNSt3__111__wrap_iterIPKN5Catch14SectionEndInfoEEmmEv
FN:1195,_ZNSt3__111__wrap_iterIPN5Catch8TestCaseEEmmEv
FN:1206,_ZNKSt3__111__wrap_iterIPN5Catch8TestCaseEEplEl
FN:1206,_ZNKSt3__111__wrap_iterIPN5Catch11SectionInfoEEplEl
FN:1206,_ZNKSt3__111__wrap_iterIPKPKN5Catch20IExceptionTranslatorEEplEl
FN:1208,_ZNSt3__111__wrap_iterIPN5Catch8TestCaseEEpLEl
FN:1208,_ZNSt3__111__wrap_iterIPKPKN5Catch20IExceptionTranslatorEEpLEl
FN:1208,_ZNSt3__111__wrap_iterIPN5Catch11SectionInfoEEpLEl
FN:1230,_ZNKSt3__111__wrap_iterIPKN5Catch14SectionEndInfoEE4baseEv
FN:1230,_ZNKSt3__111__wrap_iterIPKNS_12basic_stringIcNS_11char_traitsIcEENS_9allocatorIcEEEEE4baseEv
FN:1230,_ZNKSt3__111__wrap_iterIPKN5Catch8TestSpec6FilterEE4baseEv
FN:1230,_ZNKSt3__111__wrap_iterIPKN5Catch3PtrINS1_22CumulativeReporterBase4NodeINS1_13TestCaseStatsENS3_11SectionNodeEEEEEE4baseEv
FN:1230,_ZNKSt3__111__wrap_iterIPKN5Catch3PtrINS1_16TestCaseTracking8ITrackerEEEE4baseEv
FN:1230,_ZNKSt3__111__wrap_iterIPPKN5Catch20IExceptionTranslatorEE4baseEv
FN:1230,_ZNKSt3__111__wrap_iterIPNS_12basic_stringIcNS_11char_traitsIcEENS_9allocatorIcEEEEE4baseEv
FN:1230,_ZNKSt3__111__wrap_iterIPPN5Catch14IGeneratorInfoEE4baseEv
FN:1230,_ZNKSt3__111__wrap_iterIPKN5Catch3PtrINS1_18IStreamingReporterEEEE4baseEv
FN:1230,_ZNKSt3__111__wrap_iterIPN5Catch3PtrINS1_16TestCaseTracking8ITrackerEEEE4baseEv
FN:1230,_ZNKSt3__111__wrap_iterIPN5Catch3PtrINS1_16IReporterFactoryEEEE4baseEv
FN:1230,_ZNKSt3__111__wrap_iterIPKN5Catch15ConsoleReporter13SummaryColumnEE4baseEv
FN:1230,_ZNKSt3__111__wrap_iterIPKPN5Catch14IGeneratorInfoEE4baseEv
FN:1230,_ZNKSt3__111__wrap_iterIPN5Catch3PtrINS1_22CumulativeReporterBase11SectionNodeEEEE4baseEv
FN:1230,_ZNKSt3__111__wrap_iterIPKN5Catch14AssertionStatsEE4baseEv
FN:1230,_ZNKSt3__111__wrap_iterIPKN5Catch3PtrINS1_22CumulativeReporterBase11SectionNodeEEEE4baseEv
FN:1230,_ZNKSt3__111__wrap_iterIPKPKN5Catch20IExceptionTranslatorEE4baseEv
FN:1230,_ZNKSt3__111__wrap_iterIPKN5Catch5Clara11CommandLineINS1_10ConfigDataEE3ArgEE4baseEv
FN:1230,_ZNKSt3__111__wrap_iterIPKN5Catch8TestCaseEE4baseEv
FN:1230,_ZNKSt3__111__wrap_iterIPKN5Catch3PtrINS1_8TestSpec7PatternEEEE4baseEv
FN:1230,_ZNKSt3__111__wrap_iterIPN5Catch3PtrINS1_18IStreamingReporterEEEE4baseEv
FN:1230,_ZNKSt3__111__wrap_iterIPN5Catch11SectionInfoEE4baseEv
FN:1230,_ZNKSt3__111__wrap_iterIPN5Catch11MessageInfoEE4baseEv
FN:1230,_ZNKSt3__111__wrap_iterIPKN5Catch11SectionInfoEE4baseEv
FN:1230,_ZNKSt3__111__wrap_iterIPN5Catch8TestCaseEE4baseEv
FN:1230,_ZNKSt3__111__wrap_iterIPKN5Catch11MessageInfoEE4baseEv
FN:1230,_ZNKSt3__111__wrap_iterIPcE4baseEv
FN:1230,_ZNKSt3__111__wrap_iterIPKN5Catch3PtrINS1_16IReporterFactoryEEEE4baseEv
FN:1230,_ZNKSt3__111__wrap_iterIPN5Catch14SectionEndInfoEE4baseEv
FN:1239,_ZNSt3__111__wrap_iterIPKPKN5Catch20IExceptionTranslatorEEC1ES6_
FN:1239,_ZNSt3__111__wrap_iterIPKPKN5Catch20IExceptionTranslatorEEC2ES6_
FN:1239,_ZNSt3__111__wrap_iterIPPN5Catch14IGeneratorInfoEEC1ES4_
FN:1239,_ZNSt3__111__wrap_iterIPKN5Catch8TestCaseEEC2ES4_
FN:1239,_ZNSt3__111__wrap_iterIPKN5Catch15ConsoleReporter13SummaryColumnEEC1ES5_
FN:1239,_ZNSt3__111__wrap_iterIPN5Catch11SectionInfoEEC1ES3_
FN:1239,_ZNSt3__111__wrap_iterIPKN5Catch3PtrINS1_22CumulativeReporterBase4NodeINS1_13TestCaseStatsENS3_11SectionNodeEEEEEEC1ESA_
FN:1239,_ZNSt3__111__wrap_iterIPN5Catch3PtrINS1_16TestCaseTracking8ITrackerEEEEC1ES6_
FN:1239,_ZNSt3__111__wrap_iterIPKN5Catch8TestSpec6FilterEEC2ES5_
FN:1239,_ZNSt3__111__wrap_iterIPPN5Catch14IGeneratorInfoEEC2ES4_
FN:1239,_ZNSt3__111__wrap_iterIPKN5Catch11MessageInfoEEC1ES4_
FN:1239,_ZNSt3__111__wrap_iterIPN5Catch3PtrINS1_16TestCaseTracking8ITrackerEEEEC2ES6_
FN:1239,_ZNSt3__111__wrap_iterIPN5Catch8TestCaseEEC2ES3_
FN:1239,_ZNSt3__111__wrap_iterIPNS_12basic_stringIcNS_11char_traitsIcEENS_9allocatorIcEEEEEC2ES7_
FN:1239,_ZNSt3__111__wrap_iterIPKN5Catch15ConsoleReporter13SummaryColumnEEC2ES5_
FN:1239,_ZNSt3__111__wrap_iterIPKN5Catch5Clara11CommandLineINS1_10ConfigDataEE3ArgEEC1ES8_
FN:1239,_ZNSt3__111__wrap_iterIPKN5Catch3PtrINS1_22CumulativeReporterBase11SectionNodeEEEEC2ES7_
FN:1239,_ZNSt3__111__wrap_iterIPPKN5Catch20IExceptionTranslatorEEC2ES5_
FN:1239,_ZNSt3__111__wrap_iterIPKN5Catch8TestSpec6FilterEEC1ES5_
FN:1239,_ZNSt3__111__wrap_iterIPN5Catch8TestCaseEEC1ES3_
FN:1239,_ZNSt3__111__wrap_iterIPN5Catch3PtrINS1_18IStreamingReporterEEEEC2ES5_
FN:1239,_ZNSt3__111__wrap_iterIPN5Catch3PtrINS1_16IReporterFactoryEEEEC1ES5_
FN:1239,_ZNSt3__111__wrap_iterIPcEC2ES1_
FN:1239,_ZNSt3__111__wrap_iterIPN5Catch3PtrINS1_22CumulativeReporterBase11SectionNodeEEEEC2ES6_
FN:1239,_ZNSt3__111__wrap_iterIPKN5Catch8TestCaseEEC1ES4_
FN:1239,_ZNSt3__111__wrap_iterIPKN5Catch11MessageInfoEEC2ES4_
FN:1239,_ZNSt3__111__wrap_iterIPN5Catch3PtrINS1_16IReporterFactoryEEEEC2ES5_
FN:1239,_ZNSt3__111__wrap_iterIPPKN5Catch20IExceptionTranslatorEEC1ES5_
FN:1239,_ZNSt3__111__wrap_iterIPKN5Catch14AssertionStatsEEC1ES4_
FN:1239,_ZNSt3__111__wrap_iterIPN5Catch3PtrINS1_18IStreamingReporterEEEEC1ES5_
FN:1239,_ZNSt3__111__wrap_iterIPKN5Catch14AssertionStatsEEC2ES4_
FN:1239,_ZNSt3__111__wrap_iterIPN5Catch11SectionInfoEEC2ES3_
FN:1239,_ZNSt3__111__wrap_iterIPN5Catch14SectionEndInfoEEC2ES3_
FN:1239,_ZNSt3__111__wrap_iterIPNS_12basic_stringIcNS_11char_traitsIcEENS_9allocatorIcEEEEEC1ES7_
FN:1239,_ZNSt3__111__wrap_iterIPN5Catch3PtrINS1_22CumulativeReporterBase11SectionNodeEEEEC1ES6_
FN:1239,_ZNSt3__111__wrap_iterIPN5Catch14SectionEndInfoEEC1ES3_
FN:1239,_ZNSt3__111__wrap_iterIPKN5Catch3PtrINS1_8TestSpec7PatternEEEEC1ES7_
FN:1239,_ZNSt3__111__wrap_iterIPKN5Catch3PtrINS1_22CumulativeReporterBase11SectionNodeEEEEC1ES7_
FN:1239,_ZNSt3__111__wrap_iterIPKNS_12basic_stringIcNS_11char_traitsIcEENS_9allocatorIcEEEEEC1ES8_
FN:1239,_ZNSt3__111__wrap_iterIPKN5Catch3PtrINS1_22CumulativeReporterBase4NodeINS1_13TestCaseStatsENS3_11SectionNodeEEEEEEC2ESA_
FN:1239,_ZNSt3__111__wrap_iterIPKNS_12basic_stringIcNS_11char_traitsIcEENS_9allocatorIcEEEEEC2ES8_
FN:1239,_ZNSt3__111__wrap_iterIPcEC1ES1_
FN:1239,_ZNSt3__111__wrap_iterIPN5Catch11MessageInfoEEC1ES3_
FN:1239,_ZNSt3__111__wrap_iterIPN5Catch11MessageInfoEEC2ES3_
FN:1239,_ZNSt3__111__wrap_iterIPKN5Catch3PtrINS1_8TestSpec7PatternEEEEC2ES7_
FN:1239,_ZNSt3__111__wrap_iterIPKN5Catch5Clara11CommandLineINS1_10ConfigDataEE3ArgEEC2ES8_
FN:1244,_ZNSt3__16vectorINS_12basic_stringIcNS_11char_traitsIcEENS_9allocatorIcEEEENS4_IS6_EEED2Ev
FN:1244,_ZNSt3__16vectorIN5Catch5Clara6Parser5TokenENS_9allocatorIS4_EEED1Ev
FN:1244,_ZNSt3__16vectorINS0_IN5Catch3PtrINS1_22CumulativeReporterBase11SectionNodeEEENS_9allocatorIS5_EEEENS6_IS8_EEED1Ev
FN:1244,_ZNSt3__16vectorIN5Catch5Clara6Parser5TokenENS_9allocatorIS4_EEED2Ev
FN:1244,_ZNSt3__16vectorIN5Catch3PtrINS1_8TestSpec7PatternEEENS_9allocatorIS5_EEED1Ev
FN:1244,_ZNSt3__16vectorIN5Catch3PtrINS1_18IStreamingReporterEEENS_9allocatorIS4_EEED1Ev
FN:1244,_ZNSt3__16vectorIPN5Catch14IGeneratorInfoENS_9allocatorIS3_EEED1Ev
FN:1244,_ZNSt3__16vectorIN5Catch8TestSpec6FilterENS_9allocatorIS3_EEED1Ev
FN:1244,_ZNSt3__16vectorIPN5Catch16TestCaseTracking8ITrackerENS_9allocatorIS4_EEED2Ev
FN:1244,_ZNSt3__16vectorIN5Catch3PtrINS1_22CumulativeReporterBase4NodeINS1_14TestGroupStatsENS4_INS1_13TestCaseStatsENS3_11SectionNodeEEEEEEENS_9allocatorISA_EEED2Ev
FN:1244,_ZNSt3__16vectorIN5Catch3PtrINS1_18IStreamingReporterEEENS_9allocatorIS4_EEED2Ev
FN:1244,_ZNSt3__16vectorIN5Catch15ConsoleReporter13SummaryColumnENS_9allocatorIS3_EEED1Ev
FN:1244,_ZNSt3__16vectorIN5Catch14AssertionStatsENS_9allocatorIS2_EEED1Ev
FN:1244,_ZNSt3__16vectorINS0_IN5Catch3PtrINS1_22CumulativeReporterBase11SectionNodeEEENS_9allocatorIS5_EEEENS6_IS8_EEED2Ev
FN:1244,_ZNSt3__16vectorIPN5Catch14IGeneratorInfoENS_9allocatorIS3_EEED2Ev
FN:1244,_ZNSt3__16vectorIPN5Catch16TestCaseTracking8ITrackerENS_9allocatorIS4_EEED1Ev
FN:1244,_ZNSt3__16vectorIN5Catch3PtrINS1_22CumulativeReporterBase4NodeINS1_14TestGroupStatsENS4_INS1_13TestCaseStatsENS3_11SectionNodeEEEEEEENS_9allocatorISA_EEED1Ev
FN:1244,_ZNSt3__16vectorIN5Catch15ConsoleReporter13SummaryColumnENS_9allocatorIS3_EEED2Ev
FN:1244,_ZNSt3__16vectorIN5Catch3PtrINS1_22CumulativeReporterBase4NodeINS1_13TestCaseStatsENS3_11SectionNodeEEEEENS_9allocatorIS8_EEED2Ev
FN:1244,_ZNSt3__16vectorIN5Catch5Clara11CommandLineINS1_10ConfigDataEE3ArgENS_9allocatorIS6_EEED1Ev
FN:1244,_ZNSt3__16vectorINS_12basic_stringIcNS_11char_traitsIcEENS_9allocatorIcEEEENS4_IS6_EEED1Ev
FN:1244,_ZNSt3__16vectorIN5Catch3PtrINS1_22CumulativeReporterBase11SectionNodeEEENS_9allocatorIS5_EEED2Ev
FN:1244,_ZNSt3__16vectorIN5Catch11MessageInfoENS_9allocatorIS2_EEED2Ev
FN:1244,_ZNSt3__16vectorIN5Catch3PtrINS1_16TestCaseTracking8ITrackerEEENS_9allocatorIS5_EEED1Ev
FN:1244,_ZNSt3__16vectorIN5Catch3PtrINS1_16IReporterFactoryEEENS_9allocatorIS4_EEED2Ev
FN:1244,_ZNSt3__16vectorIN5Catch3PtrINS1_8TestSpec7PatternEEENS_9allocatorIS5_EEED2Ev
FN:1244,_ZNSt3__16vectorIN5Catch11SectionInfoENS_9allocatorIS2_EEED1Ev
FN:1244,_ZNSt3__16vectorIN5Catch3PtrINS1_22CumulativeReporterBase11SectionNodeEEENS_9allocatorIS5_EEED1Ev
FN:1244,_ZNSt3__16vectorIN5Catch3PtrINS1_22CumulativeReporterBase4NodeINS1_12TestRunStatsENS4_INS1_14TestGroupStatsENS4_INS1_13TestCaseStatsENS3_11SectionNodeEEEEEEEEENS_9allocatorISC_EEED2Ev
FN:1244,_ZNSt3__16vectorIN5Catch14AssertionStatsENS_9allocatorIS2_EEED2Ev
FN:1244,_ZNSt3__16vectorIN5Catch3PtrINS1_16IReporterFactoryEEENS_9allocatorIS4_EEED1Ev
FN:1244,_ZNSt3__16vectorIN5Catch14SectionEndInfoENS_9allocatorIS2_EEED1Ev
FN:1244,_ZNSt3__16vectorIN5Catch14SectionEndInfoENS_9allocatorIS2_EEED2Ev
FN:1244,_ZNSt3__16vectorIN5Catch8TestSpec6FilterENS_9allocatorIS3_EEED2Ev
FN:1244,_ZNSt3__16vectorIN5Catch11SectionInfoENS_9allocatorIS2_EEED2Ev
FN:1244,_ZNSt3__16vectorIN5Catch3PtrINS1_22CumulativeReporterBase4NodeINS1_13TestCaseStatsENS3_11SectionNodeEEEEENS_9allocatorIS8_EEED1Ev
FN:1244,_ZNSt3__16vectorIN5Catch3PtrINS1_22CumulativeReporterBase4NodeINS1_12TestRunStatsENS4_INS1_14TestGroupStatsENS4_INS1_13TestCaseStatsENS3_11SectionNodeEEEEEEEEENS_9allocatorISC_EEED1Ev
FN:1244,_ZNSt3__16vectorIN5Catch5Clara11CommandLineINS1_10ConfigDataEE3ArgENS_9allocatorIS6_EEED2Ev
FN:1244,_ZNSt3__16vectorIN5Catch3PtrINS1_16TestCaseTracking8ITrackerEEENS_9allocatorIS5_EEED2Ev
FN:1244,_ZNSt3__16vectorIN5Catch11MessageInfoENS_9allocatorIS2_EEED1Ev
FN:1304,_ZNSt3__1eqIPN5Catch3PtrINS1_22CumulativeReporterBase11SectionNodeEEES6_EEbRKNS_11__wrap_iterIT_EERKNS7_IT0_EE
FN:1304,_ZNSt3__1eqIPN5Catch11MessageInfoES3_EEbRKNS_11__wrap_iterIT_EERKNS4_IT0_EE
FN:1304,_ZNSt3__1eqIPcS1_EEbRKNS_11__wrap_iterIT_EERKNS2_IT0_EE
FN:1304,_ZNSt3__1eqIPN5Catch3PtrINS1_16TestCaseTracking8ITrackerEEES6_EEbRKNS_11__wrap_iterIT_EERKNS7_IT0_EE
FN:1304,_ZNSt3__1eqIPNS_12basic_stringIcNS_11char_traitsIcEENS_9allocatorIcEEEES7_EEbRKNS_11__wrap_iterIT_EERKNS8_IT0_EE
FN:1304,_ZNSt3__1eqIPKN5Catch8TestCaseES4_EEbRKNS_11__wrap_iterIT_EERKNS5_IT0_EE
FN:1304,_ZNSt3__1eqIPKPKN5Catch20IExceptionTranslatorES6_EEbRKNS_11__wrap_iterIT_EERKNS7_IT0_EE
FN:1304,_ZNSt3__1eqIPKN5Catch8TestSpec6FilterES5_EEbRKNS_11__wrap_iterIT_EERKNS6_IT0_EE
FN:1304,_ZNSt3__1eqIPKN5Catch3PtrINS1_22CumulativeReporterBase4NodeINS1_13TestCaseStatsENS3_11SectionNodeEEEEESA_EEbRKNS_11__wrap_iterIT_EERKNSB_IT0_EE
FN:1304,_ZNSt3__1eqIPKN5Catch14SectionEndInfoES4_EEbRKNS_11__wrap_iterIT_EERKNS5_IT0_EE
FN:1304,_ZNSt3__1eqIPKN5Catch5Clara11CommandLineINS1_10ConfigDataEE3ArgES8_EEbRKNS_11__wrap_iterIT_EERKNS9_IT0_EE
FN:1304,_ZNSt3__1eqIPKPN5Catch14IGeneratorInfoES5_EEbRKNS_11__wrap_iterIT_EERKNS6_IT0_EE
FN:1304,_ZNSt3__1eqIPKN5Catch3PtrINS1_8TestSpec7PatternEEES7_EEbRKNS_11__wrap_iterIT_EERKNS8_IT0_EE
FN:1304,_ZNSt3__1eqIPKN5Catch3PtrINS1_22CumulativeReporterBase11SectionNodeEEEPS5_EEbRKNS_11__wrap_iterIT_EERKNS9_IT0_EE
FN:1304,_ZNSt3__1eqIPKN5Catch14AssertionStatsES4_EEbRKNS_11__wrap_iterIT_EERKNS5_IT0_EE
FN:1304,_ZNSt3__1eqIPKN5Catch3PtrINS1_22CumulativeReporterBase11SectionNodeEEES7_EEbRKNS_11__wrap_iterIT_EERKNS8_IT0_EE
FN:1304,_ZNSt3__1eqIPKN5Catch11SectionInfoES4_EEbRKNS_11__wrap_iterIT_EERKNS5_IT0_EE
FN:1304,_ZNSt3__1eqIPKN5Catch11MessageInfoES4_EEbRKNS_11__wrap_iterIT_EERKNS5_IT0_EE
FN:1304,_ZNSt3__1eqIPKN5Catch11MessageInfoEPS2_EEbRKNS_11__wrap_iterIT_EERKNS6_IT0_EE
FN:1304,_ZNSt3__1eqIPKN5Catch15ConsoleReporter13SummaryColumnES5_EEbRKNS_11__wrap_iterIT_EERKNS6_IT0_EE
FN:1304,_ZNSt3__1eqIPKNS_12basic_stringIcNS_11char_traitsIcEENS_9allocatorIcEEEES8_EEbRKNS_11__wrap_iterIT_EERKNS9_IT0_EE
FN:1304,_ZNSt3__1eqIPKN5Catch3PtrINS1_16TestCaseTracking8ITrackerEEEPS5_EEbRKNS_11__wrap_iterIT_EERKNS9_IT0_EE
FN:1304,_ZNSt3__1eqIPKN5Catch3PtrINS1_16IReporterFactoryEEES6_EEbRKNS_11__wrap_iterIT_EERKNS7_IT0_EE
FN:1304,_ZNSt3__1eqIPKNS_12basic_stringIcNS_11char_traitsIcEENS_9allocatorIcEEEEPS6_EEbRKNS_11__wrap_iterIT_EERKNSA_IT0_EE
FN:1304,_ZNSt3__1eqIPKN5Catch3PtrINS1_18IStreamingReporterEEES6_EEbRKNS_11__wrap_iterIT_EERKNS7_IT0_EE
FN:1312,_ZNSt3__1ltIPN5Catch8TestCaseES3_EEbRKNS_11__wrap_iterIT_EERKNS4_IT0_EE
FN:1324,_ZNSt3__1neIPKN5Catch11MessageInfoEPS2_EEbRKNS_11__wrap_iterIT_EERKNS6_IT0_EE
FN:1324,_ZNSt3__1neIPKNS_12basic_stringIcNS_11char_traitsIcEENS_9allocatorIcEEEEPS6_EEbRKNS_11__wrap_iterIT_EERKNSA_IT0_EE
FN:1324,_ZNSt3__1neIPKN5Catch3PtrINS1_16TestCaseTracking8ITrackerEEEPS5_EEbRKNS_11__wrap_iterIT_EERKNS9_IT0_EE
FN:1356,_ZNSt3__1neIPN5Catch11MessageInfoEEEbRKNS_11__wrap_iterIT_EES8_
FN:1356,_ZNSt3__1neIPKN5Catch14AssertionStatsEEEbRKNS_11__wrap_iterIT_EES9_
FN:1356,_ZNSt3__1neIPKN5Catch3PtrINS1_22CumulativeReporterBase4NodeINS1_13TestCaseStatsENS3_11SectionNodeEEEEEEEbRKNS_11__wrap_iterIT_EESF_
FN:1356,_ZNSt3__1neIPKN5Catch8TestSpec6FilterEEEbRKNS_11__wrap_iterIT_EESA_
FN:1356,_ZNSt3__1neIPKN5Catch3PtrINS1_22CumulativeReporterBase11SectionNodeEEEEEbRKNS_11__wrap_iterIT_EESC_
FN:1356,_ZNSt3__1neIPN5Catch3PtrINS1_22CumulativeReporterBase11SectionNodeEEEEEbRKNS_11__wrap_iterIT_EESB_
FN:1356,_ZNSt3__1neIPcEEbRKNS_11__wrap_iterIT_EES6_
FN:1356,_ZNSt3__1neIPKN5Catch3PtrINS1_18IStreamingReporterEEEEEbRKNS_11__wrap_iterIT_EESB_
FN:1356,_ZNSt3__1neIPKPKN5Catch20IExceptionTranslatorEEEbRKNS_11__wrap_iterIT_EESB_
FN:1356,_ZNSt3__1neIPNS_12basic_stringIcNS_11char_traitsIcEENS_9allocatorIcEEEEEEbRKNS_11__wrap_iterIT_EESC_
FN:1356,_ZNSt3__1neIPKN5Catch3PtrINS1_8TestSpec7PatternEEEEEbRKNS_11__wrap_iterIT_EESC_
FN:1356,_ZNSt3__1neIPN5Catch3PtrINS1_16TestCaseTracking8ITrackerEEEEEbRKNS_11__wrap_iterIT_EESB_
FN:1356,_ZNSt3__1neIPKN5Catch3PtrINS1_16IReporterFactoryEEEEEbRKNS_11__wrap_iterIT_EESB_
FN:1356,_ZNSt3__1neIPKN5Catch11MessageInfoEEEbRKNS_11__wrap_iterIT_EES9_
FN:1356,_ZNSt3__1neIPKN5Catch5Clara11CommandLineINS1_10ConfigDataEE3ArgEEEbRKNS_11__wrap_iterIT_EESD_
FN:1356,_ZNSt3__1neIPKPN5Catch14IGeneratorInfoEEEbRKNS_11__wrap_iterIT_EESA_
FN:1356,_ZNSt3__1neIPKNS_12basic_stringIcNS_11char_traitsIcEENS_9allocatorIcEEEEEEbRKNS_11__wrap_iterIT_EESD_
FN:1356,_ZNSt3__1neIPKN5Catch15ConsoleReporter13SummaryColumnEEEbRKNS_11__wrap_iterIT_EESA_
FN:1356,_ZNSt3__1neIPKN5Catch14SectionEndInfoEEEbRKNS_11__wrap_iterIT_EES9_
FN:1356,_ZNSt3__1neIPKN5Catch11SectionInfoEEEbRKNS_11__wrap_iterIT_EES9_
FN:1356,_ZNSt3__1neIPKN5Catch8TestCaseEEEbRKNS_11__wrap_iterIT_EES9_
FN:1388,_ZNSt3__1miIPKN5Catch11MessageInfoES4_EENS_11__wrap_iterIT_E15difference_typeERKS7_RKNS5_IT0_EE
FN:1388,_ZNSt3__1miIPN5Catch8TestCaseES3_EENS_11__wrap_iterIT_E15difference_typeERKS6_RKNS4_IT0_EE
FN:1388,_ZNSt3__1miIPKN5Catch11MessageInfoEPS2_EENS_11__wrap_iterIT_E15difference_typeERKS8_RKNS6_IT0_EE
FNDA:47,_ZNSt3__1eqIPcS1_EEbRKNS_11__wrap_iterIT_EERKNS2_IT0_EE
FNDA:24,_ZNKSt3__111__wrap_iterIPKN5Catch11MessageInfoEEptEv
FNDA:8,_ZNSt3__116reverse_iteratorINS_11__wrap_iterIPKN5Catch14SectionEndInfoEEEEC1INS1_IPS3_EEEERKNS0_IT_EE
FNDA:110,_ZNKSt3__111__wrap_iterIPNS_12basic_stringIcNS_11char_traitsIcEENS_9allocatorIcEEEEE4baseEv
FNDA:268,_ZNSt3__16vectorIN5Catch5Clara6Parser5TokenENS_9allocatorIS4_EEED2Ev
FNDA:16,_ZNSt3__111__wrap_iterIPKN5Catch8TestCaseEEC1IPS2_EERKNS0_IT_EEPNS_9enable_ifIXsr14is_convertibleIS8_S4_EE5valueEvE4typeE
FNDA:45,_ZNSt3__119ostreambuf_iteratorIcNS_11char_traitsIcEEEC1ERNS_13basic_ostreamIcS2_EE
FNDA:45,_ZNSt3__1neIPKN5Catch8TestSpec6FilterEEEbRKNS_11__wrap_iterIT_EESA_
FNDA:16,_ZNSt3__111__wrap_iterIPKN5Catch14SectionEndInfoEEC1IPS2_EERKNS0_IT_EEPNS_9enable_ifIXsr14is_convertibleIS8_S4_EE5valueEvE4typeE
FNDA:16,_ZNSt3__111__wrap_iterIPKN5Catch3PtrINS1_22CumulativeReporterBase11SectionNodeEEEEC2IPS5_EERKNS0_IT_EEPNS_9enable_ifIXsr14is_convertibleISB_S7_EE5valueEvE4typeE
FNDA:58,_ZNSt3__18distanceINS_11__wrap_iterIPKN5Catch11MessageInfoEEEEENS_15iterator_traitsIT_E15difference_typeES8_S8_
FNDA:45,_ZNSt3__1neIPN5Catch3PtrINS1_22CumulativeReporterBase11SectionNodeEEEEEbRKNS_11__wrap_iterIT_EESB_
FNDA:268,_ZNSt3__16vectorIPN5Catch14IGeneratorInfoENS_9allocatorIS3_EEED1Ev
FNDA:66,_ZNSt3__111__wrap_iterIPKN5Catch8TestSpec6FilterEEC2ES5_
FNDA:66,_ZNSt3__111__wrap_iterIPPN5Catch14IGeneratorInfoEEC2ES4_
FNDA:0,_ZNSt3__111__wrap_iterIPN5Catch8TestCaseEEpLEl
FNDA:66,_ZNSt3__111__wrap_iterIPKN5Catch3PtrINS1_22CumulativeReporterBase4NodeINS1_13TestCaseStatsENS3_11SectionNodeEEEEEEC1ESA_
FNDA:110,_ZNKSt3__111__wrap_iterIPPN5Catch14IGeneratorInfoEE4baseEv
FNDA:66,_ZNSt3__111__wrap_iterIPN5Catch3PtrINS1_16TestCaseTracking8ITrackerEEEEC1ES6_
FNDA:66,_ZNSt3__111__wrap_iterIPKN5Catch15ConsoleReporter13SummaryColumnEEC1ES5_
FNDA:268,_ZNSt3__16vectorIN5Catch3PtrINS1_18IStreamingReporterEEENS_9allocatorIS4_EEED1Ev
FNDA:45,_ZNSt3__1neIPKN5Catch3PtrINS1_22CumulativeReporterBase11SectionNodeEEEEEbRKNS_11__wrap_iterIT_EESC_
FNDA:66,_ZNSt3__111__wrap_iterIPN5Catch11SectionInfoEEC1ES3_
FNDA:16,_ZNSt3__111__wrap_iterIPKN5Catch11SectionInfoEEC1IPS2_EERKNS0_IT_EEPNS_9enable_ifIXsr14is_convertibleIS8_S4_EE5valueEvE4typeE
FNDA:268,_ZNSt3__16vectorIN5Catch3PtrINS1_8TestSpec7PatternEEENS_9allocatorIS5_EEED1Ev
FNDA:11,_ZNKSt3__111__wrap_iterIPKN5Catch14SectionEndInfoEEdeEv
FNDA:11,_ZNKSt3__111__wrap_iterIPKN5Catch3PtrINS1_8TestSpec7PatternEEEEdeEv
FNDA:110,_ZNKSt3__111__wrap_iterIPKN5Catch8TestSpec6FilterEE4baseEv
FNDA:2,_ZNSt3__1neIPKN5Catch11MessageInfoEPS2_EEbRKNS_11__wrap_iterIT_EERKNS6_IT0_EE
FNDA:66,_ZNSt3__111__wrap_iterIPPN5Catch14IGeneratorInfoEEC1ES4_
FNDA:45,_ZNSt3__1neIPKN5Catch14AssertionStatsEEEbRKNS_11__wrap_iterIT_EES9_
FNDA:16,_ZNSt3__111__wrap_iterIPKPN5Catch14IGeneratorInfoEEC1IPS3_EERKNS0_IT_EEPNS_9enable_ifIXsr14is_convertibleIS9_S5_EE5valueEvE4typeE
FNDA:110,_ZNKSt3__111__wrap_iterIPKNS_12basic_stringIcNS_11char_traitsIcEENS_9allocatorIcEEEEE4baseEv
FNDA:0,_ZNSt3__19__advanceINS_21__tree_const_iteratorINS_12basic_stringIcNS_11char_traitsIcEENS_9allocatorIcEEEEPNS_11__tree_nodeIS7_PvEElEEEEvRT_NS_15iterator_traitsISD_E15difference_typeENS_26bidirectional_iterator_tagE
FNDA:47,_ZNSt3__1eqIPN5Catch3PtrINS1_22CumulativeReporterBase11SectionNodeEEES6_EEbRKNS_11__wrap_iterIT_EERKNS7_IT0_EE
FNDA:31,_ZNSt3__111__wrap_iterIPN5Catch11MessageInfoEEppEv
FNDA:66,_ZNSt3__111__wrap_iterIPKPKN5Catch20IExceptionTranslatorEEC1ES6_
FNDA:268,_ZNSt3__16vectorIN5Catch5Clara6Parser5TokenENS_9allocatorIS4_EEED1Ev
FNDA:66,_ZNSt3__111__wrap_iterIPKPKN5Catch20IExceptionTranslatorEEC2ES6_
FNDA:45,_ZNSt3__1neIPN5Catch11MessageInfoEEEbRKNS_11__wrap_iterIT_EES8_
FNDA:268,_ZNSt3__16vectorINS_12basic_stringIcNS_11char_traitsIcEENS_9allocatorIcEEEENS4_IS6_EEED2Ev
FNDA:31,_ZNSt3__111__wrap_iterIPN5Catch3PtrINS1_22CumulativeReporterBase11SectionNodeEEEEppEv
FNDA:0,_ZNSt3__1ltIPN5Catch8TestCaseES3_EEbRKNS_11__wrap_iterIT_EERKNS4_IT0_EE
FNDA:110,_ZNKSt3__111__wrap_iterIPKN5Catch14SectionEndInfoEE4baseEv
FNDA:11,_ZNKSt3__111__wrap_iterIPcEdeEv
FNDA:268,_ZNSt3__16vectorINS0_IN5Catch3PtrINS1_22CumulativeReporterBase11SectionNodeEEENS_9allocatorIS5_EEEENS6_IS8_EEED1Ev
FNDA:45,_ZNSt3__119ostreambuf_iteratorIcNS_11char_traitsIcEEEC2ERNS_13basic_ostreamIcS2_EE
FNDA:110,_ZNKSt3__111__wrap_iterIPPKN5Catch20IExceptionTranslatorEE4baseEv
FNDA:66,_ZNSt3__111__wrap_iterIPKN5Catch8TestCaseEEC2ES4_
FNDA:31,_ZNSt3__111__wrap_iterIPN5Catch8TestCaseEEppEv
FNDA:47,_ZNSt3__1eqIPN5Catch11MessageInfoES3_EEbRKNS_11__wrap_iterIT_EERKNS4_IT0_EE
FNDA:16,_ZNSt3__111__wrap_iterIPKPKN5Catch20IExceptionTranslatorEEC1IPS4_EERKNS0_IT_EEPNS_9enable_ifIXsr14is_convertibleISA_S6_EE5valueEvE4typeE
FNDA:11,_ZNKSt3__111__wrap_iterIPKPKN5Catch20IExceptionTranslatorEEdeEv
FNDA:110,_ZNKSt3__111__wrap_iterIPKN5Catch3PtrINS1_22CumulativeReporterBase4NodeINS1_13TestCaseStatsENS3_11SectionNodeEEEEEE4baseEv
FNDA:45,_ZNSt3__1neIPKN5Catch3PtrINS1_22CumulativeReporterBase4NodeINS1_13TestCaseStatsENS3_11SectionNodeEEEEEEEbRKNS_11__wrap_iterIT_EESF_
FNDA:31,_ZNSt3__111__wrap_iterIPcEppEv
FNDA:110,_ZNKSt3__111__wrap_iterIPKN5Catch3PtrINS1_16TestCaseTracking8ITrackerEEEE4baseEv
FNDA:66,_ZNSt3__111__wrap_iterIPKN5Catch5Clara11CommandLineINS1_10ConfigDataEE3ArgEEC1ES8_
FNDA:24,_ZNKSt3__111__wrap_iterIPKN5Catch3PtrINS1_16TestCaseTracking8ITrackerEEEEptEv
FNDA:66,_ZNSt3__111__wrap_iterIPKN5Catch3PtrINS1_22CumulativeReporterBase11SectionNodeEEEEC2ES7_
FNDA:11,_ZNKSt3__111__wrap_iterIPKN5Catch3PtrINS1_22CumulativeReporterBase11SectionNodeEEEEdeEv
FNDA:268,_ZNSt3__16vectorINS0_IN5Catch3PtrINS1_22CumulativeReporterBase11SectionNodeEEENS_9allocatorIS5_EEEENS6_IS8_EEED2Ev
FNDA:11,_ZNKSt3__111__wrap_iterIPKN5Catch3PtrINS1_16IReporterFactoryEEEEdeEv
FNDA:31,_ZNSt3__111__wrap_iterIPKN5Catch3PtrINS1_8TestSpec7PatternEEEEppEv
FNDA:110,_ZNKSt3__111__wrap_iterIPKN5Catch15ConsoleReporter13SummaryColumnEE4baseEv
FNDA:268,_ZNSt3__16vectorIPN5Catch14IGeneratorInfoENS_9allocatorIS3_EEED2Ev
FNDA:2,_ZNSt3__1neIPKNS_12basic_stringIcNS_11char_traitsIcEENS_9allocatorIcEEEEPS6_EEbRKNS_11__wrap_iterIT_EERKNSA_IT0_EE
FNDA:268,_ZNSt3__16vectorIN5Catch3PtrINS1_18IStreamingReporterEEENS_9allocatorIS4_EEED2Ev
FNDA:45,_ZNSt3__1neIPNS_12basic_stringIcNS_11char_traitsIcEENS_9allocatorIcEEEEEEbRKNS_11__wrap_iterIT_EESC_
FNDA:66,_ZNSt3__111__wrap_iterIPKN5Catch15ConsoleReporter13SummaryColumnEEC2ES5_
FNDA:45,_ZNSt3__1neIPKN5Catch3PtrINS1_8TestSpec7PatternEEEEEbRKNS_11__wrap_iterIT_EESC_
FNDA:268,_ZNSt3__16vectorIN5Catch14AssertionStatsENS_9allocatorIS2_EEED1Ev
FNDA:268,_ZNSt3__16vectorIN5Catch15ConsoleReporter13SummaryColumnENS_9allocatorIS3_EEED1Ev
FNDA:31,_ZNSt3__111__wrap_iterIPKN5Catch15ConsoleReporter13SummaryColumnEEppEv
FNDA:11,_ZNKSt3__111__wrap_iterIPNS_12basic_stringIcNS_11char_traitsIcEENS_9allocatorIcEEEEEdeEv
FNDA:31,_ZNSt3__111__wrap_iterIPKN5Catch11SectionInfoEEppEv
FNDA:16,_ZNSt3__111__wrap_iterIPKN5Catch11SectionInfoEEC2IPS2_EERKNS0_IT_EEPNS_9enable_ifIXsr14is_convertibleIS8_S4_EE5valueEvE4typeE
FNDA:66,_ZNSt3__111__wrap_iterIPNS_12basic_stringIcNS_11char_traitsIcEENS_9allocatorIcEEEEEC2ES7_
FNDA:110,_ZNKSt3__111__wrap_iterIPN5Catch3PtrINS1_16IReporterFactoryEEEE4baseEv
FNDA:268,_ZNSt3__16vectorIPN5Catch16TestCaseTracking8ITrackerENS_9allocatorIS4_EEED2Ev
FNDA:268,_ZNSt3__16vectorIN5Catch3PtrINS1_22CumulativeReporterBase4NodeINS1_14TestGroupStatsENS4_INS1_13TestCaseStatsENS3_11SectionNodeEEEEEEENS_9allocatorISA_EEED2Ev
FNDA:11,_ZNKSt3__111__wrap_iterIPN5Catch3PtrINS1_16TestCaseTracking8ITrackerEEEEdeEv
FNDA:45,_ZNSt3__1neIPN5Catch3PtrINS1_16TestCaseTracking8ITrackerEEEEEbRKNS_11__wrap_iterIT_EESB_
FNDA:0,_ZNSt3__1miIPKN5Catch11MessageInfoES4_EENS_11__wrap_iterIT_E15difference_typeERKS7_RKNS5_IT0_EE
FNDA:47,_ZNSt3__1eqIPKN5Catch8TestSpec6FilterES5_EEbRKNS_11__wrap_iterIT_EERKNS6_IT0_EE
FNDA:45,_ZNSt3__1neIPKN5Catch3PtrINS1_16IReporterFactoryEEEEEbRKNS_11__wrap_iterIT_EESB_
FNDA:45,_ZNSt3__1neIPKN5Catch11MessageInfoEEEbRKNS_11__wrap_iterIT_EES9_
FNDA:16,_ZNSt3__111__wrap_iterIPKN5Catch3PtrINS1_18IStreamingReporterEEEEC1IPS4_EERKNS0_IT_EEPNS_9enable_ifIXsr14is_convertibleISA_S6_EE5valueEvE4typeE
FNDA:24,_ZNKSt3__111__wrap_iterIPKN5Catch15ConsoleReporter13SummaryColumnEEptEv
FNDA:268,_ZNSt3__16vectorIPN5Catch16TestCaseTracking8ITrackerENS_9allocatorIS4_EEED1Ev
FNDA:66,_ZNSt3__111__wrap_iterIPPKN5Catch20IExceptionTranslatorEEC2ES5_
FNDA:16,_ZNSt3__111__wrap_iterIPKNS_12basic_stringIcNS_11char_traitsIcEENS_9allocatorIcEEEEEC1IPS6_EERKNS0_IT_EEPNS_9enable_ifIXsr14is_convertibleISC_S8_EE5valueEvE4typeE
FNDA:110,_ZNKSt3__111__wrap_iterIPKPN5Catch14IGeneratorInfoEE4baseEv
FNDA:47,_ZNSt3__1eqIPKPKN5Catch20IExceptionTranslatorES6_EEbRKNS_11__wrap_iterIT_EERKNS7_IT0_EE
FNDA:16,_ZNSt3__111__wrap_iterIPKN5Catch3PtrINS1_16IReporterFactoryEEEEC2IPS4_EERKNS0_IT_EEPNS_9enable_ifIXsr14is_convertibleISA_S6_EE5valueEvE4typeE
FNDA:0,_ZNSt3__111__wrap_iterIPKN5Catch5Clara11CommandLineINS1_10ConfigDataEE3ArgEEC2Ev
FNDA:16,_ZNSt3__111__wrap_iterIPKPN5Catch14IGeneratorInfoEEC2IPS3_EERKNS0_IT_EEPNS_9enable_ifIXsr14is_convertibleIS9_S5_EE5valueEvE4typeE
FNDA:47,_ZNSt3__1eqIPNS_12basic_stringIcNS_11char_traitsIcEENS_9allocatorIcEEEES7_EEbRKNS_11__wrap_iterIT_EERKNS8_IT0_EE
FNDA:110,_ZNKSt3__111__wrap_iterIPKN5Catch3PtrINS1_18IStreamingReporterEEEE4baseEv
FNDA:12,_ZNKSt3__116reverse_iteratorINS_11__wrap_iterIPN5Catch14SectionEndInfoEEEE4baseEv
FNDA:110,_ZNKSt3__111__wrap_iterIPN5Catch3PtrINS1_16TestCaseTracking8ITrackerEEEE4baseEv
FNDA:47,_ZNSt3__1eqIPKN5Catch8TestCaseES4_EEbRKNS_11__wrap_iterIT_EERKNS5_IT0_EE
FNDA:45,_ZNSt3__1neIPcEEbRKNS_11__wrap_iterIT_EES6_
FNDA:0,_ZNSt3__14nextINS_21__tree_const_iteratorINS_12basic_stringIcNS_11char_traitsIcEENS_9allocatorIcEEEEPNS_11__tree_nodeIS7_PvEElEEEET_SD_NS_15iterator_traitsISD_E15difference_typeEPNS_9enable_ifIXsr21__is_forward_iteratorISD_EE5valueEvE4typeE
FNDA:58,_ZNSt3__110__distanceIPcEENS_15iterator_traitsIT_E15difference_typeES3_S3_NS_26random_access_iterator_tagE
FNDA:47,_ZNSt3__1eqIPN5Catch3PtrINS1_16TestCaseTracking8ITrackerEEES6_EEbRKNS_11__wrap_iterIT_EERKNS7_IT0_EE
FNDA:16,_ZNSt3__111__wrap_iterIPKN5Catch11MessageInfoEEC2IPS2_EERKNS0_IT_EEPNS_9enable_ifIXsr14is_convertibleIS8_S4_EE5valueEvE4typeE
FNDA:66,_ZNSt3__111__wrap_iterIPKN5Catch11MessageInfoEEC1ES4_
FNDA:31,_ZNSt3__111__wrap_iterIPKN5Catch8TestCaseEEppEv
FNDA:24,_ZNKSt3__111__wrap_iterIPKN5Catch8TestSpec6FilterEEptEv
FNDA:45,_ZNSt3__1neIPKPKN5Catch20IExceptionTranslatorEEEbRKNS_11__wrap_iterIT_EESB_
FNDA:66,_ZNSt3__111__wrap_iterIPN5Catch3PtrINS1_16TestCaseTracking8ITrackerEEEEC2ES6_
FNDA:66,_ZNSt3__111__wrap_iterIPN5Catch8TestCaseEEC2ES3_
FNDA:8,_ZNSt3__116reverse_iteratorINS_11__wrap_iterIPN5Catch14SectionEndInfoEEEEC2ES5_
FNDA:45,_ZNSt3__1neIPKN5Catch3PtrINS1_18IStreamingReporterEEEEEbRKNS_11__wrap_iterIT_EESB_
FNDA:58,_ZNSt3__18distanceIPcEENS_15iterator_traitsIT_E15difference_typeES3_S3_
FNDA:0,_ZNKSt3__111__wrap_iterIPN5Catch8TestCaseEEplEl
FNDA:268,_ZNSt3__16vectorIN5Catch8TestSpec6FilterENS_9allocatorIS3_EEED1Ev
FNDA:66,_ZNSt3__111__wrap_iterIPPKN5Catch20IExceptionTranslatorEEC1ES5_
FNDA:47,_ZNSt3__1eqIPKN5Catch11SectionInfoES4_EEbRKNS_11__wrap_iterIT_EERKNS5_IT0_EE
FNDA:24,_ZNKSt3__111__wrap_iterIPKN5Catch8TestCaseEEptEv
FNDA:24,_ZNKSt3__111__wrap_iterIPKN5Catch11SectionInfoEEptEv
FNDA:268,_ZNSt3__16vectorIN5Catch3PtrINS1_22CumulativeReporterBase11SectionNodeEEENS_9allocatorIS5_EEED2Ev
FNDA:47,_ZNSt3__1eqIPKN5Catch11MessageInfoES4_EEbRKNS_11__wrap_iterIT_EERKNS5_IT0_EE
FNDA:268,_ZNSt3__16vectorIN5Catch11MessageInfoENS_9allocatorIS2_EEED2Ev
FNDA:0,_ZNSt3__116reverse_iteratorINS_11__wrap_iterIPKN5Catch14SectionEndInfoEEEEppEv
FNDA:110,_ZNKSt3__111__wrap_iterIPKN5Catch3PtrINS1_22CumulativeReporterBase11SectionNodeEEEE4baseEv
FNDA:24,_ZNKSt3__111__wrap_iterIPNS_12basic_stringIcNS_11char_traitsIcEENS_9allocatorIcEEEEEptEv
FNDA:11,_ZNKSt3__111__wrap_iterIPKPN5Catch14IGeneratorInfoEEdeEv
FNDA:66,_ZNSt3__111__wrap_iterIPKN5Catch11MessageInfoEEC2ES4_
FNDA:66,_ZNSt3__111__wrap_iterIPKN5Catch8TestCaseEEC1ES4_
FNDA:66,_ZNSt3__111__wrap_iterIPN5Catch3PtrINS1_16IReporterFactoryEEEEC2ES5_
FNDA:47,_ZNSt3__1eqIPKN5Catch14AssertionStatsES4_EEbRKNS_11__wrap_iterIT_EERKNS5_IT0_EE
FNDA:16,_ZNSt3__111__wrap_iterIPKN5Catch3PtrINS1_16TestCaseTracking8ITrackerEEEEC1IPS5_EERKNS0_IT_EEPNS_9enable_ifIXsr14is_convertibleISB_S7_EE5valueEvE4typeE
FNDA:47,_ZNSt3__1eqIPKN5Catch3PtrINS1_22CumulativeReporterBase11SectionNodeEEES7_EEbRKNS_11__wrap_iterIT_EERKNS8_IT0_EE
FNDA:31,_ZNSt3__111__wrap_iterIPKPKN5Catch20IExceptionTranslatorEEppEv
FNDA:47,_ZNSt3__1eqIPKN5Catch11MessageInfoEPS2_EEbRKNS_11__wrap_iterIT_EERKNS6_IT0_EE
FNDA:66,_ZNSt3__111__wrap_iterIPN5Catch11SectionInfoEEC2ES3_
FNDA:66,_ZNSt3__111__wrap_iterIPN5Catch14SectionEndInfoEEC2ES3_
FNDA:0,_ZNSt3__1miIPN5Catch8TestCaseES3_EENS_11__wrap_iterIT_E15difference_typeERKS6_RKNS4_IT0_EE
FNDA:66,_ZNSt3__111__wrap_iterIPNS_12basic_stringIcNS_11char_traitsIcEENS_9allocatorIcEEEEEC1ES7_
FNDA:268,_ZNSt3__16vectorIN5Catch3PtrINS1_22CumulativeReporterBase11SectionNodeEEENS_9allocatorIS5_EEED1Ev
FNDA:66,_ZNSt3__111__wrap_iterIPKN5Catch14AssertionStatsEEC1ES4_
FNDA:11,_ZNKSt3__111__wrap_iterIPKN5Catch8TestCaseEEdeEv
FNDA:110,_ZNKSt3__111__wrap_iterIPKN5Catch5Clara11CommandLineINS1_10ConfigDataEE3ArgEE4baseEv
FNDA:66,_ZNSt3__111__wrap_iterIPN5Catch3PtrINS1_18IStreamingReporterEEEEC1ES5_
FNDA:66,_ZNSt3__111__wrap_iterIPKN5Catch14AssertionStatsEEC2ES4_
FNDA:45,_ZNSt3__1neIPKN5Catch15ConsoleReporter13SummaryColumnEEEbRKNS_11__wrap_iterIT_EESA_
FNDA:45,_ZNSt3__1neIPKPN5Catch14IGeneratorInfoEEEbRKNS_11__wrap_iterIT_EESA_
FNDA:268,_ZNSt3__16vectorIN5Catch3PtrINS1_8TestSpec7PatternEEENS_9allocatorIS5_EEED2Ev
FNDA:268,_ZNSt3__16vectorIN5Catch11SectionInfoENS_9allocatorIS2_EEED1Ev
FNDA:31,_ZNSt3__111__wrap_iterIPKN5Catch3PtrINS1_16IReporterFactoryEEEEppEv
FNDA:45,_ZNSt3__1neIPKNS_12basic_stringIcNS_11char_traitsIcEENS_9allocatorIcEEEEEEbRKNS_11__wrap_iterIT_EESD_
FNDA:0,_ZNKSt3__111__wrap_iterIPKPKN5Catch20IExceptionTranslatorEEplEl
FNDA:0,_ZNSt3__111__wrap_iterIPKN5Catch14SectionEndInfoEEmmEv
FNDA:268,_ZNSt3__16vectorIN5Catch3PtrINS1_16TestCaseTracking8ITrackerEEENS_9allocatorIS5_EEED1Ev
FNDA:110,_ZNKSt3__111__wrap_iterIPKPKN5Catch20IExceptionTranslatorEE4baseEv
FNDA:31,_ZNSt3__111__wrap_iterIPN5Catch3PtrINS1_16TestCaseTracking8ITrackerEEEEppEv
FNDA:268,_ZNSt3__16vectorIN5Catch3PtrINS1_16IReporterFactoryEEENS_9allocatorIS4_EEED2Ev
FNDA:66,_ZNSt3__111__wrap_iterIPN5Catch3PtrINS1_18IStreamingReporterEEEEC2ES5_
FNDA:268,_ZNSt3__16vectorIN5Catch15ConsoleReporter13SummaryColumnENS_9allocatorIS3_EEED2Ev
FNDA:0,_ZNSt3__111__wrap_iterIPKN5Catch5Clara11CommandLineINS1_10ConfigDataEE3ArgEEC1Ev
FNDA:268,_ZNSt3__16vectorIN5Catch3PtrINS1_22CumulativeReporterBase4NodeINS1_13TestCaseStatsENS3_11SectionNodeEEEEENS_9allocatorIS8_EEED2Ev
FNDA:31,_ZNSt3__111__wrap_iterIPKNS_12basic_stringIcNS_11char_traitsIcEENS_9allocatorIcEEEEEppEv
FNDA:268,_ZNSt3__16vectorIN5Catch3PtrINS1_22CumulativeReporterBase4NodeINS1_14TestGroupStatsENS4_INS1_13TestCaseStatsENS3_11SectionNodeEEEEEEENS_9allocatorISA_EEED1Ev
FNDA:31,_ZNSt3__111__wrap_iterIPKN5Catch5Clara11CommandLineINS1_10ConfigDataEE3ArgEEppEv
FNDA:11,_ZNKSt3__111__wrap_iterIPKN5Catch3PtrINS1_18IStreamingReporterEEEEdeEv
FNDA:47,_ZNSt3__1eqIPKN5Catch14SectionEndInfoES4_EEbRKNS_11__wrap_iterIT_EERKNS5_IT0_EE
FNDA:0,_ZNKSt3__111__wrap_iterIPN5Catch11SectionInfoEEplEl
FNDA:66,_ZNSt3__111__wrap_iterIPN5Catch8TestCaseEEC1ES3_
FNDA:11,_ZNKSt3__111__wrap_iterIPN5Catch3PtrINS1_22CumulativeReporterBase11SectionNodeEEEEdeEv
FNDA:31,_ZNSt3__111__wrap_iterIPKN5Catch14AssertionStatsEEppEv
FNDA:11,_ZNKSt3__111__wrap_iterIPN5Catch8TestCaseEEdeEv
FNDA:8,_ZNSt3__116reverse_iteratorINS_11__wrap_iterIPKN5Catch14SectionEndInfoEEEEC2INS1_IPS3_EEEERKNS0_IT_EE
FNDA:66,_ZNSt3__111__wrap_iterIPKN5Catch8TestSpec6FilterEEC1ES5_
FNDA:11,_ZNKSt3__111__wrap_iterIPKNS_12basic_stringIcNS_11char_traitsIcEENS_9allocatorIcEEEEEdeEv
FNDA:16,_ZNSt3__111__wrap_iterIPKN5Catch3PtrINS1_18IStreamingReporterEEEEC2IPS4_EERKNS0_IT_EEPNS_9enable_ifIXsr14is_convertibleISA_S6_EE5valueEvE4typeE
FNDA:16,_ZNSt3__111__wrap_iterIPKN5Catch11MessageInfoEEC1IPS2_EERKNS0_IT_EEPNS_9enable_ifIXsr14is_convertibleIS8_S4_EE5valueEvE4typeE
FNDA:47,_ZNSt3__1eqIPKN5Catch3PtrINS1_22CumulativeReporterBase4NodeINS1_13TestCaseStatsENS3_11SectionNodeEEEEESA_EEbRKNS_11__wrap_iterIT_EERKNSB_IT0_EE
FNDA:45,_ZNSt3__1neIPKN5Catch5Clara11CommandLineINS1_10ConfigDataEE3ArgEEEbRKNS_11__wrap_iterIT_EESD_
FNDA:12,_ZNKSt3__116reverse_iteratorINS_11__wrap_iterIPKN5Catch14SectionEndInfoEEEE4baseEv
FNDA:31,_ZNSt3__111__wrap_iterIPKN5Catch8TestSpec6FilterEEppEv
FNDA:47,_ZNSt3__1eqIPKN5Catch3PtrINS1_8TestSpec7PatternEEES7_EEbRKNS_11__wrap_iterIT_EERKNS8_IT0_EE
FNDA:47,_ZNSt3__1eqIPKN5Catch3PtrINS1_22CumulativeReporterBase11SectionNodeEEEPS5_EEbRKNS_11__wrap_iterIT_EERKNS9_IT0_EE
FNDA:0,_ZNKSt3__116reverse_iteratorINS_11__wrap_iterIPKN5Catch14SectionEndInfoEEEEdeEv
FNDA:268,_ZNSt3__16vectorINS_12basic_stringIcNS_11char_traitsIcEENS_9allocatorIcEEEENS4_IS6_EEED1Ev
FNDA:47,_ZNSt3__1eqIPKN5Catch5Clara11CommandLineINS1_10ConfigDataEE3ArgES8_EEbRKNS_11__wrap_iterIT_EERKNS9_IT0_EE
FNDA:66,_ZNSt3__111__wrap_iterIPN5Catch3PtrINS1_16IReporterFactoryEEEEC1ES5_
FNDA:47,_ZNSt3__1eqIPKPN5Catch14IGeneratorInfoES5_EEbRKNS_11__wrap_iterIT_EERKNS6_IT0_EE
FNDA:0,_ZNSt3__17advanceINS_21__tree_const_iteratorINS_12basic_stringIcNS_11char_traitsIcEENS_9allocatorIcEEEEPNS_11__tree_nodeIS7_PvEElEEEEvRT_NS_15iterator_traitsISD_E15difference_typeE
FNDA:66,_ZNSt3__111__wrap_iterIPcEC2ES1_
FNDA:110,_ZNKSt3__111__wrap_iterIPKN5Catch14AssertionStatsEE4baseEv
FNDA:66,_ZNSt3__111__wrap_iterIPN5Catch3PtrINS1_22CumulativeReporterBase11SectionNodeEEEEC2ES6_
FNDA:16,_ZNSt3__111__wrap_iterIPKN5Catch3PtrINS1_16TestCaseTracking8ITrackerEEEEC2IPS5_EERKNS0_IT_EEPNS_9enable_ifIXsr14is_convertibleISB_S7_EE5valueEvE4typeE
FNDA:16,_ZNSt3__111__wrap_iterIPKN5Catch14SectionEndInfoEEC2IPS2_EERKNS0_IT_EEPNS_9enable_ifIXsr14is_convertibleIS8_S4_EE5valueEvE4typeE
FNDA:268,_ZNSt3__16vectorIN5Catch5Clara11CommandLineINS1_10ConfigDataEE3ArgENS_9allocatorIS6_EEED1Ev
FNDA:15,_ZNKSt3__119ostreambuf_iteratorIcNS_11char_traitsIcEEE6failedEv
FNDA:110,_ZNKSt3__111__wrap_iterIPN5Catch3PtrINS1_22CumulativeReporterBase11SectionNodeEEEE4baseEv
FNDA:268,_ZNSt3__16vectorIN5Catch3PtrINS1_22CumulativeReporterBase4NodeINS1_13TestCaseStatsENS3_11SectionNodeEEEEENS_9allocatorIS8_EEED1Ev
FNDA:66,_ZNSt3__111__wrap_iterIPN5Catch11MessageInfoEEC2ES3_
FNDA:268,_ZNSt3__16vectorIN5Catch3PtrINS1_22CumulativeReporterBase4NodeINS1_12TestRunStatsENS4_INS1_14TestGroupStatsENS4_INS1_13TestCaseStatsENS3_11SectionNodeEEEEEEEEENS_9allocatorISC_EEED1Ev
FNDA:31,_ZNSt3__111__wrap_iterIPKN5Catch3PtrINS1_22CumulativeReporterBase4NodeINS1_13TestCaseStatsENS3_11SectionNodeEEEEEEppEv
FNDA:11,_ZNKSt3__111__wrap_iterIPKN5Catch5Clara11CommandLineINS1_10ConfigDataEE3ArgEEdeEv
FNDA:268,_ZNSt3__16vectorIN5Catch8TestSpec6FilterENS_9allocatorIS3_EEED2Ev
FNDA:45,_ZNSt3__1neIPKN5Catch11SectionInfoEEEbRKNS_11__wrap_iterIT_EES9_
FNDA:268,_ZNSt3__16vectorIN5Catch11SectionInfoENS_9allocatorIS2_EEED2Ev
FNDA:110,_ZNKSt3__111__wrap_iterIPN5Catch11SectionInfoEE4baseEv
FNDA:268,_ZNSt3__16vectorIN5Catch14SectionEndInfoENS_9allocatorIS2_EEED2Ev
FNDA:0,_ZNSt3__1miIPKN5Catch11MessageInfoEPS2_EENS_11__wrap_iterIT_E15difference_typeERKS8_RKNS6_IT0_EE
FNDA:58,_ZNSt3__110__distanceINS_11__wrap_iterIPKN5Catch11MessageInfoEEEEENS_15iterator_traitsIT_E15difference_typeES8_S8_NS_26random_access_iterator_tagE
FNDA:2,_ZNSt3__1neINS_11__wrap_iterIPKN5Catch14SectionEndInfoEEES6_EEbRKNS_16reverse_iteratorIT_EERKNS7_IT0_EE
FNDA:31,_ZNSt3__111__wrap_iterIPKPN5Catch14IGeneratorInfoEEppEv
FNDA:47,_ZNSt3__1eqIPKNS_12basic_stringIcNS_11char_traitsIcEENS_9allocatorIcEEEEPS6_EEbRKNS_11__wrap_iterIT_EERKNSA_IT0_EE
FNDA:16,_ZNSt3__111__wrap_iterIPKN5Catch3PtrINS1_22CumulativeReporterBase11SectionNodeEEEEC1IPS5_EERKNS0_IT_EEPNS_9enable_ifIXsr14is_convertibleISB_S7_EE5valueEvE4typeE
FNDA:66,_ZNSt3__111__wrap_iterIPN5Catch11MessageInfoEEC1ES3_
FNDA:31,_ZNSt3__111__wrap_iterIPKN5Catch3PtrINS1_18IStreamingReporterEEEEppEv
FNDA:11,_ZNKSt3__111__wrap_iterIPKN5Catch14AssertionStatsEEdeEv
FNDA:110,_ZNKSt3__111__wrap_iterIPN5Catch14SectionEndInfoEE4baseEv
FNDA:47,_ZNSt3__1eqIPKN5Catch3PtrINS1_18IStreamingReporterEEES6_EEbRKNS_11__wrap_iterIT_EERKNS7_IT0_EE
FNDA:110,_ZNKSt3__111__wrap_iterIPcE4baseEv
FNDA:45,_ZNSt3__1neIPKN5Catch8TestCaseEEEbRKNS_11__wrap_iterIT_EES9_
FNDA:268,_ZNSt3__16vectorIN5Catch11MessageInfoENS_9allocatorIS2_EEED1Ev
FNDA:110,_ZNKSt3__111__wrap_iterIPKN5Catch3PtrINS1_16IReporterFactoryEEEE4baseEv
FNDA:110,_ZNKSt3__111__wrap_iterIPKN5Catch11MessageInfoEE4baseEv
FNDA:16,_ZNSt3__111__wrap_iterIPKN5Catch3PtrINS1_16IReporterFactoryEEEEC1IPS4_EERKNS0_IT_EEPNS_9enable_ifIXsr14is_convertibleISA_S6_EE5valueEvE4typeE
FNDA:110,_ZNKSt3__111__wrap_iterIPN5Catch11MessageInfoEE4baseEv
FNDA:268,_ZNSt3__16vectorIN5Catch5Clara11CommandLineINS1_10ConfigDataEE3ArgENS_9allocatorIS6_EEED2Ev
FNDA:110,_ZNKSt3__111__wrap_iterIPKN5Catch11SectionInfoEE4baseEv
FNDA:66,_ZNSt3__111__wrap_iterIPKN5Catch3PtrINS1_8TestSpec7PatternEEEEC2ES7_
FNDA:110,_ZNKSt3__111__wrap_iterIPN5Catch8TestCaseEE4baseEv
FNDA:66,_ZNSt3__111__wrap_iterIPKN5Catch5Clara11CommandLineINS1_10ConfigDataEE3ArgEEC2ES8_
FNDA:16,_ZNSt3__111__wrap_iterIPKNS_12basic_stringIcNS_11char_traitsIcEENS_9allocatorIcEEEEEC2IPS6_EERKNS0_IT_EEPNS_9enable_ifIXsr14is_convertibleISC_S8_EE5valueEvE4typeE
FNDA:268,_ZNSt3__16vectorIN5Catch3PtrINS1_16TestCaseTracking8ITrackerEEENS_9allocatorIS5_EEED2Ev
FNDA:66,_ZNSt3__111__wrap_iterIPN5Catch3PtrINS1_22CumulativeReporterBase11SectionNodeEEEEC1ES6_
FNDA:16,_ZNSt3__111__wrap_iterIPKN5Catch8TestCaseEEC2IPS2_EERKNS0_IT_EEPNS_9enable_ifIXsr14is_convertibleIS8_S4_EE5valueEvE4typeE
FNDA:110,_ZNKSt3__111__wrap_iterIPKN5Catch3PtrINS1_8TestSpec7PatternEEEE4baseEv
FNDA:47,_ZNSt3__1eqIPKNS_12basic_stringIcNS_11char_traitsIcEENS_9allocatorIcEEEES8_EEbRKNS_11__wrap_iterIT_EERKNS9_IT0_EE
FNDA:110,_ZNKSt3__111__wrap_iterIPKN5Catch8TestCaseEE4baseEv
FNDA:8,_ZNSt3__116reverse_iteratorINS_11__wrap_iterIPN5Catch14SectionEndInfoEEEEC1ES5_
FNDA:47,_ZNSt3__1eqIPKN5Catch15ConsoleReporter13SummaryColumnES5_EEbRKNS_11__wrap_iterIT_EERKNS6_IT0_EE
FNDA:0,_ZNSt3__111__wrap_iterIPN5Catch8TestCaseEEmmEv
FNDA:16,_ZNSt3__111__wrap_iterIPKPKN5Catch20IExceptionTranslatorEEC2IPS4_EERKNS0_IT_EEPNS_9enable_ifIXsr14is_convertibleISA_S6_EE5valueEvE4typeE
FNDA:268,_ZNSt3__16vectorIN5Catch3PtrINS1_16IReporterFactoryEEENS_9allocatorIS4_EEED1Ev
FNDA:45,_ZNSt3__1neIPKN5Catch14SectionEndInfoEEEbRKNS_11__wrap_iterIT_EES9_
FNDA:66,_ZNSt3__111__wrap_iterIPcEC1ES1_
FNDA:2,_ZNSt3__1neIPKN5Catch3PtrINS1_16TestCaseTracking8ITrackerEEEPS5_EEbRKNS_11__wrap_iterIT_EERKNS9_IT0_EE
FNDA:268,_ZNSt3__16vectorIN5Catch14SectionEndInfoENS_9allocatorIS2_EEED1Ev
FNDA:11,_ZNKSt3__111__wrap_iterIPKN5Catch3PtrINS1_22CumulativeReporterBase4NodeINS1_13TestCaseStatsENS3_11SectionNodeEEEEEEdeEv
FNDA:110,_ZNKSt3__111__wrap_iterIPN5Catch3PtrINS1_18IStreamingReporterEEEE4baseEv
FNDA:66,_ZNSt3__111__wrap_iterIPKNS_12basic_stringIcNS_11char_traitsIcEENS_9allocatorIcEEEEEC1ES8_
FNDA:31,_ZNSt3__111__wrap_iterIPKN5Catch3PtrINS1_22CumulativeReporterBase11SectionNodeEEEEppEv
FNDA:268,_ZNSt3__16vectorIN5Catch14AssertionStatsENS_9allocatorIS2_EEED2Ev
FNDA:66,_ZNSt3__111__wrap_iterIPKNS_12basic_stringIcNS_11char_traitsIcEENS_9allocatorIcEEEEEC2ES8_
FNDA:66,_ZNSt3__111__wrap_iterIPKN5Catch3PtrINS1_22CumulativeReporterBase4NodeINS1_13TestCaseStatsENS3_11SectionNodeEEEEEEC2ESA_
FNDA:11,_ZNKSt3__111__wrap_iterIPN5Catch11MessageInfoEEdeEv
FNDA:66,_ZNSt3__111__wrap_iterIPKN5Catch3PtrINS1_8TestSpec7PatternEEEEC1ES7_
FNDA:66,_ZNSt3__111__wrap_iterIPKN5Catch3PtrINS1_22CumulativeReporterBase11SectionNodeEEEEC1ES7_
FNDA:24,_ZNKSt3__111__wrap_iterIPKN5Catch5Clara11CommandLineINS1_10ConfigDataEE3ArgEEptEv
FNDA:47,_ZNSt3__1eqIPKN5Catch3PtrINS1_16IReporterFactoryEEES6_EEbRKNS_11__wrap_iterIT_EERKNS7_IT0_EE
FNDA:268,_ZNSt3__16vectorIN5Catch3PtrINS1_22CumulativeReporterBase4NodeINS1_12TestRunStatsENS4_INS1_14TestGroupStatsENS4_INS1_13TestCaseStatsENS3_11SectionNodeEEEEEEEEENS_9allocatorISC_EEED2Ev
FNDA:0,_ZNSt3__111__wrap_iterIPKPKN5Catch20IExceptionTranslatorEEpLEl
FNDA:0,_ZNSt3__111__wrap_iterIPN5Catch11SectionInfoEEpLEl
FNDA:31,_ZNSt3__111__wrap_iterIPKN5Catch11MessageInfoEEppEv
FNDA:47,_ZNSt3__1eqIPKN5Catch3PtrINS1_16TestCaseTracking8ITrackerEEEPS5_EEbRKNS_11__wrap_iterIT_EERKNS9_IT0_EE
FNDA:31,_ZNSt3__111__wrap_iterIPNS_12basic_stringIcNS_11char_traitsIcEENS_9allocatorIcEEEEEppEv
FNDA:66,_ZNSt3__111__wrap_iterIPN5Catch14SectionEndInfoEEC1ES3_
FNF:266
FNH:247
DA:465,0
DA:466,0
DA:467,0
DA:469,0
DA:470,0
DA:471,0
DA:486,0
DA:487,0
DA:505,58
DA:513,58
DA:523,0
DA:524,0
DA:557,8
DA:559,8
DA:560,12
DA:561,0
DA:563,0
DA:602,2
DA:908,45
DA:920,15
DA:1132,0
DA:1136,0
DA:1139,16
DA:1140,16
DA:1144,32
DA:1174,11
DA:1182,24
DA:1190,31
DA:1191,31
DA:1201,0
DA:1202,0
DA:1207,0
DA:1214,0
DA:1215,0
DA:1230,110
DA:1239,66
DA:1244,268
DA:1306,47
DA:1318,0
DA:1326,2
DA:1358,45
DA:1394,0
LF:42
LH:21
end_of_record
TN:
SF:/Applications/Xcode.app/Contents/Developer/Toolchains/XcodeDefault.xctoolchain/usr/include/c++/v1/limits
FN:212,_ZNSt3__123__libcpp_numeric_limitsImLb1EE3maxEv
FN:212,_ZNSt3__123__libcpp_numeric_limitsIiLb1EE3maxEv
FN:448,_ZNSt3__114numeric_limitsImE3maxEv
FN:448,_ZNSt3__114numeric_limitsIiE3maxEv
FNDA:67,_ZNSt3__123__libcpp_numeric_limitsImLb1EE3maxEv
FNDA:67,_ZNSt3__114numeric_limitsImE3maxEv
FNDA:67,_ZNSt3__114numeric_limitsIiE3maxEv
FNDA:67,_ZNSt3__123__libcpp_numeric_limitsIiLb1EE3maxEv
FNF:4
FNH:4
DA:212,67
DA:448,67
LF:2
LH:2
end_of_record
TN:
SF:/Applications/Xcode.app/Contents/Developer/Toolchains/XcodeDefault.xctoolchain/usr/include/c++/v1/locale
FN:1482,_ZNSt3__116__pad_and_outputIcNS_11char_traitsIcEEEENS_19ostreambuf_iteratorIT_T0_EES6_PKS4_S8_S8_RNS_8ios_baseES4_
FNDA:13,_ZNSt3__116__pad_and_outputIcNS_11char_traitsIcEEEENS_19ostreambuf_iteratorIT_T0_EES6_PKS4_S8_S8_RNS_8ios_baseES4_
FNF:1
FNH:1
DA:1486,15
DA:1487,0
DA:1488,15
DA:1489,15
DA:1490,15
DA:1491,0
DA:1493,15
DA:1494,15
DA:1495,15
DA:1497,0
DA:1499,0
DA:1500,0
DA:1502,0
DA:1503,15
DA:1505,0
DA:1506,0
DA:1508,0
DA:1509,0
DA:1511,0
DA:1512,15
DA:1513,15
DA:1515,13
DA:1517,0
DA:1518,0
DA:1520,13
DA:1521,15
DA:1522,15
DA:1523,15
LF:28
LH:15
end_of_record
TN:
SF:/Applications/Xcode.app/Contents/Developer/Toolchains/XcodeDefault.xctoolchain/usr/include/c++/v1/map
FN:450,_ZNSt3__119__map_value_compareINS_12basic_stringIcNS_11char_traitsIcEENS_9allocatorIcEEEENS_12__value_typeIS6_PN5Catch18IGeneratorsForTestEEENS_4lessIS6_EELb1EEC1ESD_
FN:450,_ZNSt3__119__map_value_compareINS_12basic_stringIcNS_11char_traitsIcEENS_9allocatorIcEEEENS_12__value_typeIS6_PN5Catch14IGeneratorInfoEEENS_4lessIS6_EELb1EEC2ESD_
FN:450,_ZNSt3__119__map_value_compareIiNS_12__value_typeIiN5Catch5Clara11CommandLineINS2_10ConfigDataEE3ArgEEENS_4lessIiEELb1EEC1ESA_
FN:450,_ZNSt3__119__map_value_compareINS_12basic_stringIcNS_11char_traitsIcEENS_9allocatorIcEEEENS_12__value_typeIS6_N5Catch7TagInfoEEENS_4lessIS6_EELb1EEC2ESC_
FN:450,_ZNSt3__119__map_value_compareINS_12basic_stringIcNS_11char_traitsIcEENS_9allocatorIcEEEENS_12__value_typeIS6_N5Catch3PtrINS8_16IReporterFactoryEEEEENS_4lessIS6_EELb1EEC1ESE_
FN:450,_ZNSt3__119__map_value_compareINS_12basic_stringIcNS_11char_traitsIcEENS_9allocatorIcEEEENS_12__value_typeIS6_N5Catch8TagAliasEEENS_4lessIS6_EELb1EEC1ESC_
FN:450,_ZNSt3__119__map_value_compareINS_12basic_stringIcNS_11char_traitsIcEENS_9allocatorIcEEEENS_12__value_typeIS6_N5Catch8TagAliasEEENS_4lessIS6_EELb1EEC2ESC_
FN:450,_ZNSt3__119__map_value_compareINS_12basic_stringIcNS_11char_traitsIcEENS_9allocatorIcEEEENS_12__value_typeIS6_PN5Catch14IGeneratorInfoEEENS_4lessIS6_EELb1EEC1ESD_
FN:450,_ZNSt3__119__map_value_compareIiNS_12__value_typeIiN5Catch5Clara11CommandLineINS2_10ConfigDataEE3ArgEEENS_4lessIiEELb1EEC2ESA_
FN:450,_ZNSt3__119__map_value_compareINS_12basic_stringIcNS_11char_traitsIcEENS_9allocatorIcEEEENS_12__value_typeIS6_PN5Catch18IGeneratorsForTestEEENS_4lessIS6_EELb1EEC2ESD_
FN:450,_ZNSt3__119__map_value_compareINS_12basic_stringIcNS_11char_traitsIcEENS_9allocatorIcEEEENS_12__value_typeIS6_N5Catch3PtrINS8_16IReporterFactoryEEEEENS_4lessIS6_EELb1EEC2ESE_
FN:450,_ZNSt3__119__map_value_compareINS_12basic_stringIcNS_11char_traitsIcEENS_9allocatorIcEEEENS_12__value_typeIS6_N5Catch7TagInfoEEENS_4lessIS6_EELb1EEC1ESC_
FN:456,_ZNKSt3__119__map_value_compareINS_12basic_stringIcNS_11char_traitsIcEENS_9allocatorIcEEEENS_12__value_typeIS6_N5Catch3PtrINS8_16IReporterFactoryEEEEENS_4lessIS6_EELb1EEclERKSC_SH_
FN:456,_ZNKSt3__119__map_value_compareINS_12basic_stringIcNS_11char_traitsIcEENS_9allocatorIcEEEENS_12__value_typeIS6_N5Catch8TagAliasEEENS_4lessIS6_EELb1EEclERKSA_SF_
FN:456,_ZNKSt3__119__map_value_compareINS_12basic_stringIcNS_11char_traitsIcEENS_9allocatorIcEEEENS_12__value_typeIS6_PN5Catch14IGeneratorInfoEEENS_4lessIS6_EELb1EEclERKSB_SG_
FN:456,_ZNKSt3__119__map_value_compareINS_12basic_stringIcNS_11char_traitsIcEENS_9allocatorIcEEEENS_12__value_typeIS6_N5Catch7TagInfoEEENS_4lessIS6_EELb1EEclERKSA_SF_
FN:456,_ZNKSt3__119__map_value_compareINS_12basic_stringIcNS_11char_traitsIcEENS_9allocatorIcEEEENS_12__value_typeIS6_PN5Catch18IGeneratorsForTestEEENS_4lessIS6_EELb1EEclERKSB_SG_
FN:459,_ZNKSt3__119__map_value_compareINS_12basic_stringIcNS_11char_traitsIcEENS_9allocatorIcEEEENS_12__value_typeIS6_N5Catch8TagAliasEEENS_4lessIS6_EELb1EEclERKSA_RKS6_
FN:459,_ZNKSt3__119__map_value_compareINS_12basic_stringIcNS_11char_traitsIcEENS_9allocatorIcEEEENS_12__value_typeIS6_N5Catch3PtrINS8_16IReporterFactoryEEEEENS_4lessIS6_EELb1EEclERKSC_RKS6_
FN:459,_ZNKSt3__119__map_value_compareINS_12basic_stringIcNS_11char_traitsIcEENS_9allocatorIcEEEENS_12__value_typeIS6_PN5Catch14IGeneratorInfoEEENS_4lessIS6_EELb1EEclERKSB_RKS6_
FN:459,_ZNKSt3__119__map_value_compareIiNS_12__value_typeIiN5Catch5Clara11CommandLineINS2_10ConfigDataEE3ArgEEENS_4lessIiEELb1EEclERKS8_RKi
FN:459,_ZNKSt3__119__map_value_compareINS_12basic_stringIcNS_11char_traitsIcEENS_9allocatorIcEEEENS_12__value_typeIS6_N5Catch7TagInfoEEENS_4lessIS6_EELb1EEclERKSA_RKS6_
FN:459,_ZNKSt3__119__map_value_compareINS_12basic_stringIcNS_11char_traitsIcEENS_9allocatorIcEEEENS_12__value_typeIS6_PN5Catch18IGeneratorsForTestEEENS_4lessIS6_EELb1EEclERKSB_RKS6_
FN:462,_ZNKSt3__119__map_value_compareINS_12basic_stringIcNS_11char_traitsIcEENS_9allocatorIcEEEENS_12__value_typeIS6_PN5Catch18IGeneratorsForTestEEENS_4lessIS6_EELb1EEclERKS6_RKSB_
FN:462,_ZNKSt3__119__map_value_compareINS_12basic_stringIcNS_11char_traitsIcEENS_9allocatorIcEEEENS_12__value_typeIS6_N5Catch3PtrINS8_16IReporterFactoryEEEEENS_4lessIS6_EELb1EEclERKS6_RKSC_
FN:462,_ZNKSt3__119__map_value_compareINS_12basic_stringIcNS_11char_traitsIcEENS_9allocatorIcEEEENS_12__value_typeIS6_N5Catch8TagAliasEEENS_4lessIS6_EELb1EEclERKS6_RKSA_
FN:462,_ZNKSt3__119__map_value_compareIiNS_12__value_typeIiN5Catch5Clara11CommandLineINS2_10ConfigDataEE3ArgEEENS_4lessIiEELb1EEclERKiRKS8_
FN:462,_ZNKSt3__119__map_value_compareINS_12basic_stringIcNS_11char_traitsIcEENS_9allocatorIcEEEENS_12__value_typeIS6_PN5Catch14IGeneratorInfoEEENS_4lessIS6_EELb1EEclERKS6_RKSB_
FN:462,_ZNKSt3__119__map_value_compareINS_12basic_stringIcNS_11char_traitsIcEENS_9allocatorIcEEEENS_12__value_typeIS6_N5Catch7TagInfoEEENS_4lessIS6_EELb1EEclERKS6_RKSA_
FN:593,_ZNSt3__112__value_typeINS_12basic_stringIcNS_11char_traitsIcEENS_9allocatorIcEEEEN5Catch8TagAliasEEC2IJNS_4pairIPKcS8_EEEEEDpOT_
FN:593,_ZNSt3__112__value_typeINS_12basic_stringIcNS_11char_traitsIcEENS_9allocatorIcEEEEN5Catch3PtrINS7_16IReporterFactoryEEEEC2IJNS_4pairIS6_SA_EEEEEDpOT_
FN:593,_ZNSt3__112__value_typeINS_12basic_stringIcNS_11char_traitsIcEENS_9allocatorIcEEEEPN5Catch14IGeneratorInfoEEC1IJNS_4pairIS6_S9_EEEEEDpOT_
FN:593,_ZNSt3__112__value_typeINS_12basic_stringIcNS_11char_traitsIcEENS_9allocatorIcEEEEN5Catch8TagAliasEEC1IJNS_4pairIPKcS8_EEEEEDpOT_
FN:593,_ZNSt3__112__value_typeINS_12basic_stringIcNS_11char_traitsIcEENS_9allocatorIcEEEEPN5Catch18IGeneratorsForTestEEC2IJNS_4pairIS6_S9_EEEEEDpOT_
FN:593,_ZNSt3__112__value_typeINS_12basic_stringIcNS_11char_traitsIcEENS_9allocatorIcEEEEN5Catch7TagInfoEEC1IJNS_4pairIS6_S8_EEEEEDpOT_
FN:593,_ZNSt3__112__value_typeINS_12basic_stringIcNS_11char_traitsIcEENS_9allocatorIcEEEEPN5Catch18IGeneratorsForTestEEC1IJNS_4pairIS6_S9_EEEEEDpOT_
FN:593,_ZNSt3__112__value_typeINS_12basic_stringIcNS_11char_traitsIcEENS_9allocatorIcEEEEN5Catch7TagInfoEEC2IJNS_4pairIS6_S8_EEEEEDpOT_
FN:593,_ZNSt3__112__value_typeINS_12basic_stringIcNS_11char_traitsIcEENS_9allocatorIcEEEEPN5Catch14IGeneratorInfoEEC2IJNS_4pairIS6_S9_EEEEEDpOT_
FN:593,_ZNSt3__112__value_typeINS_12basic_stringIcNS_11char_traitsIcEENS_9allocatorIcEEEEN5Catch3PtrINS7_16IReporterFactoryEEEEC1IJNS_4pairIS6_SA_EEEEEDpOT_
FN:617,_ZNSt3__112__value_typeINS_12basic_stringIcNS_11char_traitsIcEENS_9allocatorIcEEEEN5Catch3PtrINS7_16IReporterFactoryEEEED2Ev
FN:617,_ZNSt3__112__value_typeIiN5Catch5Clara11CommandLineINS1_10ConfigDataEE3ArgEED1Ev
FN:617,_ZNSt3__112__value_typeINS_12basic_stringIcNS_11char_traitsIcEENS_9allocatorIcEEEEN5Catch7TagInfoEED2Ev
FN:617,_ZNSt3__112__value_typeIiN5Catch5Clara11CommandLineINS1_10ConfigDataEE3ArgEED2Ev
FN:617,_ZNSt3__112__value_typeINS_12basic_stringIcNS_11char_traitsIcEENS_9allocatorIcEEEEPN5Catch14IGeneratorInfoEED2Ev
FN:617,_ZNSt3__112__value_typeINS_12basic_stringIcNS_11char_traitsIcEENS_9allocatorIcEEEEPN5Catch14IGeneratorInfoEED1Ev
FN:617,_ZNSt3__112__value_typeINS_12basic_stringIcNS_11char_traitsIcEENS_9allocatorIcEEEEN5Catch8TagAliasEED2Ev
FN:617,_ZNSt3__112__value_typeINS_12basic_stringIcNS_11char_traitsIcEENS_9allocatorIcEEEEN5Catch3PtrINS7_16IReporterFactoryEEEED1Ev
FN:617,_ZNSt3__112__value_typeINS_12basic_stringIcNS_11char_traitsIcEENS_9allocatorIcEEEEN5Catch8TagAliasEED1Ev
FN:617,_ZNSt3__112__value_typeINS_12basic_stringIcNS_11char_traitsIcEENS_9allocatorIcEEEEN5Catch7TagInfoEED1Ev
FN:617,_ZNSt3__112__value_typeINS_12basic_stringIcNS_11char_traitsIcEENS_9allocatorIcEEEEPN5Catch18IGeneratorsForTestEED2Ev
FN:617,_ZNSt3__112__value_typeINS_12basic_stringIcNS_11char_traitsIcEENS_9allocatorIcEEEEPN5Catch18IGeneratorsForTestEED1Ev
FN:672,_ZNSt3__114__map_iteratorINS_15__tree_iteratorINS_12__value_typeINS_12basic_stringIcNS_11char_traitsIcEENS_9allocatorIcEEEEPN5Catch18IGeneratorsForTestEEEPNS_11__tree_nodeISC_PvEElEEEC2ESH_
FN:672,_ZNSt3__114__map_iteratorINS_15__tree_iteratorINS_12__value_typeINS_12basic_stringIcNS_11char_traitsIcEENS_9allocatorIcEEEEN5Catch7TagInfoEEEPNS_11__tree_nodeISB_PvEElEEEC2ESG_
FN:672,_ZNSt3__114__map_iteratorINS_15__tree_iteratorINS_12__value_typeINS_12basic_stringIcNS_11char_traitsIcEENS_9allocatorIcEEEEN5Catch3PtrINS9_16IReporterFactoryEEEEEPNS_11__tree_nodeISD_PvEElEEEC2ESI_
FN:672,_ZNSt3__114__map_iteratorINS_15__tree_iteratorINS_12__value_typeINS_12basic_stringIcNS_11char_traitsIcEENS_9allocatorIcEEEEN5Catch8TagAliasEEEPNS_11__tree_nodeISB_PvEElEEEC2ESG_
FN:672,_ZNSt3__114__map_iteratorINS_15__tree_iteratorINS_12__value_typeINS_12basic_stringIcNS_11char_traitsIcEENS_9allocatorIcEEEEPN5Catch18IGeneratorsForTestEEEPNS_11__tree_nodeISC_PvEElEEEC1ESH_
FN:672,_ZNSt3__114__map_iteratorINS_15__tree_iteratorINS_12__value_typeINS_12basic_stringIcNS_11char_traitsIcEENS_9allocatorIcEEEEPN5Catch14IGeneratorInfoEEEPNS_11__tree_nodeISC_PvEElEEEC1ESH_
FN:672,_ZNSt3__114__map_iteratorINS_15__tree_iteratorINS_12__value_typeINS_12basic_stringIcNS_11char_traitsIcEENS_9allocatorIcEEEEN5Catch3PtrINS9_16IReporterFactoryEEEEEPNS_11__tree_nodeISD_PvEElEEEC1ESI_
FN:672,_ZNSt3__114__map_iteratorINS_15__tree_iteratorINS_12__value_typeINS_12basic_stringIcNS_11char_traitsIcEENS_9allocatorIcEEEEN5Catch7TagInfoEEEPNS_11__tree_nodeISB_PvEElEEEC1ESG_
FN:672,_ZNSt3__114__map_iteratorINS_15__tree_iteratorINS_12__value_typeINS_12basic_stringIcNS_11char_traitsIcEENS_9allocatorIcEEEEN5Catch8TagAliasEEEPNS_11__tree_nodeISB_PvEElEEEC1ESG_
FN:672,_ZNSt3__114__map_iteratorINS_15__tree_iteratorINS_12__value_typeINS_12basic_stringIcNS_11char_traitsIcEENS_9allocatorIcEEEEPN5Catch14IGeneratorInfoEEEPNS_11__tree_nodeISC_PvEElEEEC2ESH_
FN:677,_ZNKSt3__114__map_iteratorINS_15__tree_iteratorINS_12__value_typeINS_12basic_stringIcNS_11char_traitsIcEENS_9allocatorIcEEEEN5Catch7TagInfoEEEPNS_11__tree_nodeISB_PvEElEEEptEv
FN:700,_ZNSt3__1eqERKNS_14__map_iteratorINS_15__tree_iteratorINS_12__value_typeINS_12basic_stringIcNS_11char_traitsIcEENS_9allocatorIcEEEEN5Catch7TagInfoEEEPNS_11__tree_nodeISB_PvEElEEEESJ_
FN:734,_ZNSt3__120__map_const_iteratorINS_21__tree_const_iteratorINS_12__value_typeINS_12basic_stringIcNS_11char_traitsIcEENS_9allocatorIcEEEEN5Catch3PtrINS9_16IReporterFactoryEEEEEPNS_11__tree_nodeISD_PvEElEEEC2Ev
FN:734,_ZNSt3__120__map_const_iteratorINS_21__tree_const_iteratorINS_12__value_typeINS_12basic_stringIcNS_11char_traitsIcEENS_9allocatorIcEEEEN5Catch3PtrINS9_16IReporterFactoryEEEEEPNS_11__tree_nodeISD_PvEElEEEC1Ev
FN:737,_ZNSt3__120__map_const_iteratorINS_21__tree_const_iteratorINS_12__value_typeINS_12basic_stringIcNS_11char_traitsIcEENS_9allocatorIcEEEEN5Catch8TagAliasEEEPNS_11__tree_nodeISB_PvEElEEEC1ESG_
FN:737,_ZNSt3__120__map_const_iteratorINS_21__tree_const_iteratorINS_12__value_typeIiN5Catch5Clara11CommandLineINS3_10ConfigDataEE3ArgEEEPNS_11__tree_nodeIS9_PvEElEEEC2ESE_
FN:737,_ZNSt3__120__map_const_iteratorINS_21__tree_const_iteratorINS_12__value_typeINS_12basic_stringIcNS_11char_traitsIcEENS_9allocatorIcEEEEN5Catch3PtrINS9_16IReporterFactoryEEEEEPNS_11__tree_nodeISD_PvEElEEEC1ESI_
FN:737,_ZNSt3__120__map_const_iteratorINS_21__tree_const_iteratorINS_12__value_typeINS_12basic_stringIcNS_11char_traitsIcEENS_9allocatorIcEEEEN5Catch3PtrINS9_16IReporterFactoryEEEEEPNS_11__tree_nodeISD_PvEElEEEC2ESI_
FN:737,_ZNSt3__120__map_const_iteratorINS_21__tree_const_iteratorINS_12__value_typeINS_12basic_stringIcNS_11char_traitsIcEENS_9allocatorIcEEEEN5Catch8TagAliasEEEPNS_11__tree_nodeISB_PvEElEEEC2ESG_
FN:737,_ZNSt3__120__map_const_iteratorINS_21__tree_const_iteratorINS_12__value_typeIiN5Catch5Clara11CommandLineINS3_10ConfigDataEE3ArgEEEPNS_11__tree_nodeIS9_PvEElEEEC1ESE_
FN:739,_ZNSt3__120__map_const_iteratorINS_21__tree_const_iteratorINS_12__value_typeINS_12basic_stringIcNS_11char_traitsIcEENS_9allocatorIcEEEEN5Catch7TagInfoEEEPNS_11__tree_nodeISB_PvEElEEEC1ENS_14__map_iteratorINS_15__tree_iteratorISB_SF_lEEEE
FN:739,_ZNSt3__120__map_const_iteratorINS_21__tree_const_iteratorINS_12__value_typeINS_12basic_stringIcNS_11char_traitsIcEENS_9allocatorIcEEEEPN5Catch14IGeneratorInfoEEEPNS_11__tree_nodeISC_PvEElEEEC2ENS_14__map_iteratorINS_15__tree_iteratorISC_SG_lEEEE
FN:739,_ZNSt3__120__map_const_iteratorINS_21__tree_const_iteratorINS_12__value_typeINS_12basic_stringIcNS_11char_traitsIcEENS_9allocatorIcEEEEPN5Catch18IGeneratorsForTestEEEPNS_11__tree_nodeISC_PvEElEEEC2ENS_14__map_iteratorINS_15__tree_iteratorISC_SG_lEEEE
FN:739,_ZNSt3__120__map_const_iteratorINS_21__tree_const_iteratorINS_12__value_typeINS_12basic_stringIcNS_11char_traitsIcEENS_9allocatorIcEEEEPN5Catch18IGeneratorsForTestEEEPNS_11__tree_nodeISC_PvEElEEEC1ENS_14__map_iteratorINS_15__tree_iteratorISC_SG_lEEEE
FN:739,_ZNSt3__120__map_const_iteratorINS_21__tree_const_iteratorINS_12__value_typeINS_12basic_stringIcNS_11char_traitsIcEENS_9allocatorIcEEEEPN5Catch14IGeneratorInfoEEEPNS_11__tree_nodeISC_PvEElEEEC1ENS_14__map_iteratorINS_15__tree_iteratorISC_SG_lEEEE
FN:739,_ZNSt3__120__map_const_iteratorINS_21__tree_const_iteratorINS_12__value_typeINS_12basic_stringIcNS_11char_traitsIcEENS_9allocatorIcEEEEN5Catch7TagInfoEEEPNS_11__tree_nodeISB_PvEElEEEC2ENS_14__map_iteratorINS_15__tree_iteratorISB_SF_lEEEE
FN:747,_ZNKSt3__120__map_const_iteratorINS_21__tree_const_iteratorINS_12__value_typeINS_12basic_stringIcNS_11char_traitsIcEENS_9allocatorIcEEEEPN5Catch14IGeneratorInfoEEEPNS_11__tree_nodeISC_PvEElEEEptEv
FN:747,_ZNKSt3__120__map_const_iteratorINS_21__tree_const_iteratorINS_12__value_typeINS_12basic_stringIcNS_11char_traitsIcEENS_9allocatorIcEEEEPN5Catch18IGeneratorsForTestEEEPNS_11__tree_nodeISC_PvEElEEEptEv
FN:747,_ZNKSt3__120__map_const_iteratorINS_21__tree_const_iteratorINS_12__value_typeINS_12basic_stringIcNS_11char_traitsIcEENS_9allocatorIcEEEEN5Catch3PtrINS9_16IReporterFactoryEEEEEPNS_11__tree_nodeISD_PvEElEEEptEv
FN:747,_ZNKSt3__120__map_const_iteratorINS_21__tree_const_iteratorINS_12__value_typeIiN5Catch5Clara11CommandLineINS3_10ConfigDataEE3ArgEEEPNS_11__tree_nodeIS9_PvEElEEEptEv
FN:747,_ZNKSt3__120__map_const_iteratorINS_21__tree_const_iteratorINS_12__value_typeINS_12basic_stringIcNS_11char_traitsIcEENS_9allocatorIcEEEEN5Catch7TagInfoEEEPNS_11__tree_nodeISB_PvEElEEEptEv
FN:747,_ZNKSt3__120__map_const_iteratorINS_21__tree_const_iteratorINS_12__value_typeINS_12basic_stringIcNS_11char_traitsIcEENS_9allocatorIcEEEEN5Catch8TagAliasEEEPNS_11__tree_nodeISB_PvEElEEEptEv
FN:750,_ZNSt3__120__map_const_iteratorINS_21__tree_const_iteratorINS_12__value_typeINS_12basic_stringIcNS_11char_traitsIcEENS_9allocatorIcEEEEN5Catch3PtrINS9_16IReporterFactoryEEEEEPNS_11__tree_nodeISD_PvEElEEEppEv
FN:750,_ZNSt3__120__map_const_iteratorINS_21__tree_const_iteratorINS_12__value_typeINS_12basic_stringIcNS_11char_traitsIcEENS_9allocatorIcEEEEN5Catch7TagInfoEEEPNS_11__tree_nodeISB_PvEElEEEppEv
FN:750,_ZNSt3__120__map_const_iteratorINS_21__tree_const_iteratorINS_12__value_typeINS_12basic_stringIcNS_11char_traitsIcEENS_9allocatorIcEEEEN5Catch8TagAliasEEEPNS_11__tree_nodeISB_PvEElEEEppEv
FN:770,_ZNSt3__1eqERKNS_20__map_const_iteratorINS_21__tree_const_iteratorINS_12__value_typeINS_12basic_stringIcNS_11char_traitsIcEENS_9allocatorIcEEEEN5Catch3PtrINS9_16IReporterFactoryEEEEEPNS_11__tree_nodeISD_PvEElEEEESL_
FN:770,_ZNSt3__1eqERKNS_20__map_const_iteratorINS_21__tree_const_iteratorINS_12__value_typeINS_12basic_stringIcNS_11char_traitsIcEENS_9allocatorIcEEEEPN5Catch14IGeneratorInfoEEEPNS_11__tree_nodeISC_PvEElEEEESK_
FN:773,_ZNSt3__1neERKNS_20__map_const_iteratorINS_21__tree_const_iteratorINS_12__value_typeINS_12basic_stringIcNS_11char_traitsIcEENS_9allocatorIcEEEEPN5Catch18IGeneratorsForTestEEEPNS_11__tree_nodeISC_PvEElEEEESK_
FN:773,_ZNSt3__1neERKNS_20__map_const_iteratorINS_21__tree_const_iteratorINS_12__value_typeIiN5Catch5Clara11CommandLineINS3_10ConfigDataEE3ArgEEEPNS_11__tree_nodeIS9_PvEElEEEESH_
FN:773,_ZNSt3__1neERKNS_20__map_const_iteratorINS_21__tree_const_iteratorINS_12__value_typeINS_12basic_stringIcNS_11char_traitsIcEENS_9allocatorIcEEEEN5Catch3PtrINS9_16IReporterFactoryEEEEEPNS_11__tree_nodeISD_PvEElEEEESL_
FN:773,_ZNSt3__1neERKNS_20__map_const_iteratorINS_21__tree_const_iteratorINS_12__value_typeINS_12basic_stringIcNS_11char_traitsIcEENS_9allocatorIcEEEEN5Catch7TagInfoEEEPNS_11__tree_nodeISB_PvEElEEEESJ_
FN:773,_ZNSt3__1neERKNS_20__map_const_iteratorINS_21__tree_const_iteratorINS_12__value_typeINS_12basic_stringIcNS_11char_traitsIcEENS_9allocatorIcEEEEN5Catch8TagAliasEEEPNS_11__tree_nodeISB_PvEElEEEESJ_
FN:776,_ZNSt3__13mapINS_12basic_stringIcNS_11char_traitsIcEENS_9allocatorIcEEEEPN5Catch14IGeneratorInfoENS_4lessIS6_EENS4_INS_4pairIKS6_S9_EEEEED1Ev
FN:776,_ZNSt3__13mapINS_12basic_stringIcNS_11char_traitsIcEENS_9allocatorIcEEEEPN5Catch14IGeneratorInfoENS_4lessIS6_EENS4_INS_4pairIKS6_S9_EEEEED2Ev
FN:776,_ZNSt3__13mapINS_12basic_stringIcNS_11char_traitsIcEENS_9allocatorIcEEEEN5Catch8TagAliasENS_4lessIS6_EENS4_INS_4pairIKS6_S8_EEEEED1Ev
FN:776,_ZNSt3__13mapINS_12basic_stringIcNS_11char_traitsIcEENS_9allocatorIcEEEEN5Catch8TagAliasENS_4lessIS6_EENS4_INS_4pairIKS6_S8_EEEEED2Ev
FN:783,_ZNSt3__13mapIiN5Catch5Clara11CommandLineINS1_10ConfigDataEE3ArgENS_4lessIiEENS_9allocatorINS_4pairIKiS6_EEEEED2Ev
FN:783,_ZNSt3__13mapIiN5Catch5Clara11CommandLineINS1_10ConfigDataEE3ArgENS_4lessIiEENS_9allocatorINS_4pairIKiS6_EEEEED1Ev
FN:838,_ZNSt3__13mapINS_12basic_stringIcNS_11char_traitsIcEENS_9allocatorIcEEEEPN5Catch14IGeneratorInfoENS_4lessIS6_EENS4_INS_4pairIKS6_S9_EEEEEC1Ev
FN:838,_ZNSt3__13mapINS_12basic_stringIcNS_11char_traitsIcEENS_9allocatorIcEEEEPN5Catch14IGeneratorInfoENS_4lessIS6_EENS4_INS_4pairIKS6_S9_EEEEEC2Ev
FN:838,_ZNSt3__13mapINS_12basic_stringIcNS_11char_traitsIcEENS_9allocatorIcEEEEPN5Catch18IGeneratorsForTestENS_4lessIS6_EENS4_INS_4pairIKS6_S9_EEEEEC2Ev
FN:838,_ZNSt3__13mapINS_12basic_stringIcNS_11char_traitsIcEENS_9allocatorIcEEEEPN5Catch18IGeneratorsForTestENS_4lessIS6_EENS4_INS_4pairIKS6_S9_EEEEEC1Ev
FN:838,_ZNSt3__13mapINS_12basic_stringIcNS_11char_traitsIcEENS_9allocatorIcEEEEN5Catch7TagInfoENS_4lessIS6_EENS4_INS_4pairIKS6_S8_EEEEEC1Ev
FN:838,_ZNSt3__13mapIiN5Catch5Clara11CommandLineINS1_10ConfigDataEE3ArgENS_4lessIiEENS_9allocatorINS_4pairIKiS6_EEEEEC2Ev
FN:838,_ZNSt3__13mapINS_12basic_stringIcNS_11char_traitsIcEENS_9allocatorIcEEEEN5Catch8TagAliasENS_4lessIS6_EENS4_INS_4pairIKS6_S8_EEEEEC1Ev
FN:838,_ZNSt3__13mapINS_12basic_stringIcNS_11char_traitsIcEENS_9allocatorIcEEEEN5Catch3PtrINS7_16IReporterFactoryEEENS_4lessIS6_EENS4_INS_4pairIKS6_SA_EEEEEC2Ev
FN:838,_ZNSt3__13mapINS_12basic_stringIcNS_11char_traitsIcEENS_9allocatorIcEEEEN5Catch3PtrINS7_16IReporterFactoryEEENS_4lessIS6_EENS4_INS_4pairIKS6_SA_EEEEEC1Ev
FN:838,_ZNSt3__13mapINS_12basic_stringIcNS_11char_traitsIcEENS_9allocatorIcEEEEN5Catch7TagInfoENS_4lessIS6_EENS4_INS_4pairIKS6_S8_EEEEEC2Ev
FN:838,_ZNSt3__13mapIiN5Catch5Clara11CommandLineINS1_10ConfigDataEE3ArgENS_4lessIiEENS_9allocatorINS_4pairIKiS6_EEEEEC1Ev
FN:838,_ZNSt3__13mapINS_12basic_stringIcNS_11char_traitsIcEENS_9allocatorIcEEEEN5Catch8TagAliasENS_4lessIS6_EENS4_INS_4pairIKS6_S8_EEEEEC2Ev
FN:970,_ZNSt3__13mapINS_12basic_stringIcNS_11char_traitsIcEENS_9allocatorIcEEEEN5Catch7TagInfoENS_4lessIS6_EENS4_INS_4pairIKS6_S8_EEEEE5beginEv
FN:972,_ZNKSt3__13mapINS_12basic_stringIcNS_11char_traitsIcEENS_9allocatorIcEEEEN5Catch8TagAliasENS_4lessIS6_EENS4_INS_4pairIKS6_S8_EEEEE5beginEv
FN:972,_ZNKSt3__13mapINS_12basic_stringIcNS_11char_traitsIcEENS_9allocatorIcEEEEN5Catch3PtrINS7_16IReporterFactoryEEENS_4lessIS6_EENS4_INS_4pairIKS6_SA_EEEEE5beginEv
FN:974,_ZNSt3__13mapINS_12basic_stringIcNS_11char_traitsIcEENS_9allocatorIcEEEEPN5Catch14IGeneratorInfoENS_4lessIS6_EENS4_INS_4pairIKS6_S9_EEEEE3endEv
FN:974,_ZNSt3__13mapINS_12basic_stringIcNS_11char_traitsIcEENS_9allocatorIcEEEEN5Catch7TagInfoENS_4lessIS6_EENS4_INS_4pairIKS6_S8_EEEEE3endEv
FN:974,_ZNSt3__13mapINS_12basic_stringIcNS_11char_traitsIcEENS_9allocatorIcEEEEPN5Catch18IGeneratorsForTestENS_4lessIS6_EENS4_INS_4pairIKS6_S9_EEEEE3endEv
FN:976,_ZNKSt3__13mapINS_12basic_stringIcNS_11char_traitsIcEENS_9allocatorIcEEEEN5Catch8TagAliasENS_4lessIS6_EENS4_INS_4pairIKS6_S8_EEEEE3endEv
FN:976,_ZNKSt3__13mapIiN5Catch5Clara11CommandLineINS1_10ConfigDataEE3ArgENS_4lessIiEENS_9allocatorINS_4pairIKiS6_EEEEE3endEv
FN:976,_ZNKSt3__13mapINS_12basic_stringIcNS_11char_traitsIcEENS_9allocatorIcEEEEN5Catch3PtrINS7_16IReporterFactoryEEENS_4lessIS6_EENS4_INS_4pairIKS6_SA_EEEEE3endEv
FN:1000,_ZNKSt3__13mapIiN5Catch5Clara11CommandLineINS1_10ConfigDataEE3ArgENS_4lessIiEENS_9allocatorINS_4pairIKiS6_EEEEE5emptyEv
FN:1002,_ZNKSt3__13mapINS_12basic_stringIcNS_11char_traitsIcEENS_9allocatorIcEEEEN5Catch3PtrINS7_16IReporterFactoryEEENS_4lessIS6_EENS4_INS_4pairIKS6_SA_EEEEE4sizeEv
FN:1002,_ZNKSt3__13mapINS_12basic_stringIcNS_11char_traitsIcEENS_9allocatorIcEEEEN5Catch7TagInfoENS_4lessIS6_EENS4_INS_4pairIKS6_S8_EEEEE4sizeEv
FN:1037,_ZNSt3__13mapINS_12basic_stringIcNS_11char_traitsIcEENS_9allocatorIcEEEEN5Catch7TagInfoENS_4lessIS6_EENS4_INS_4pairIKS6_S8_EEEEE6insertINSB_IS6_S8_EEvEENSB_INS_14__map_iteratorINS_15__tree_iteratorINS_12__value_typeIS6_S8_EEPNS_11__tree_nodeISL_PvEElEEEEbEEOT_
FN:1037,_ZNSt3__13mapINS_12basic_stringIcNS_11char_traitsIcEENS_9allocatorIcEEEEN5Catch3PtrINS7_16IReporterFactoryEEENS_4lessIS6_EENS4_INS_4pairIKS6_SA_EEEEE6insertINSD_IS6_SA_EEvEENSD_INS_14__map_iteratorINS_15__tree_iteratorINS_12__value_typeIS6_SA_EEPNS_11__tree_nodeISN_PvEElEEEEbEEOT_
FN:1037,_ZNSt3__13mapINS_12basic_stringIcNS_11char_traitsIcEENS_9allocatorIcEEEEPN5Catch18IGeneratorsForTestENS_4lessIS6_EENS4_INS_4pairIKS6_S9_EEEEE6insertINSC_IS6_S9_EEvEENSC_INS_14__map_iteratorINS_15__tree_iteratorINS_12__value_typeIS6_S9_EEPNS_11__tree_nodeISM_PvEElEEEEbEEOT_
FN:1037,_ZNSt3__13mapINS_12basic_stringIcNS_11char_traitsIcEENS_9allocatorIcEEEEPN5Catch14IGeneratorInfoENS_4lessIS6_EENS4_INS_4pairIKS6_S9_EEEEE6insertINSC_IS6_S9_EEvEENSC_INS_14__map_iteratorINS_15__tree_iteratorINS_12__value_typeIS6_S9_EEPNS_11__tree_nodeISM_PvEElEEEEbEEOT_
FN:1037,_ZNSt3__13mapINS_12basic_stringIcNS_11char_traitsIcEENS_9allocatorIcEEEEN5Catch8TagAliasENS_4lessIS6_EENS4_INS_4pairIKS6_S8_EEEEE6insertINSB_IPKcS8_EEvEENSB_INS_14__map_iteratorINS_15__tree_iteratorINS_12__value_typeIS6_S8_EEPNS_11__tree_nodeISN_PvEElEEEEbEEOT_
FN:1090,_ZNSt3__13mapINS_12basic_stringIcNS_11char_traitsIcEENS_9allocatorIcEEEEN5Catch7TagInfoENS_4lessIS6_EENS4_INS_4pairIKS6_S8_EEEEE4findERSC_
FN:1090,_ZNSt3__13mapINS_12basic_stringIcNS_11char_traitsIcEENS_9allocatorIcEEEEPN5Catch18IGeneratorsForTestENS_4lessIS6_EENS4_INS_4pairIKS6_S9_EEEEE4findERSD_
FN:1090,_ZNSt3__13mapINS_12basic_stringIcNS_11char_traitsIcEENS_9allocatorIcEEEEPN5Catch14IGeneratorInfoENS_4lessIS6_EENS4_INS_4pairIKS6_S9_EEEEE4findERSD_
FN:1092,_ZNKSt3__13mapIiN5Catch5Clara11CommandLineINS1_10ConfigDataEE3ArgENS_4lessIiEENS_9allocatorINS_4pairIKiS6_EEEEE4findERSB_
FN:1092,_ZNKSt3__13mapINS_12basic_stringIcNS_11char_traitsIcEENS_9allocatorIcEEEEN5Catch3PtrINS7_16IReporterFactoryEEENS_4lessIS6_EENS4_INS_4pairIKS6_SA_EEEEE4findERSE_
FN:1092,_ZNKSt3__13mapINS_12basic_stringIcNS_11char_traitsIcEENS_9allocatorIcEEEEN5Catch8TagAliasENS_4lessIS6_EENS4_INS_4pairIKS6_S8_EEEEE4findERSC_
FNDA:8,_ZNSt3__112__value_typeINS_12basic_stringIcNS_11char_traitsIcEENS_9allocatorIcEEEEPN5Catch14IGeneratorInfoEEC1IJNS_4pairIS6_S9_EEEEEDpOT_
FNDA:2,_ZNKSt3__13mapIiN5Catch5Clara11CommandLineINS1_10ConfigDataEE3ArgENS_4lessIiEENS_9allocatorINS_4pairIKiS6_EEEEE3endEv
FNDA:8,_ZNSt3__119__map_value_compareINS_12basic_stringIcNS_11char_traitsIcEENS_9allocatorIcEEEENS_12__value_typeIS6_N5Catch7TagInfoEEENS_4lessIS6_EELb1EEC2ESC_
FNDA:1,_ZNKSt3__13mapINS_12basic_stringIcNS_11char_traitsIcEENS_9allocatorIcEEEEN5Catch8TagAliasENS_4lessIS6_EENS4_INS_4pairIKS6_S8_EEEEE5beginEv
FNDA:0,_ZNSt3__1eqERKNS_14__map_iteratorINS_15__tree_iteratorINS_12__value_typeINS_12basic_stringIcNS_11char_traitsIcEENS_9allocatorIcEEEEN5Catch7TagInfoEEEPNS_11__tree_nodeISB_PvEElEEEESJ_
FNDA:8,_ZNSt3__112__value_typeINS_12basic_stringIcNS_11char_traitsIcEENS_9allocatorIcEEEEPN5Catch18IGeneratorsForTestEEC2IJNS_4pairIS6_S9_EEEEEDpOT_
FNDA:2,_ZNSt3__13mapINS_12basic_stringIcNS_11char_traitsIcEENS_9allocatorIcEEEEN5Catch7TagInfoENS_4lessIS6_EENS4_INS_4pairIKS6_S8_EEEEE3endEv
FNDA:8,_ZNSt3__112__value_typeINS_12basic_stringIcNS_11char_traitsIcEENS_9allocatorIcEEEEN5Catch8TagAliasEEC1IJNS_4pairIPKcS8_EEEEEDpOT_
FNDA:8,_ZNSt3__120__map_const_iteratorINS_21__tree_const_iteratorINS_12__value_typeINS_12basic_stringIcNS_11char_traitsIcEENS_9allocatorIcEEEEN5Catch8TagAliasEEEPNS_11__tree_nodeISB_PvEElEEEC2ESG_
FNDA:16,_ZNSt3__114__map_iteratorINS_15__tree_iteratorINS_12__value_typeINS_12basic_stringIcNS_11char_traitsIcEENS_9allocatorIcEEEEPN5Catch18IGeneratorsForTestEEEPNS_11__tree_nodeISC_PvEElEEEC1ESH_
FNDA:8,_ZNSt3__13mapINS_12basic_stringIcNS_11char_traitsIcEENS_9allocatorIcEEEEN5Catch7TagInfoENS_4lessIS6_EENS4_INS_4pairIKS6_S8_EEEEEC1Ev
FNDA:8,_ZNSt3__112__value_typeINS_12basic_stringIcNS_11char_traitsIcEENS_9allocatorIcEEEEN5Catch7TagInfoEEC1IJNS_4pairIS6_S8_EEEEEDpOT_
FNDA:8,_ZNSt3__119__map_value_compareINS_12basic_stringIcNS_11char_traitsIcEENS_9allocatorIcEEEENS_12__value_typeIS6_N5Catch3PtrINS8_16IReporterFactoryEEEEENS_4lessIS6_EELb1EEC1ESE_
FNDA:8,_ZNSt3__13mapIiN5Catch5Clara11CommandLineINS1_10ConfigDataEE3ArgENS_4lessIiEENS_9allocatorINS_4pairIKiS6_EEEEEC2Ev
FNDA:8,_ZNSt3__112__value_typeINS_12basic_stringIcNS_11char_traitsIcEENS_9allocatorIcEEEEPN5Catch14IGeneratorInfoEED1Ev
FNDA:0,_ZNSt3__120__map_const_iteratorINS_21__tree_const_iteratorINS_12__value_typeINS_12basic_stringIcNS_11char_traitsIcEENS_9allocatorIcEEEEN5Catch3PtrINS9_16IReporterFactoryEEEEEPNS_11__tree_nodeISD_PvEElEEEC1Ev
FNDA:1,_ZNKSt3__13mapINS_12basic_stringIcNS_11char_traitsIcEENS_9allocatorIcEEEEN5Catch8TagAliasENS_4lessIS6_EENS4_INS_4pairIKS6_S8_EEEEE4findERSC_
FNDA:1,_ZNKSt3__119__map_value_compareINS_12basic_stringIcNS_11char_traitsIcEENS_9allocatorIcEEEENS_12__value_typeIS6_PN5Catch14IGeneratorInfoEEENS_4lessIS6_EELb1EEclERKS6_RKSB_
FNDA:8,_ZNSt3__112__value_typeINS_12basic_stringIcNS_11char_traitsIcEENS_9allocatorIcEEEEPN5Catch18IGeneratorsForTestEEC1IJNS_4pairIS6_S9_EEEEEDpOT_
FNDA:8,_ZNSt3__112__value_typeINS_12basic_stringIcNS_11char_traitsIcEENS_9allocatorIcEEEEN5Catch3PtrINS7_16IReporterFactoryEEEED1Ev
FNDA:1,_ZNKSt3__120__map_const_iteratorINS_21__tree_const_iteratorINS_12__value_typeINS_12basic_stringIcNS_11char_traitsIcEENS_9allocatorIcEEEEN5Catch7TagInfoEEEPNS_11__tree_nodeISB_PvEElEEEptEv
FNDA:8,_ZNSt3__112__value_typeINS_12basic_stringIcNS_11char_traitsIcEENS_9allocatorIcEEEEN5Catch8TagAliasEED2Ev
FNDA:16,_ZNSt3__114__map_iteratorINS_15__tree_iteratorINS_12__value_typeINS_12basic_stringIcNS_11char_traitsIcEENS_9allocatorIcEEEEPN5Catch14IGeneratorInfoEEEPNS_11__tree_nodeISC_PvEElEEEC1ESH_
FNDA:2,_ZNSt3__13mapIiN5Catch5Clara11CommandLineINS1_10ConfigDataEE3ArgENS_4lessIiEENS_9allocatorINS_4pairIKiS6_EEEEED2Ev
FNDA:4,_ZNSt3__13mapINS_12basic_stringIcNS_11char_traitsIcEENS_9allocatorIcEEEEPN5Catch18IGeneratorsForTestENS_4lessIS6_EENS4_INS_4pairIKS6_S9_EEEEE6insertINSC_IS6_S9_EEvEENSC_INS_14__map_iteratorINS_15__tree_iteratorINS_12__value_typeIS6_S9_EEPNS_11__tree_nodeISM_PvEElEEEEbEEOT_
FNDA:2,_ZNSt3__13mapIiN5Catch5Clara11CommandLineINS1_10ConfigDataEE3ArgENS_4lessIiEENS_9allocatorINS_4pairIKiS6_EEEEED1Ev
FNDA:1,_ZNSt3__1eqERKNS_20__map_const_iteratorINS_21__tree_const_iteratorINS_12__value_typeINS_12basic_stringIcNS_11char_traitsIcEENS_9allocatorIcEEEEN5Catch3PtrINS9_16IReporterFactoryEEEEEPNS_11__tree_nodeISD_PvEElEEEESL_
FNDA:0,_ZNSt3__13mapINS_12basic_stringIcNS_11char_traitsIcEENS_9allocatorIcEEEEN5Catch7TagInfoENS_4lessIS6_EENS4_INS_4pairIKS6_S8_EEEEE5beginEv
FNDA:2,_ZNKSt3__13mapINS_12basic_stringIcNS_11char_traitsIcEENS_9allocatorIcEEEEN5Catch3PtrINS7_16IReporterFactoryEEENS_4lessIS6_EENS4_INS_4pairIKS6_SA_EEEEE3endEv
FNDA:8,_ZNSt3__13mapINS_12basic_stringIcNS_11char_traitsIcEENS_9allocatorIcEEEEN5Catch8TagAliasENS_4lessIS6_EENS4_INS_4pairIKS6_S8_EEEEEC1Ev
FNDA:8,_ZNSt3__119__map_value_compareINS_12basic_stringIcNS_11char_traitsIcEENS_9allocatorIcEEEENS_12__value_typeIS6_N5Catch8TagAliasEEENS_4lessIS6_EELb1EEC1ESC_
FNDA:8,_ZNSt3__13mapINS_12basic_stringIcNS_11char_traitsIcEENS_9allocatorIcEEEEN5Catch3PtrINS7_16IReporterFactoryEEENS_4lessIS6_EENS4_INS_4pairIKS6_SA_EEEEEC1Ev
FNDA:1,_ZNKSt3__13mapINS_12basic_stringIcNS_11char_traitsIcEENS_9allocatorIcEEEEN5Catch3PtrINS7_16IReporterFactoryEEENS_4lessIS6_EENS4_INS_4pairIKS6_SA_EEEEE5beginEv
FNDA:16,_ZNSt3__114__map_iteratorINS_15__tree_iteratorINS_12__value_typeINS_12basic_stringIcNS_11char_traitsIcEENS_9allocatorIcEEEEN5Catch3PtrINS9_16IReporterFactoryEEEEEPNS_11__tree_nodeISD_PvEElEEEC1ESI_
FNDA:2,_ZNSt3__13mapINS_12basic_stringIcNS_11char_traitsIcEENS_9allocatorIcEEEEPN5Catch18IGeneratorsForTestENS_4lessIS6_EENS4_INS_4pairIKS6_S9_EEEEE3endEv
FNDA:16,_ZNSt3__114__map_iteratorINS_15__tree_iteratorINS_12__value_typeINS_12basic_stringIcNS_11char_traitsIcEENS_9allocatorIcEEEEN5Catch7TagInfoEEEPNS_11__tree_nodeISB_PvEElEEEC1ESG_
FNDA:8,_ZNSt3__13mapINS_12basic_stringIcNS_11char_traitsIcEENS_9allocatorIcEEEEN5Catch3PtrINS7_16IReporterFactoryEEENS_4lessIS6_EENS4_INS_4pairIKS6_SA_EEEEEC2Ev
FNDA:2,_ZNSt3__13mapINS_12basic_stringIcNS_11char_traitsIcEENS_9allocatorIcEEEEPN5Catch18IGeneratorsForTestENS_4lessIS6_EENS4_INS_4pairIKS6_S9_EEEEE4findERSD_
FNDA:4,_ZNSt3__13mapINS_12basic_stringIcNS_11char_traitsIcEENS_9allocatorIcEEEEPN5Catch14IGeneratorInfoENS_4lessIS6_EENS4_INS_4pairIKS6_S9_EEEEE6insertINSC_IS6_S9_EEvEENSC_INS_14__map_iteratorINS_15__tree_iteratorINS_12__value_typeIS6_S9_EEPNS_11__tree_nodeISM_PvEElEEEEbEEOT_
FNDA:1,_ZNSt3__1eqERKNS_20__map_const_iteratorINS_21__tree_const_iteratorINS_12__value_typeINS_12basic_stringIcNS_11char_traitsIcEENS_9allocatorIcEEEEPN5Catch14IGeneratorInfoEEEPNS_11__tree_nodeISC_PvEElEEEESK_
FNDA:8,_ZNSt3__112__value_typeINS_12basic_stringIcNS_11char_traitsIcEENS_9allocatorIcEEEEN5Catch8TagAliasEED1Ev
FNDA:8,_ZNSt3__120__map_const_iteratorINS_21__tree_const_iteratorINS_12__value_typeINS_12basic_stringIcNS_11char_traitsIcEENS_9allocatorIcEEEEPN5Catch18IGeneratorsForTestEEEPNS_11__tree_nodeISC_PvEElEEEC1ENS_14__map_iteratorINS_15__tree_iteratorISC_SG_lEEEE
FNDA:8,_ZNSt3__112__value_typeINS_12basic_stringIcNS_11char_traitsIcEENS_9allocatorIcEEEEN5Catch7TagInfoEEC2IJNS_4pairIS6_S8_EEEEEDpOT_
FNDA:8,_ZNSt3__13mapINS_12basic_stringIcNS_11char_traitsIcEENS_9allocatorIcEEEEN5Catch7TagInfoENS_4lessIS6_EENS4_INS_4pairIKS6_S8_EEEEEC2Ev
FNDA:5,_ZNKSt3__119__map_value_compareINS_12basic_stringIcNS_11char_traitsIcEENS_9allocatorIcEEEENS_12__value_typeIS6_PN5Catch18IGeneratorsForTestEEENS_4lessIS6_EELb1EEclERKSB_SG_
FNDA:8,_ZNSt3__119__map_value_compareINS_12basic_stringIcNS_11char_traitsIcEENS_9allocatorIcEEEENS_12__value_typeIS6_N5Catch8TagAliasEEENS_4lessIS6_EELb1EEC2ESC_
FNDA:8,_ZNSt3__13mapIiN5Catch5Clara11CommandLineINS1_10ConfigDataEE3ArgENS_4lessIiEENS_9allocatorINS_4pairIKiS6_EEEEEC1Ev
FNDA:3,_ZNKSt3__119__map_value_compareIiNS_12__value_typeIiN5Catch5Clara11CommandLineINS2_10ConfigDataEE3ArgEEENS_4lessIiEELb1EEclERKS8_RKi
FNDA:4,_ZNSt3__13mapINS_12basic_stringIcNS_11char_traitsIcEENS_9allocatorIcEEEEN5Catch8TagAliasENS_4lessIS6_EENS4_INS_4pairIKS6_S8_EEEEE6insertINSB_IPKcS8_EEvEENSB_INS_14__map_iteratorINS_15__tree_iteratorINS_12__value_typeIS6_S8_EEPNS_11__tree_nodeISN_PvEElEEEEbEEOT_
FNDA:8,_ZNSt3__119__map_value_compareINS_12basic_stringIcNS_11char_traitsIcEENS_9allocatorIcEEEENS_12__value_typeIS6_PN5Catch14IGeneratorInfoEEENS_4lessIS6_EELb1EEC1ESD_
FNDA:8,_ZNSt3__112__value_typeINS_12basic_stringIcNS_11char_traitsIcEENS_9allocatorIcEEEEN5Catch7TagInfoEED1Ev
FNDA:1,_ZNKSt3__119__map_value_compareINS_12basic_stringIcNS_11char_traitsIcEENS_9allocatorIcEEEENS_12__value_typeIS6_N5Catch7TagInfoEEENS_4lessIS6_EELb1EEclERKS6_RKSA_
FNDA:2,_ZNSt3__13mapINS_12basic_stringIcNS_11char_traitsIcEENS_9allocatorIcEEEEN5Catch8TagAliasENS_4lessIS6_EENS4_INS_4pairIKS6_S8_EEEEED1Ev
FNDA:8,_ZNSt3__112__value_typeINS_12basic_stringIcNS_11char_traitsIcEENS_9allocatorIcEEEEPN5Catch18IGeneratorsForTestEED2Ev
FNDA:8,_ZNSt3__119__map_value_compareIiNS_12__value_typeIiN5Catch5Clara11CommandLineINS2_10ConfigDataEE3ArgEEENS_4lessIiEELb1EEC2ESA_
FNDA:3,_ZNKSt3__119__map_value_compareINS_12basic_stringIcNS_11char_traitsIcEENS_9allocatorIcEEEENS_12__value_typeIS6_N5Catch7TagInfoEEENS_4lessIS6_EELb1EEclERKSA_RKS6_
FNDA:8,_ZNSt3__120__map_const_iteratorINS_21__tree_const_iteratorINS_12__value_typeINS_12basic_stringIcNS_11char_traitsIcEENS_9allocatorIcEEEEPN5Catch14IGeneratorInfoEEEPNS_11__tree_nodeISC_PvEElEEEC1ENS_14__map_iteratorINS_15__tree_iteratorISC_SG_lEEEE
FNDA:8,_ZNSt3__120__map_const_iteratorINS_21__tree_const_iteratorINS_12__value_typeIiN5Catch5Clara11CommandLineINS3_10ConfigDataEE3ArgEEEPNS_11__tree_nodeIS9_PvEElEEEC1ESE_
FNDA:8,_ZNSt3__119__map_value_compareINS_12basic_stringIcNS_11char_traitsIcEENS_9allocatorIcEEEENS_12__value_typeIS6_N5Catch3PtrINS8_16IReporterFactoryEEEEENS_4lessIS6_EELb1EEC2ESE_
FNDA:16,_ZNSt3__114__map_iteratorINS_15__tree_iteratorINS_12__value_typeINS_12basic_stringIcNS_11char_traitsIcEENS_9allocatorIcEEEEN5Catch8TagAliasEEEPNS_11__tree_nodeISB_PvEElEEEC1ESG_
FNDA:8,_ZNSt3__119__map_value_compareINS_12basic_stringIcNS_11char_traitsIcEENS_9allocatorIcEEEENS_12__value_typeIS6_PN5Catch18IGeneratorsForTestEEENS_4lessIS6_EELb1EEC2ESD_
FNDA:8,_ZNSt3__13mapINS_12basic_stringIcNS_11char_traitsIcEENS_9allocatorIcEEEEN5Catch8TagAliasENS_4lessIS6_EENS4_INS_4pairIKS6_S8_EEEEEC2Ev
FNDA:8,_ZNSt3__120__map_const_iteratorINS_21__tree_const_iteratorINS_12__value_typeINS_12basic_stringIcNS_11char_traitsIcEENS_9allocatorIcEEEEN5Catch7TagInfoEEEPNS_11__tree_nodeISB_PvEElEEEC2ENS_14__map_iteratorINS_15__tree_iteratorISB_SF_lEEEE
FNDA:1,_ZNKSt3__120__map_const_iteratorINS_21__tree_const_iteratorINS_12__value_typeINS_12basic_stringIcNS_11char_traitsIcEENS_9allocatorIcEEEEN5Catch8TagAliasEEEPNS_11__tree_nodeISB_PvEElEEEptEv
FNDA:3,_ZNKSt3__119__map_value_compareINS_12basic_stringIcNS_11char_traitsIcEENS_9allocatorIcEEEENS_12__value_typeIS6_PN5Catch18IGeneratorsForTestEEENS_4lessIS6_EELb1EEclERKSB_RKS6_
FNDA:8,_ZNSt3__112__value_typeINS_12basic_stringIcNS_11char_traitsIcEENS_9allocatorIcEEEEPN5Catch18IGeneratorsForTestEED1Ev
FNDA:0,_ZNKSt3__13mapINS_12basic_stringIcNS_11char_traitsIcEENS_9allocatorIcEEEEN5Catch7TagInfoENS_4lessIS6_EENS4_INS_4pairIKS6_S8_EEEEE4sizeEv
FNDA:8,_ZNSt3__112__value_typeINS_12basic_stringIcNS_11char_traitsIcEENS_9allocatorIcEEEEPN5Catch14IGeneratorInfoEEC2IJNS_4pairIS6_S9_EEEEEDpOT_
FNDA:2,_ZNSt3__13mapINS_12basic_stringIcNS_11char_traitsIcEENS_9allocatorIcEEEEN5Catch8TagAliasENS_4lessIS6_EENS4_INS_4pairIKS6_S8_EEEEED2Ev
FNDA:8,_ZNSt3__119__map_value_compareINS_12basic_stringIcNS_11char_traitsIcEENS_9allocatorIcEEEENS_12__value_typeIS6_N5Catch7TagInfoEEENS_4lessIS6_EELb1EEC1ESC_
FNDA:8,_ZNSt3__112__value_typeINS_12basic_stringIcNS_11char_traitsIcEENS_9allocatorIcEEEEN5Catch3PtrINS7_16IReporterFactoryEEEEC1IJNS_4pairIS6_SA_EEEEEDpOT_
FNDA:2,_ZNSt3__13mapINS_12basic_stringIcNS_11char_traitsIcEENS_9allocatorIcEEEEPN5Catch14IGeneratorInfoENS_4lessIS6_EENS4_INS_4pairIKS6_S9_EEEEE4findERSD_
FNDA:16,_ZNSt3__114__map_iteratorINS_15__tree_iteratorINS_12__value_typeINS_12basic_stringIcNS_11char_traitsIcEENS_9allocatorIcEEEEPN5Catch14IGeneratorInfoEEEPNS_11__tree_nodeISC_PvEElEEEC2ESH_
FNDA:8,_ZNSt3__119__map_value_compareINS_12basic_stringIcNS_11char_traitsIcEENS_9allocatorIcEEEENS_12__value_typeIS6_PN5Catch18IGeneratorsForTestEEENS_4lessIS6_EELb1EEC1ESD_
FNDA:0,_ZNSt3__120__map_const_iteratorINS_21__tree_const_iteratorINS_12__value_typeINS_12basic_stringIcNS_11char_traitsIcEENS_9allocatorIcEEEEN5Catch3PtrINS9_16IReporterFactoryEEEEEPNS_11__tree_nodeISD_PvEElEEEC2Ev
FNDA:16,_ZNSt3__114__map_iteratorINS_15__tree_iteratorINS_12__value_typeINS_12basic_stringIcNS_11char_traitsIcEENS_9allocatorIcEEEEPN5Catch18IGeneratorsForTestEEEPNS_11__tree_nodeISC_PvEElEEEC2ESH_
FNDA:2,_ZNKSt3__13mapINS_12basic_stringIcNS_11char_traitsIcEENS_9allocatorIcEEEEN5Catch8TagAliasENS_4lessIS6_EENS4_INS_4pairIKS6_S8_EEEEE3endEv
FNDA:8,_ZNSt3__120__map_const_iteratorINS_21__tree_const_iteratorINS_12__value_typeINS_12basic_stringIcNS_11char_traitsIcEENS_9allocatorIcEEEEN5Catch7TagInfoEEEPNS_11__tree_nodeISB_PvEElEEEC1ENS_14__map_iteratorINS_15__tree_iteratorISB_SF_lEEEE
FNDA:4,_ZNSt3__13mapINS_12basic_stringIcNS_11char_traitsIcEENS_9allocatorIcEEEEN5Catch7TagInfoENS_4lessIS6_EENS4_INS_4pairIKS6_S8_EEEEE6insertINSB_IS6_S8_EEvEENSB_INS_14__map_iteratorINS_15__tree_iteratorINS_12__value_typeIS6_S8_EEPNS_11__tree_nodeISL_PvEElEEEEbEEOT_
FNDA:8,_ZNSt3__119__map_value_compareINS_12basic_stringIcNS_11char_traitsIcEENS_9allocatorIcEEEENS_12__value_typeIS6_PN5Catch14IGeneratorInfoEEENS_4lessIS6_EELb1EEC2ESD_
FNDA:8,_ZNSt3__13mapINS_12basic_stringIcNS_11char_traitsIcEENS_9allocatorIcEEEEPN5Catch14IGeneratorInfoENS_4lessIS6_EENS4_INS_4pairIKS6_S9_EEEEEC1Ev
FNDA:8,_ZNSt3__112__value_typeINS_12basic_stringIcNS_11char_traitsIcEENS_9allocatorIcEEEEN5Catch3PtrINS7_16IReporterFactoryEEEED2Ev
FNDA:8,_ZNSt3__112__value_typeINS_12basic_stringIcNS_11char_traitsIcEENS_9allocatorIcEEEEN5Catch8TagAliasEEC2IJNS_4pairIPKcS8_EEEEEDpOT_
FNDA:0,_ZNKSt3__13mapIiN5Catch5Clara11CommandLineINS1_10ConfigDataEE3ArgENS_4lessIiEENS_9allocatorINS_4pairIKiS6_EEEEE5emptyEv
FNDA:8,_ZNSt3__112__value_typeIiN5Catch5Clara11CommandLineINS1_10ConfigDataEE3ArgEED1Ev
FNDA:8,_ZNSt3__112__value_typeINS_12basic_stringIcNS_11char_traitsIcEENS_9allocatorIcEEEEN5Catch7TagInfoEED2Ev
FNDA:2,_ZNSt3__13mapINS_12basic_stringIcNS_11char_traitsIcEENS_9allocatorIcEEEEPN5Catch14IGeneratorInfoENS_4lessIS6_EENS4_INS_4pairIKS6_S9_EEEEE3endEv
FNDA:16,_ZNSt3__114__map_iteratorINS_15__tree_iteratorINS_12__value_typeINS_12basic_stringIcNS_11char_traitsIcEENS_9allocatorIcEEEEN5Catch7TagInfoEEEPNS_11__tree_nodeISB_PvEElEEEC2ESG_
FNDA:1,_ZNKSt3__120__map_const_iteratorINS_21__tree_const_iteratorINS_12__value_typeINS_12basic_stringIcNS_11char_traitsIcEENS_9allocatorIcEEEEPN5Catch14IGeneratorInfoEEEPNS_11__tree_nodeISC_PvEElEEEptEv
FNDA:5,_ZNKSt3__119__map_value_compareINS_12basic_stringIcNS_11char_traitsIcEENS_9allocatorIcEEEENS_12__value_typeIS6_N5Catch3PtrINS8_16IReporterFactoryEEEEENS_4lessIS6_EELb1EEclERKSC_SH_
FNDA:0,_ZNSt3__120__map_const_iteratorINS_21__tree_const_iteratorINS_12__value_typeINS_12basic_stringIcNS_11char_traitsIcEENS_9allocatorIcEEEEN5Catch3PtrINS9_16IReporterFactoryEEEEEPNS_11__tree_nodeISD_PvEElEEEppEv
FNDA:2,_ZNSt3__13mapINS_12basic_stringIcNS_11char_traitsIcEENS_9allocatorIcEEEEPN5Catch14IGeneratorInfoENS_4lessIS6_EENS4_INS_4pairIKS6_S9_EEEEED1Ev
FNDA:8,_ZNSt3__119__map_value_compareIiNS_12__value_typeIiN5Catch5Clara11CommandLineINS2_10ConfigDataEE3ArgEEENS_4lessIiEELb1EEC1ESA_
FNDA:3,_ZNSt3__1neERKNS_20__map_const_iteratorINS_21__tree_const_iteratorINS_12__value_typeINS_12basic_stringIcNS_11char_traitsIcEENS_9allocatorIcEEEEPN5Catch18IGeneratorsForTestEEEPNS_11__tree_nodeISC_PvEElEEEESK_
FNDA:8,_ZNSt3__112__value_typeIiN5Catch5Clara11CommandLineINS1_10ConfigDataEE3ArgEED2Ev
FNDA:1,_ZNKSt3__13mapIiN5Catch5Clara11CommandLineINS1_10ConfigDataEE3ArgENS_4lessIiEENS_9allocatorINS_4pairIKiS6_EEEEE4findERSB_
FNDA:2,_ZNSt3__13mapINS_12basic_stringIcNS_11char_traitsIcEENS_9allocatorIcEEEEPN5Catch14IGeneratorInfoENS_4lessIS6_EENS4_INS_4pairIKS6_S9_EEEEED2Ev
FNDA:8,_ZNSt3__120__map_const_iteratorINS_21__tree_const_iteratorINS_12__value_typeINS_12basic_stringIcNS_11char_traitsIcEENS_9allocatorIcEEEEPN5Catch18IGeneratorsForTestEEEPNS_11__tree_nodeISC_PvEElEEEC2ENS_14__map_iteratorINS_15__tree_iteratorISC_SG_lEEEE
FNDA:8,_ZNSt3__120__map_const_iteratorINS_21__tree_const_iteratorINS_12__value_typeINS_12basic_stringIcNS_11char_traitsIcEENS_9allocatorIcEEEEPN5Catch14IGeneratorInfoEEEPNS_11__tree_nodeISC_PvEElEEEC2ENS_14__map_iteratorINS_15__tree_iteratorISC_SG_lEEEE
FNDA:0,_ZNKSt3__114__map_iteratorINS_15__tree_iteratorINS_12__value_typeINS_12basic_stringIcNS_11char_traitsIcEENS_9allocatorIcEEEEN5Catch7TagInfoEEEPNS_11__tree_nodeISB_PvEElEEEptEv
FNDA:0,_ZNKSt3__13mapINS_12basic_stringIcNS_11char_traitsIcEENS_9allocatorIcEEEEN5Catch3PtrINS7_16IReporterFactoryEEENS_4lessIS6_EENS4_INS_4pairIKS6_SA_EEEEE4sizeEv
FNDA:8,_ZNSt3__120__map_const_iteratorINS_21__tree_const_iteratorINS_12__value_typeINS_12basic_stringIcNS_11char_traitsIcEENS_9allocatorIcEEEEN5Catch8TagAliasEEEPNS_11__tree_nodeISB_PvEElEEEC1ESG_
FNDA:5,_ZNKSt3__119__map_value_compareINS_12basic_stringIcNS_11char_traitsIcEENS_9allocatorIcEEEENS_12__value_typeIS6_PN5Catch14IGeneratorInfoEEENS_4lessIS6_EELb1EEclERKSB_SG_
FNDA:5,_ZNKSt3__119__map_value_compareINS_12basic_stringIcNS_11char_traitsIcEENS_9allocatorIcEEEENS_12__value_typeIS6_N5Catch8TagAliasEEENS_4lessIS6_EELb1EEclERKSA_SF_
FNDA:8,_ZNSt3__112__value_typeINS_12basic_stringIcNS_11char_traitsIcEENS_9allocatorIcEEEEN5Catch3PtrINS7_16IReporterFactoryEEEEC2IJNS_4pairIS6_SA_EEEEEDpOT_
FNDA:3,_ZNKSt3__119__map_value_compareINS_12basic_stringIcNS_11char_traitsIcEENS_9allocatorIcEEEENS_12__value_typeIS6_N5Catch8TagAliasEEENS_4lessIS6_EELb1EEclERKSA_RKS6_
FNDA:8,_ZNSt3__13mapINS_12basic_stringIcNS_11char_traitsIcEENS_9allocatorIcEEEEPN5Catch14IGeneratorInfoENS_4lessIS6_EENS4_INS_4pairIKS6_S9_EEEEEC2Ev
FNDA:8,_ZNSt3__120__map_const_iteratorINS_21__tree_const_iteratorINS_12__value_typeIiN5Catch5Clara11CommandLineINS3_10ConfigDataEE3ArgEEEPNS_11__tree_nodeIS9_PvEElEEEC2ESE_
FNDA:1,_ZNKSt3__119__map_value_compareINS_12basic_stringIcNS_11char_traitsIcEENS_9allocatorIcEEEENS_12__value_typeIS6_PN5Catch18IGeneratorsForTestEEENS_4lessIS6_EELb1EEclERKS6_RKSB_
FNDA:3,_ZNKSt3__119__map_value_compareINS_12basic_stringIcNS_11char_traitsIcEENS_9allocatorIcEEEENS_12__value_typeIS6_N5Catch3PtrINS8_16IReporterFactoryEEEEENS_4lessIS6_EELb1EEclERKSC_RKS6_
FNDA:1,_ZNKSt3__13mapINS_12basic_stringIcNS_11char_traitsIcEENS_9allocatorIcEEEEN5Catch3PtrINS7_16IReporterFactoryEEENS_4lessIS6_EENS4_INS_4pairIKS6_SA_EEEEE4findERSE_
FNDA:3,_ZNSt3__1neERKNS_20__map_const_iteratorINS_21__tree_const_iteratorINS_12__value_typeINS_12basic_stringIcNS_11char_traitsIcEENS_9allocatorIcEEEEN5Catch3PtrINS9_16IReporterFactoryEEEEEPNS_11__tree_nodeISD_PvEElEEEESL_
FNDA:1,_ZNKSt3__119__map_value_compareINS_12basic_stringIcNS_11char_traitsIcEENS_9allocatorIcEEEENS_12__value_typeIS6_N5Catch3PtrINS8_16IReporterFactoryEEEEENS_4lessIS6_EELb1EEclERKS6_RKSC_
FNDA:1,_ZNKSt3__120__map_const_iteratorINS_21__tree_const_iteratorINS_12__value_typeINS_12basic_stringIcNS_11char_traitsIcEENS_9allocatorIcEEEEPN5Catch18IGeneratorsForTestEEEPNS_11__tree_nodeISC_PvEElEEEptEv
FNDA:3,_ZNSt3__1neERKNS_20__map_const_iteratorINS_21__tree_const_iteratorINS_12__value_typeIiN5Catch5Clara11CommandLineINS3_10ConfigDataEE3ArgEEEPNS_11__tree_nodeIS9_PvEElEEEESH_
FNDA:3,_ZNSt3__1neERKNS_20__map_const_iteratorINS_21__tree_const_iteratorINS_12__value_typeINS_12basic_stringIcNS_11char_traitsIcEENS_9allocatorIcEEEEN5Catch7TagInfoEEEPNS_11__tree_nodeISB_PvEElEEEESJ_
FNDA:2,_ZNSt3__13mapINS_12basic_stringIcNS_11char_traitsIcEENS_9allocatorIcEEEEN5Catch7TagInfoENS_4lessIS6_EENS4_INS_4pairIKS6_S8_EEEEE4findERSC_
FNDA:3,_ZNKSt3__119__map_value_compareINS_12basic_stringIcNS_11char_traitsIcEENS_9allocatorIcEEEENS_12__value_typeIS6_PN5Catch14IGeneratorInfoEEENS_4lessIS6_EELb1EEclERKSB_RKS6_
FNDA:8,_ZNSt3__112__value_typeINS_12basic_stringIcNS_11char_traitsIcEENS_9allocatorIcEEEEPN5Catch14IGeneratorInfoEED2Ev
FNDA:1,_ZNKSt3__119__map_value_compareINS_12basic_stringIcNS_11char_traitsIcEENS_9allocatorIcEEEENS_12__value_typeIS6_N5Catch8TagAliasEEENS_4lessIS6_EELb1EEclERKS6_RKSA_
FNDA:4,_ZNSt3__13mapINS_12basic_stringIcNS_11char_traitsIcEENS_9allocatorIcEEEEN5Catch3PtrINS7_16IReporterFactoryEEENS_4lessIS6_EENS4_INS_4pairIKS6_SA_EEEEE6insertINSD_IS6_SA_EEvEENSD_INS_14__map_iteratorINS_15__tree_iteratorINS_12__value_typeIS6_SA_EEPNS_11__tree_nodeISN_PvEElEEEEbEEOT_
FNDA:16,_ZNSt3__114__map_iteratorINS_15__tree_iteratorINS_12__value_typeINS_12basic_stringIcNS_11char_traitsIcEENS_9allocatorIcEEEEN5Catch3PtrINS9_16IReporterFactoryEEEEEPNS_11__tree_nodeISD_PvEElEEEC2ESI_
FNDA:1,_ZNKSt3__120__map_const_iteratorINS_21__tree_const_iteratorINS_12__value_typeINS_12basic_stringIcNS_11char_traitsIcEENS_9allocatorIcEEEEN5Catch3PtrINS9_16IReporterFactoryEEEEEPNS_11__tree_nodeISD_PvEElEEEptEv
FNDA:3,_ZNSt3__1neERKNS_20__map_const_iteratorINS_21__tree_const_iteratorINS_12__value_typeINS_12basic_stringIcNS_11char_traitsIcEENS_9allocatorIcEEEEN5Catch8TagAliasEEEPNS_11__tree_nodeISB_PvEElEEEESJ_
FNDA:8,_ZNSt3__120__map_const_iteratorINS_21__tree_const_iteratorINS_12__value_typeINS_12basic_stringIcNS_11char_traitsIcEENS_9allocatorIcEEEEN5Catch3PtrINS9_16IReporterFactoryEEEEEPNS_11__tree_nodeISD_PvEElEEEC1ESI_
FNDA:0,_ZNSt3__120__map_const_iteratorINS_21__tree_const_iteratorINS_12__value_typeINS_12basic_stringIcNS_11char_traitsIcEENS_9allocatorIcEEEEN5Catch7TagInfoEEEPNS_11__tree_nodeISB_PvEElEEEppEv
FNDA:1,_ZNKSt3__119__map_value_compareIiNS_12__value_typeIiN5Catch5Clara11CommandLineINS2_10ConfigDataEE3ArgEEENS_4lessIiEELb1EEclERKiRKS8_
FNDA:5,_ZNKSt3__119__map_value_compareINS_12basic_stringIcNS_11char_traitsIcEENS_9allocatorIcEEEENS_12__value_typeIS6_N5Catch7TagInfoEEENS_4lessIS6_EELb1EEclERKSA_SF_
FNDA:8,_ZNSt3__13mapINS_12basic_stringIcNS_11char_traitsIcEENS_9allocatorIcEEEEPN5Catch18IGeneratorsForTestENS_4lessIS6_EENS4_INS_4pairIKS6_S9_EEEEEC2Ev
FNDA:1,_ZNKSt3__120__map_const_iteratorINS_21__tree_const_iteratorINS_12__value_typeIiN5Catch5Clara11CommandLineINS3_10ConfigDataEE3ArgEEEPNS_11__tree_nodeIS9_PvEElEEEptEv
FNDA:16,_ZNSt3__114__map_iteratorINS_15__tree_iteratorINS_12__value_typeINS_12basic_stringIcNS_11char_traitsIcEENS_9allocatorIcEEEEN5Catch8TagAliasEEEPNS_11__tree_nodeISB_PvEElEEEC2ESG_
FNDA:8,_ZNSt3__120__map_const_iteratorINS_21__tree_const_iteratorINS_12__value_typeINS_12basic_stringIcNS_11char_traitsIcEENS_9allocatorIcEEEEN5Catch3PtrINS9_16IReporterFactoryEEEEEPNS_11__tree_nodeISD_PvEElEEEC2ESI_
FNDA:0,_ZNSt3__120__map_const_iteratorINS_21__tree_const_iteratorINS_12__value_typeINS_12basic_stringIcNS_11char_traitsIcEENS_9allocatorIcEEEEN5Catch8TagAliasEEEPNS_11__tree_nodeISB_PvEElEEEppEv
FNDA:8,_ZNSt3__13mapINS_12basic_stringIcNS_11char_traitsIcEENS_9allocatorIcEEEEPN5Catch18IGeneratorsForTestENS_4lessIS6_EENS4_INS_4pairIKS6_S9_EEEEEC1Ev
FNF:134
FNH:123
DA:452,8
DA:457,5
DA:460,3
DA:463,1
DA:594,8
DA:617,8
DA:672,16
DA:677,0
DA:701,0
DA:734,0
DA:737,8
DA:742,8
DA:747,1
DA:750,0
DA:771,1
DA:774,3
DA:776,2
DA:783,2
DA:843,8
DA:970,0
DA:972,1
DA:974,2
DA:976,2
DA:1000,0
DA:1002,0
DA:1038,4
DA:1090,2
DA:1092,1
LF:28
LH:21
end_of_record
TN:
SF:/Applications/Xcode.app/Contents/Developer/Toolchains/XcodeDefault.xctoolchain/usr/include/c++/v1/memory
FN:915,_ZNSt3__114pointer_traitsIPKNS_4pairIKNS_12basic_stringIcNS_11char_traitsIcEENS_9allocatorIcEEEEPN5Catch18IGeneratorsForTestEEEE10pointer_toERSD_
FN:915,_ZNSt3__114pointer_traitsIPKwE10pointer_toERS1_
FN:915,_ZNSt3__114pointer_traitsIPKNS_4pairIKiN5Catch5Clara11CommandLineINS3_10ConfigDataEE3ArgEEEE10pointer_toERSA_
FN:915,_ZNSt3__114pointer_traitsIPKNS_4pairIKNS_12basic_stringIcNS_11char_traitsIcEENS_9allocatorIcEEEEPN5Catch14IGeneratorInfoEEEE10pointer_toERSD_
FN:915,_ZNSt3__114pointer_traitsIPKNS_12__value_typeINS_12basic_stringIcNS_11char_traitsIcEENS_9allocatorIcEEEEN5Catch3PtrINS8_16IReporterFactoryEEEEEE10pointer_toERSD_
FN:915,_ZNSt3__114pointer_traitsIPKNS_4pairIKNS_12basic_stringIcNS_11char_traitsIcEENS_9allocatorIcEEEEN5Catch7TagInfoEEEE10pointer_toERSC_
FN:915,_ZNSt3__114pointer_traitsIPKNS_4pairIKNS_12basic_stringIcNS_11char_traitsIcEENS_9allocatorIcEEEEN5Catch3PtrINS9_16IReporterFactoryEEEEEE10pointer_toERSE_
FN:915,_ZNSt3__114pointer_traitsIPNS_4pairIKNS_12basic_stringIcNS_11char_traitsIcEENS_9allocatorIcEEEEN5Catch7TagInfoEEEE10pointer_toERSB_
FN:915,_ZNSt3__114pointer_traitsIPNS_12__value_typeINS_12basic_stringIcNS_11char_traitsIcEENS_9allocatorIcEEEEN5Catch7TagInfoEEEE10pointer_toERSA_
FN:915,_ZNSt3__114pointer_traitsIPKNS_12__value_typeINS_12basic_stringIcNS_11char_traitsIcEENS_9allocatorIcEEEEPN5Catch14IGeneratorInfoEEEE10pointer_toERSC_
FN:915,_ZNSt3__114pointer_traitsIPKNS_12__value_typeINS_12basic_stringIcNS_11char_traitsIcEENS_9allocatorIcEEEEN5Catch8TagAliasEEEE10pointer_toERSB_
FN:915,_ZNSt3__114pointer_traitsIPcE10pointer_toERc
FN:915,_ZNSt3__114pointer_traitsIPKNS_12__value_typeINS_12basic_stringIcNS_11char_traitsIcEENS_9allocatorIcEEEEN5Catch7TagInfoEEEE10pointer_toERSB_
FN:915,_ZNSt3__114pointer_traitsIPKNS_12__value_typeINS_12basic_stringIcNS_11char_traitsIcEENS_9allocatorIcEEEEPN5Catch18IGeneratorsForTestEEEE10pointer_toERSC_
FN:915,_ZNSt3__114pointer_traitsIPKcE10pointer_toERS1_
FN:915,_ZNSt3__114pointer_traitsIPKNS_4pairIKNS_12basic_stringIcNS_11char_traitsIcEENS_9allocatorIcEEEEN5Catch8TagAliasEEEE10pointer_toERSC_
FN:915,_ZNSt3__114pointer_traitsIPNS_15__tree_end_nodeIPNS_16__tree_node_baseIPvEEEEE10pointer_toERS6_
FN:915,_ZNSt3__114pointer_traitsIPKN5Catch8TestCaseEE10pointer_toERS3_
FN:915,_ZNSt3__114pointer_traitsIPKNS_12__value_typeIiN5Catch5Clara11CommandLineINS2_10ConfigDataEE3ArgEEEE10pointer_toERS9_
FN:1041,_ZNSt3__116__to_raw_pointerIN5Catch3PtrINS1_22CumulativeReporterBase4NodeINS1_14TestGroupStatsENS4_INS1_13TestCaseStatsENS3_11SectionNodeEEEEEEEEEPT_SC_
FN:1041,_ZNSt3__116__to_raw_pointerINS_12basic_stringIcNS_11char_traitsIcEENS_9allocatorIcEEEEEEPT_S8_
FN:1041,_ZNSt3__116__to_raw_pointerIN5Catch8TestCaseEEEPT_S4_
FN:1041,_ZNSt3__116__to_raw_pointerIN5Catch3PtrINS1_8TestSpec7PatternEEEEEPT_S7_
FN:1041,_ZNSt3__116__to_raw_pointerIN5Catch15ConsoleReporter13SummaryColumnEEEPT_S5_
FN:1041,_ZNSt3__116__to_raw_pointerIPN5Catch16TestCaseTracking8ITrackerEEEPT_S6_
FN:1041,_ZNSt3__116__to_raw_pointerIN5Catch5Clara11CommandLineINS1_10ConfigDataEE3ArgEEEPT_S8_
FN:1041,_ZNSt3__116__to_raw_pointerIN5Catch3PtrINS1_16IReporterFactoryEEEEEPT_S6_
FN:1041,_ZNSt3__116__to_raw_pointerIN5Catch11SectionInfoEEEPT_S4_
FN:1041,_ZNSt3__116__to_raw_pointerIN5Catch3PtrINS1_22CumulativeReporterBase4NodeINS1_12TestRunStatsENS4_INS1_14TestGroupStatsENS4_INS1_13TestCaseStatsENS3_11SectionNodeEEEEEEEEEEEPT_SE_
FN:1041,_ZNSt3__116__to_raw_pointerIN5Catch3PtrINS1_16TestCaseTracking8ITrackerEEEEEPT_S7_
FN:1041,_ZNSt3__116__to_raw_pointerIN5Catch14SectionEndInfoEEEPT_S4_
FN:1041,_ZNSt3__116__to_raw_pointerIN5Catch5Clara6Parser5TokenEEEPT_S6_
FN:1041,_ZNSt3__116__to_raw_pointerIN5Catch3PtrINS1_22CumulativeReporterBase11SectionNodeEEEEEPT_S7_
FN:1041,_ZNSt3__116__to_raw_pointerIN5Catch11MessageInfoEEEPT_S4_
FN:1041,_ZNSt3__116__to_raw_pointerIN5Catch3PtrINS1_8Matchers4Impl7MatcherINS_12basic_stringIcNS_11char_traitsIcEENS_9allocatorIcEEEEEEEEEEPT_SF_
FN:1041,_ZNSt3__116__to_raw_pointerIPKN5Catch20IExceptionTranslatorEEEPT_S6_
FN:1041,_ZNSt3__116__to_raw_pointerIN5Catch14AssertionStatsEEEPT_S4_
FN:1041,_ZNSt3__116__to_raw_pointerIN5Catch3PtrINS1_18IStreamingReporterEEEEEPT_S6_
FN:1041,_ZNSt3__116__to_raw_pointerIN5Catch8TestSpec6FilterEEEPT_S5_
FN:1041,_ZNSt3__116__to_raw_pointerIKcEEPT_S3_
FN:1041,_ZNSt3__116__to_raw_pointerIPN5Catch14IGeneratorInfoEEEPT_S5_
FN:1041,_ZNSt3__116__to_raw_pointerINS_6vectorIN5Catch3PtrINS2_22CumulativeReporterBase11SectionNodeEEENS_9allocatorIS6_EEEEEEPT_SB_
FN:1041,_ZNSt3__116__to_raw_pointerIKwEEPT_S3_
FN:1041,_ZNSt3__116__to_raw_pointerIN5Catch3PtrINS1_22CumulativeReporterBase4NodeINS1_13TestCaseStatsENS3_11SectionNodeEEEEEEEPT_SA_
FN:1438,_ZNSt3__116allocator_traitsINS_9allocatorIN5Catch3PtrINS2_22CumulativeReporterBase4NodeINS2_14TestGroupStatsENS5_INS2_13TestCaseStatsENS4_11SectionNodeEEEEEEEEEE8allocateERSC_m
FN:1438,_ZNSt3__116allocator_traitsINS_9allocatorINS_11__tree_nodeINS_12__value_typeINS_12basic_stringIcNS_11char_traitsIcEENS1_IcEEEEPN5Catch18IGeneratorsForTestEEEPvEEEEE8allocateERSF_m
FN:1438,_ZNSt3__116allocator_traitsINS_9allocatorINS_11__tree_nodeINS_12__value_typeINS_12basic_stringIcNS_11char_traitsIcEENS1_IcEEEEN5Catch8TagAliasEEEPvEEEEE8allocateERSE_m
FN:1438,_ZNSt3__116allocator_traitsINS_9allocatorIN5Catch8TestCaseEEEE8allocateERS4_m
FN:1438,_ZNSt3__116allocator_traitsINS_9allocatorIN5Catch14SectionEndInfoEEEE8allocateERS4_m
FN:1438,_ZNSt3__116allocator_traitsINS_9allocatorIN5Catch3PtrINS2_22CumulativeReporterBase11SectionNodeEEEEEE8allocateERS7_m
FN:1438,_ZNSt3__116allocator_traitsINS_9allocatorIcEEE8allocateERS2_m
FN:1438,_ZNSt3__116allocator_traitsINS_9allocatorIN5Catch11MessageInfoEEEE8allocateERS4_m
FN:1438,_ZNSt3__116allocator_traitsINS_9allocatorIN5Catch3PtrINS2_16TestCaseTracking8ITrackerEEEEEE8allocateERS7_m
FN:1438,_ZNSt3__116allocator_traitsINS_9allocatorIN5Catch5Clara6Parser5TokenEEEE8allocateERS6_m
FN:1438,_ZNSt3__116allocator_traitsINS_9allocatorIN5Catch3PtrINS2_16IReporterFactoryEEEEEE8allocateERS6_m
FN:1438,_ZNSt3__116allocator_traitsINS_9allocatorIN5Catch3PtrINS2_8TestSpec7PatternEEEEEE8allocateERS7_m
FN:1438,_ZNSt3__116allocator_traitsINS_9allocatorIPN5Catch16TestCaseTracking8ITrackerEEEE8allocateERS6_m
FN:1438,_ZNSt3__116allocator_traitsINS_9allocatorIN5Catch3PtrINS2_22CumulativeReporterBase4NodeINS2_12TestRunStatsENS5_INS2_14TestGroupStatsENS5_INS2_13TestCaseStatsENS4_11SectionNodeEEEEEEEEEEEE8allocateERSE_m
FN:1438,_ZNSt3__116allocator_traitsINS_9allocatorIPN5Catch14IGeneratorInfoEEEE8allocateERS5_m
FN:1438,_ZNSt3__116allocator_traitsINS_9allocatorIN5Catch3PtrINS2_18IStreamingReporterEEEEEE8allocateERS6_m
FN:1438,_ZNSt3__116allocator_traitsINS_9allocatorIN5Catch3PtrINS2_8Matchers4Impl7MatcherINS_12basic_stringIcNS_11char_traitsIcEENS1_IcEEEEEEEEEEE8allocateERSE_m
FN:1438,_ZNSt3__116allocator_traitsINS_9allocatorIPKN5Catch20IExceptionTranslatorEEEE8allocateERS6_m
FN:1438,_ZNSt3__116allocator_traitsINS_9allocatorINS_12basic_stringIcNS_11char_traitsIcEENS1_IcEEEEEEE8allocateERS7_m
FN:1438,_ZNSt3__116allocator_traitsINS_9allocatorINS_11__tree_nodeIN5Catch8TestCaseEPvEEEEE8allocateERS7_m
FN:1438,_ZNSt3__116allocator_traitsINS_9allocatorINS_11__tree_nodeINS_12__value_typeINS_12basic_stringIcNS_11char_traitsIcEENS1_IcEEEEN5Catch7TagInfoEEEPvEEEEE8allocateERSE_m
FN:1438,_ZNSt3__116allocator_traitsINS_9allocatorINS_11__tree_nodeINS_12basic_stringIcNS_11char_traitsIcEENS1_IcEEEEPvEEEEE8allocateERSA_m
FN:1438,_ZNSt3__116allocator_traitsINS_9allocatorIN5Catch15ConsoleReporter13SummaryColumnEEEE8allocateERS5_m
FN:1438,_ZNSt3__116allocator_traitsINS_9allocatorIN5Catch5Clara11CommandLineINS2_10ConfigDataEE3ArgEEEE8allocateERS8_m
FN:1438,_ZNSt3__116allocator_traitsINS_9allocatorINS_11__tree_nodeINS_12__value_typeINS_12basic_stringIcNS_11char_traitsIcEENS1_IcEEEEN5Catch3PtrINS9_16IReporterFactoryEEEEEPvEEEEE8allocateERSG_m
FN:1438,_ZNSt3__116allocator_traitsINS_9allocatorIN5Catch11SectionInfoEEEE8allocateERS4_m
FN:1438,_ZNSt3__116allocator_traitsINS_9allocatorIN5Catch3PtrINS2_22CumulativeReporterBase4NodeINS2_13TestCaseStatsENS4_11SectionNodeEEEEEEEE8allocateERSA_m
FN:1438,_ZNSt3__116allocator_traitsINS_9allocatorINS_11__tree_nodeINS_12__value_typeINS_12basic_stringIcNS_11char_traitsIcEENS1_IcEEEEPN5Catch14IGeneratorInfoEEEPvEEEEE8allocateERSF_m
FN:1438,_ZNSt3__116allocator_traitsINS_9allocatorIN5Catch8TestSpec6FilterEEEE8allocateERS5_m
FN:1438,_ZNSt3__116allocator_traitsINS_9allocatorIN5Catch14AssertionStatsEEEE8allocateERS4_m
FN:1446,_ZNSt3__116allocator_traitsINS_9allocatorIN5Catch3PtrINS2_18IStreamingReporterEEEEEE10deallocateERS6_PS5_m
FN:1446,_ZNSt3__116allocator_traitsINS_9allocatorIPN5Catch16TestCaseTracking8ITrackerEEEE10deallocateERS6_PS5_m
FN:1446,_ZNSt3__116allocator_traitsINS_9allocatorIN5Catch3PtrINS2_22CumulativeReporterBase4NodeINS2_14TestGroupStatsENS5_INS2_13TestCaseStatsENS4_11SectionNodeEEEEEEEEEE10deallocateERSC_PSB_m
FN:1446,_ZNSt3__116allocator_traitsINS_9allocatorIN5Catch3PtrINS2_22CumulativeReporterBase4NodeINS2_13TestCaseStatsENS4_11SectionNodeEEEEEEEE10deallocateERSA_PS9_m
FN:1446,_ZNSt3__116allocator_traitsINS_9allocatorIN5Catch3PtrINS2_16TestCaseTracking8ITrackerEEEEEE10deallocateERS7_PS6_m
FN:1446,_ZNSt3__116allocator_traitsINS_9allocatorIN5Catch3PtrINS2_16IReporterFactoryEEEEEE10deallocateERS6_PS5_m
FN:1446,_ZNSt3__116allocator_traitsINS_9allocatorINS_11__tree_nodeINS_12__value_typeINS_12basic_stringIcNS_11char_traitsIcEENS1_IcEEEEPN5Catch14IGeneratorInfoEEEPvEEEEE10deallocateERSF_PSE_m
FN:1446,_ZNSt3__116allocator_traitsINS_9allocatorINS_6vectorIN5Catch3PtrINS3_22CumulativeReporterBase11SectionNodeEEENS1_IS7_EEEEEEE10deallocateERSA_PS9_m
FN:1446,_ZNSt3__116allocator_traitsINS_9allocatorIN5Catch11MessageInfoEEEE10deallocateERS4_PS3_m
FN:1446,_ZNSt3__116allocator_traitsINS_9allocatorIPN5Catch14IGeneratorInfoEEEE10deallocateERS5_PS4_m
FN:1446,_ZNSt3__116allocator_traitsINS_9allocatorINS_11__tree_nodeINS_12__value_typeINS_12basic_stringIcNS_11char_traitsIcEENS1_IcEEEEN5Catch3PtrINS9_16IReporterFactoryEEEEEPvEEEEE10deallocateERSG_PSF_m
FN:1446,_ZNSt3__116allocator_traitsINS_9allocatorIN5Catch5Clara6Parser5TokenEEEE10deallocateERS6_PS5_m
FN:1446,_ZNSt3__116allocator_traitsINS_9allocatorINS_11__tree_nodeINS_12__value_typeINS_12basic_stringIcNS_11char_traitsIcEENS1_IcEEEEPN5Catch18IGeneratorsForTestEEEPvEEEEE10deallocateERSF_PSE_m
FN:1446,_ZNSt3__116allocator_traitsINS_9allocatorINS_11__tree_nodeINS_12__value_typeINS_12basic_stringIcNS_11char_traitsIcEENS1_IcEEEEN5Catch8TagAliasEEEPvEEEEE10deallocateERSE_PSD_m
FN:1446,_ZNSt3__116allocator_traitsINS_9allocatorIPKN5Catch20IExceptionTranslatorEEEE10deallocateERS6_PS5_m
FN:1446,_ZNSt3__116allocator_traitsINS_9allocatorIN5Catch8TestCaseEEEE10deallocateERS4_PS3_m
FN:1446,_ZNSt3__116allocator_traitsINS_9allocatorIN5Catch3PtrINS2_22CumulativeReporterBase4NodeINS2_12TestRunStatsENS5_INS2_14TestGroupStatsENS5_INS2_13TestCaseStatsENS4_11SectionNodeEEEEEEEEEEEE10deallocateERSE_PSD_m
FN:1446,_ZNSt3__116allocator_traitsINS_9allocatorIN5Catch3PtrINS2_22CumulativeReporterBase11SectionNodeEEEEEE10deallocateERS7_PS6_m
FN:1446,_ZNSt3__116allocator_traitsINS_9allocatorIN5Catch8TestSpec6FilterEEEE10deallocateERS5_PS4_m
FN:1446,_ZNSt3__116allocator_traitsINS_9allocatorIN5Catch3PtrINS2_8Matchers4Impl7MatcherINS_12basic_stringIcNS_11char_traitsIcEENS1_IcEEEEEEEEEEE10deallocateERSE_PSD_m
FN:1446,_ZNSt3__116allocator_traitsINS_9allocatorIN5Catch14AssertionStatsEEEE10deallocateERS4_PS3_m
FN:1446,_ZNSt3__116allocator_traitsINS_9allocatorIN5Catch5Clara11CommandLineINS2_10ConfigDataEE3ArgEEEE10deallocateERS8_PS7_m
FN:1446,_ZNSt3__116allocator_traitsINS_9allocatorINS_11__tree_nodeINS_12__value_typeIiN5Catch5Clara11CommandLineINS4_10ConfigDataEE3ArgEEEPvEEEEE10deallocateERSD_PSC_m
FN:1446,_ZNSt3__116allocator_traitsINS_9allocatorINS_11__tree_nodeINS_12basic_stringIcNS_11char_traitsIcEENS1_IcEEEEPvEEEEE10deallocateERSA_PS9_m
FN:1446,_ZNSt3__116allocator_traitsINS_9allocatorIN5Catch14SectionEndInfoEEEE10deallocateERS4_PS3_m
FN:1446,_ZNSt3__116allocator_traitsINS_9allocatorIN5Catch15ConsoleReporter13SummaryColumnEEEE10deallocateERS5_PS4_m
FN:1446,_ZNSt3__116allocator_traitsINS_9allocatorIN5Catch3PtrINS2_8TestSpec7PatternEEEEEE10deallocateERS7_PS6_m
FN:1446,_ZNSt3__116allocator_traitsINS_9allocatorINS_12basic_stringIcNS_11char_traitsIcEENS1_IcEEEEEEE10deallocateERS7_PS6_m
FN:1446,_ZNSt3__116allocator_traitsINS_9allocatorINS_11__tree_nodeINS_12__value_typeINS_12basic_stringIcNS_11char_traitsIcEENS1_IcEEEEN5Catch7TagInfoEEEPvEEEEE10deallocateERSE_PSD_m
FN:1446,_ZNSt3__116allocator_traitsINS_9allocatorIN5Catch11SectionInfoEEEE10deallocateERS4_PS3_m
FN:1446,_ZNSt3__116allocator_traitsINS_9allocatorINS_11__tree_nodeIN5Catch8TestCaseEPvEEEEE10deallocateERS7_PS6_m
FN:1452,_ZNSt3__116allocator_traitsINS_9allocatorIN5Catch3PtrINS2_22CumulativeReporterBase4NodeINS2_14TestGroupStatsENS5_INS2_13TestCaseStatsENS4_11SectionNodeEEEEEEEEEE9constructISB_JRKSB_EEEvRSC_PT_DpOT0_
FN:1452,_ZNSt3__116allocator_traitsINS_9allocatorIN5Catch3PtrINS2_22CumulativeReporterBase11SectionNodeEEEEEE9constructIS6_JRKS6_EEEvRS7_PT_DpOT0_
FN:1452,_ZNSt3__116allocator_traitsINS_9allocatorINS_12basic_stringIcNS_11char_traitsIcEENS1_IcEEEEEEE9constructIS6_JS6_EEEvRS7_PT_DpOT0_
FN:1452,_ZNSt3__116allocator_traitsINS_9allocatorINS_11__tree_nodeINS_12__value_typeINS_12basic_stringIcNS_11char_traitsIcEENS1_IcEEEEN5Catch8TagAliasEEEPvEEEEE9constructISB_JNS_4pairIPKcSA_EEEEEvRSE_PT_DpOT0_
FN:1452,_ZNSt3__116allocator_traitsINS_9allocatorIN5Catch8TestSpec6FilterEEEE9constructIS4_JRKS4_EEEvRS5_PT_DpOT0_
FN:1452,_ZNSt3__116allocator_traitsINS_9allocatorIN5Catch5Clara11CommandLineINS2_10ConfigDataEE3ArgEEEE9constructIS7_JRKS7_EEEvRS8_PT_DpOT0_
FN:1452,_ZNSt3__116allocator_traitsINS_9allocatorIN5Catch3PtrINS2_8TestSpec7PatternEEEEEE9constructIS6_JRS6_EEEvRS7_PT_DpOT0_
FN:1452,_ZNSt3__116allocator_traitsINS_9allocatorIN5Catch11MessageInfoEEEE9constructIS3_JRS3_EEEvRS4_PT_DpOT0_
FN:1452,_ZNSt3__116allocator_traitsINS_9allocatorINS_11__tree_nodeINS_12__value_typeINS_12basic_stringIcNS_11char_traitsIcEENS1_IcEEEEPN5Catch14IGeneratorInfoEEEPvEEEEE9constructISC_JNS_4pairIS8_SB_EEEEEvRSF_PT_DpOT0_
FN:1452,_ZNSt3__116allocator_traitsINS_9allocatorIN5Catch5Clara11CommandLineINS2_10ConfigDataEE3ArgEEEE9constructIS7_JS7_EEEvRS8_PT_DpOT0_
FN:1452,_ZNSt3__116allocator_traitsINS_9allocatorINS_12basic_stringIcNS_11char_traitsIcEENS1_IcEEEEEEE9constructIS6_JRKS6_EEEvRS7_PT_DpOT0_
FN:1452,_ZNSt3__116allocator_traitsINS_9allocatorIN5Catch8TestSpec6FilterEEEE9constructIS4_JS4_EEEvRS5_PT_DpOT0_
FN:1452,_ZNSt3__116allocator_traitsINS_9allocatorIN5Catch3PtrINS2_22CumulativeReporterBase4NodeINS2_12TestRunStatsENS5_INS2_14TestGroupStatsENS5_INS2_13TestCaseStatsENS4_11SectionNodeEEEEEEEEEEEE9constructISD_JRKSD_EEEvRSE_PT_DpOT0_
FN:1452,_ZNSt3__116allocator_traitsINS_9allocatorIN5Catch5Clara6Parser5TokenEEEE9constructIS5_JRKS5_EEEvRS6_PT_DpOT0_
FN:1452,_ZNSt3__116allocator_traitsINS_9allocatorINS_11__tree_nodeIN5Catch8TestCaseEPvEEEEE9constructIS4_JRKS4_EEEvRS7_PT_DpOT0_
FN:1452,_ZNSt3__116allocator_traitsINS_9allocatorIN5Catch8TestCaseEEEE9constructIS3_JRS3_EEEvRS4_PT_DpOT0_
FN:1452,_ZNSt3__116allocator_traitsINS_9allocatorINS_12basic_stringIcNS_11char_traitsIcEENS1_IcEEEEEEE9constructIS6_JRS6_EEEvRS7_PT_DpOT0_
FN:1452,_ZNSt3__116allocator_traitsINS_9allocatorINS_11__tree_nodeINS_12__value_typeINS_12basic_stringIcNS_11char_traitsIcEENS1_IcEEEEN5Catch3PtrINS9_16IReporterFactoryEEEEEPvEEEEE9constructISD_JNS_4pairIS8_SC_EEEEEvRSG_PT_DpOT0_
FN:1452,_ZNSt3__116allocator_traitsINS_9allocatorIN5Catch3PtrINS2_8Matchers4Impl7MatcherINS_12basic_stringIcNS_11char_traitsIcEENS1_IcEEEEEEEEEEE9constructISD_JRSD_EEEvRSE_PT_DpOT0_
FN:1452,_ZNSt3__116allocator_traitsINS_9allocatorIN5Catch3PtrINS2_16IReporterFactoryEEEEEE9constructIS5_JRKS5_EEEvRS6_PT_DpOT0_
FN:1452,_ZNSt3__116allocator_traitsINS_9allocatorIN5Catch5Clara6Parser5TokenEEEE9constructIS5_JS5_EEEvRS6_PT_DpOT0_
FN:1452,_ZNSt3__116allocator_traitsINS_9allocatorINS_11__tree_nodeINS_12basic_stringIcNS_11char_traitsIcEENS1_IcEEEEPvEEEEE9constructIS7_JRKS7_EEEvRSA_PT_DpOT0_
FN:1452,_ZNSt3__116allocator_traitsINS_9allocatorINS_12basic_stringIcNS_11char_traitsIcEENS1_IcEEEEEEE9constructIS6_JEEEvRS7_PT_DpOT0_
FN:1452,_ZNSt3__116allocator_traitsINS_9allocatorIN5Catch8TestSpec6FilterEEEE9constructIS4_JRS4_EEEvRS5_PT_DpOT0_
FN:1452,_ZNSt3__116allocator_traitsINS_9allocatorIN5Catch3PtrINS2_16IReporterFactoryEEEEEE9constructIS5_JRS5_EEEvRS6_PT_DpOT0_
FN:1452,_ZNSt3__116allocator_traitsINS_9allocatorIN5Catch3PtrINS2_16TestCaseTracking8ITrackerEEEEEE9constructIS6_JRKS6_EEEvRS7_PT_DpOT0_
FN:1452,_ZNSt3__116allocator_traitsINS_9allocatorINS_11__tree_nodeINS_12__value_typeINS_12basic_stringIcNS_11char_traitsIcEENS1_IcEEEEPN5Catch18IGeneratorsForTestEEEPvEEEEE9constructISC_JNS_4pairIS8_SB_EEEEEvRSF_PT_DpOT0_
FN:1452,_ZNSt3__116allocator_traitsINS_9allocatorIN5Catch14SectionEndInfoEEEE9constructIS3_JRKS3_EEEvRS4_PT_DpOT0_
FN:1452,_ZNSt3__116allocator_traitsINS_9allocatorIN5Catch14AssertionStatsEEEE9constructIS3_JS3_EEEvRS4_PT_DpOT0_
FN:1452,_ZNSt3__116allocator_traitsINS_9allocatorIN5Catch14AssertionStatsEEEE9constructIS3_JRKS3_EEEvRS4_PT_DpOT0_
FN:1452,_ZNSt3__116allocator_traitsINS_9allocatorIN5Catch5Clara6Parser5TokenEEEE9constructIS5_JRS5_EEEvRS6_PT_DpOT0_
FN:1452,_ZNSt3__116allocator_traitsINS_9allocatorIN5Catch8TestCaseEEEE9constructIS3_JRKS3_EEEvRS4_PT_DpOT0_
FN:1452,_ZNSt3__116allocator_traitsINS_9allocatorINS_11__tree_nodeINS_12__value_typeINS_12basic_stringIcNS_11char_traitsIcEENS1_IcEEEEN5Catch7TagInfoEEEPvEEEEE9constructISB_JNS_4pairIS8_SA_EEEEEvRSE_PT_DpOT0_
FN:1452,_ZNSt3__116allocator_traitsINS_9allocatorIPKN5Catch20IExceptionTranslatorEEEE9constructIS5_JRKS5_EEEvRS6_PT_DpOT0_
FN:1452,_ZNSt3__116allocator_traitsINS_9allocatorIPN5Catch14IGeneratorInfoEEEE9constructIS4_JRKS4_EEEvRS5_PT_DpOT0_
FN:1452,_ZNSt3__116allocator_traitsINS_9allocatorIN5Catch3PtrINS2_18IStreamingReporterEEEEEE9constructIS5_JRKS5_EEEvRS6_PT_DpOT0_
FN:1452,_ZNSt3__116allocator_traitsINS_9allocatorIN5Catch3PtrINS2_22CumulativeReporterBase4NodeINS2_13TestCaseStatsENS4_11SectionNodeEEEEEEEE9constructIS9_JRKS9_EEEvRSA_PT_DpOT0_
FN:1452,_ZNSt3__116allocator_traitsINS_9allocatorIN5Catch15ConsoleReporter13SummaryColumnEEEE9constructIS4_JS4_EEEvRS5_PT_DpOT0_
FN:1452,_ZNSt3__116allocator_traitsINS_9allocatorIN5Catch14SectionEndInfoEEEE9constructIS3_JS3_EEEvRS4_PT_DpOT0_
FN:1452,_ZNSt3__116allocator_traitsINS_9allocatorIN5Catch11MessageInfoEEEE9constructIS3_JS3_EEEvRS4_PT_DpOT0_
FN:1452,_ZNSt3__116allocator_traitsINS_9allocatorIN5Catch11SectionInfoEEEE9constructIS3_JRKS3_EEEvRS4_PT_DpOT0_
FN:1452,_ZNSt3__116allocator_traitsINS_9allocatorIPN5Catch16TestCaseTracking8ITrackerEEEE9constructIS5_JS5_EEEvRS6_PT_DpOT0_
FN:1452,_ZNSt3__116allocator_traitsINS_9allocatorIN5Catch11MessageInfoEEEE9constructIS3_JRKS3_EEEvRS4_PT_DpOT0_
FN:1452,_ZNSt3__116allocator_traitsINS_9allocatorINS_11__tree_nodeINS_12basic_stringIcNS_11char_traitsIcEENS1_IcEEEEPvEEEEE9constructIS7_JS7_EEEvRSA_PT_DpOT0_
FN:1452,_ZNSt3__116allocator_traitsINS_9allocatorIN5Catch3PtrINS2_8TestSpec7PatternEEEEEE9constructIS6_JRKS6_EEEvRS7_PT_DpOT0_
FN:1452,_ZNSt3__116allocator_traitsINS_9allocatorIN5Catch11SectionInfoEEEE9constructIS3_JS3_EEEvRS4_PT_DpOT0_
FN:1486,_ZNSt3__116allocator_traitsINS_9allocatorINS_11__tree_nodeINS_12__value_typeINS_12basic_stringIcNS_11char_traitsIcEENS1_IcEEEEN5Catch3PtrINS9_16IReporterFactoryEEEEEPvEEEEE7destroyISD_EEvRSG_PT_
FN:1486,_ZNSt3__116allocator_traitsINS_9allocatorIN5Catch8TestCaseEEEE7destroyIS3_EEvRS4_PT_
FN:1486,_ZNSt3__116allocator_traitsINS_9allocatorINS_11__tree_nodeINS_12__value_typeINS_12basic_stringIcNS_11char_traitsIcEENS1_IcEEEEN5Catch7TagInfoEEEPvEEEEE7destroyISB_EEvRSE_PT_
FN:1486,_ZNSt3__116allocator_traitsINS_9allocatorIN5Catch11SectionInfoEEEE7destroyIS3_EEvRS4_PT_
FN:1486,_ZNSt3__116allocator_traitsINS_9allocatorIPN5Catch14IGeneratorInfoEEEE7destroyIS4_EEvRS5_PT_
FN:1486,_ZNSt3__116allocator_traitsINS_9allocatorIN5Catch14SectionEndInfoEEEE7destroyIS3_EEvRS4_PT_
FN:1486,_ZNSt3__116allocator_traitsINS_9allocatorIN5Catch3PtrINS2_8Matchers4Impl7MatcherINS_12basic_stringIcNS_11char_traitsIcEENS1_IcEEEEEEEEEEE7destroyISD_EEvRSE_PT_
FN:1486,_ZNSt3__116allocator_traitsINS_9allocatorIN5Catch15ConsoleReporter13SummaryColumnEEEE7destroyIS4_EEvRS5_PT_
FN:1486,_ZNSt3__116allocator_traitsINS_9allocatorIN5Catch11MessageInfoEEEE7destroyIS3_EEvRS4_PT_
FN:1486,_ZNSt3__116allocator_traitsINS_9allocatorIN5Catch3PtrINS2_16IReporterFactoryEEEEEE7destroyIS5_EEvRS6_PT_
FN:1486,_ZNSt3__116allocator_traitsINS_9allocatorIN5Catch8TestSpec6FilterEEEE7destroyIS4_EEvRS5_PT_
FN:1486,_ZNSt3__116allocator_traitsINS_9allocatorIN5Catch3PtrINS2_8TestSpec7PatternEEEEEE7destroyIS6_EEvRS7_PT_
FN:1486,_ZNSt3__116allocator_traitsINS_9allocatorIN5Catch3PtrINS2_22CumulativeReporterBase11SectionNodeEEEEEE7destroyIS6_EEvRS7_PT_
FN:1486,_ZNSt3__116allocator_traitsINS_9allocatorINS_6vectorIN5Catch3PtrINS3_22CumulativeReporterBase11SectionNodeEEENS1_IS7_EEEEEEE7destroyIS9_EEvRSA_PT_
FN:1486,_ZNSt3__116allocator_traitsINS_9allocatorIPN5Catch16TestCaseTracking8ITrackerEEEE7destroyIS5_EEvRS6_PT_
FN:1486,_ZNSt3__116allocator_traitsINS_9allocatorINS_11__tree_nodeINS_12basic_stringIcNS_11char_traitsIcEENS1_IcEEEEPvEEEEE7destroyIS7_EEvRSA_PT_
FN:1486,_ZNSt3__116allocator_traitsINS_9allocatorIN5Catch3PtrINS2_18IStreamingReporterEEEEEE7destroyIS5_EEvRS6_PT_
FN:1486,_ZNSt3__116allocator_traitsINS_9allocatorINS_11__tree_nodeIN5Catch8TestCaseEPvEEEEE7destroyIS4_EEvRS7_PT_
FN:1486,_ZNSt3__116allocator_traitsINS_9allocatorIN5Catch3PtrINS2_22CumulativeReporterBase4NodeINS2_13TestCaseStatsENS4_11SectionNodeEEEEEEEE7destroyIS9_EEvRSA_PT_
FN:1486,_ZNSt3__116allocator_traitsINS_9allocatorINS_11__tree_nodeINS_12__value_typeINS_12basic_stringIcNS_11char_traitsIcEENS1_IcEEEEPN5Catch18IGeneratorsForTestEEEPvEEEEE7destroyISC_EEvRSF_PT_
FN:1486,_ZNSt3__116allocator_traitsINS_9allocatorINS_12basic_stringIcNS_11char_traitsIcEENS1_IcEEEEEEE7destroyIS6_EEvRS7_PT_
FN:1486,_ZNSt3__116allocator_traitsINS_9allocatorIN5Catch3PtrINS2_22CumulativeReporterBase4NodeINS2_14TestGroupStatsENS5_INS2_13TestCaseStatsENS4_11SectionNodeEEEEEEEEEE7destroyISB_EEvRSC_PT_
FN:1486,_ZNSt3__116allocator_traitsINS_9allocatorIPKN5Catch20IExceptionTranslatorEEEE7destroyIS5_EEvRS6_PT_
FN:1486,_ZNSt3__116allocator_traitsINS_9allocatorIN5Catch3PtrINS2_16TestCaseTracking8ITrackerEEEEEE7destroyIS6_EEvRS7_PT_
FN:1486,_ZNSt3__116allocator_traitsINS_9allocatorIN5Catch5Clara6Parser5TokenEEEE7destroyIS5_EEvRS6_PT_
FN:1486,_ZNSt3__116allocator_traitsINS_9allocatorIN5Catch5Clara11CommandLineINS2_10ConfigDataEE3ArgEEEE7destroyIS7_EEvRS8_PT_
FN:1486,_ZNSt3__116allocator_traitsINS_9allocatorINS_11__tree_nodeINS_12__value_typeINS_12basic_stringIcNS_11char_traitsIcEENS1_IcEEEEPN5Catch14IGeneratorInfoEEEPvEEEEE7destroyISC_EEvRSF_PT_
FN:1486,_ZNSt3__116allocator_traitsINS_9allocatorIN5Catch3PtrINS2_22CumulativeReporterBase4NodeINS2_12TestRunStatsENS5_INS2_14TestGroupStatsENS5_INS2_13TestCaseStatsENS4_11SectionNodeEEEEEEEEEEEE7destroyISD_EEvRSE_PT_
FN:1486,_ZNSt3__116allocator_traitsINS_9allocatorINS_11__tree_nodeINS_12__value_typeINS_12basic_stringIcNS_11char_traitsIcEENS1_IcEEEEN5Catch8TagAliasEEEPvEEEEE7destroyISB_EEvRSE_PT_
FN:1486,_ZNSt3__116allocator_traitsINS_9allocatorIN5Catch14AssertionStatsEEEE7destroyIS3_EEvRS4_PT_
FN:1486,_ZNSt3__116allocator_traitsINS_9allocatorINS_11__tree_nodeINS_12__value_typeIiN5Catch5Clara11CommandLineINS4_10ConfigDataEE3ArgEEEPvEEEEE7destroyISA_EEvRSD_PT_
FN:1490,_ZNSt3__116allocator_traitsINS_9allocatorIcEEE8max_sizeERKS2_
FN:1490,_ZNSt3__116allocator_traitsINS_9allocatorIN5Catch5Clara11CommandLineINS2_10ConfigDataEE3ArgEEEE8max_sizeERKS8_
FN:1490,_ZNSt3__116allocator_traitsINS_9allocatorIN5Catch14SectionEndInfoEEEE8max_sizeERKS4_
FN:1490,_ZNSt3__116allocator_traitsINS_9allocatorINS_12basic_stringIcNS_11char_traitsIcEENS1_IcEEEEEEE8max_sizeERKS7_
FN:1490,_ZNSt3__116allocator_traitsINS_9allocatorIN5Catch3PtrINS2_8Matchers4Impl7MatcherINS_12basic_stringIcNS_11char_traitsIcEENS1_IcEEEEEEEEEEE8max_sizeERKSE_
FN:1490,_ZNSt3__116allocator_traitsINS_9allocatorIN5Catch3PtrINS2_8TestSpec7PatternEEEEEE8max_sizeERKS7_
FN:1490,_ZNSt3__116allocator_traitsINS_9allocatorIN5Catch3PtrINS2_22CumulativeReporterBase4NodeINS2_13TestCaseStatsENS4_11SectionNodeEEEEEEEE8max_sizeERKSA_
FN:1490,_ZNSt3__116allocator_traitsINS_9allocatorIN5Catch3PtrINS2_22CumulativeReporterBase11SectionNodeEEEEEE8max_sizeERKS7_
FN:1490,_ZNSt3__116allocator_traitsINS_9allocatorIN5Catch3PtrINS2_22CumulativeReporterBase4NodeINS2_12TestRunStatsENS5_INS2_14TestGroupStatsENS5_INS2_13TestCaseStatsENS4_11SectionNodeEEEEEEEEEEEE8max_sizeERKSE_
FN:1490,_ZNSt3__116allocator_traitsINS_9allocatorIN5Catch5Clara6Parser5TokenEEEE8max_sizeERKS6_
FN:1490,_ZNSt3__116allocator_traitsINS_9allocatorIN5Catch3PtrINS2_22CumulativeReporterBase4NodeINS2_14TestGroupStatsENS5_INS2_13TestCaseStatsENS4_11SectionNodeEEEEEEEEEE8max_sizeERKSC_
FN:1490,_ZNSt3__116allocator_traitsINS_9allocatorIN5Catch8TestSpec6FilterEEEE8max_sizeERKS5_
FN:1490,_ZNSt3__116allocator_traitsINS_9allocatorIN5Catch11SectionInfoEEEE8max_sizeERKS4_
FN:1490,_ZNSt3__116allocator_traitsINS_9allocatorIN5Catch3PtrINS2_16TestCaseTracking8ITrackerEEEEEE8max_sizeERKS7_
FN:1490,_ZNSt3__116allocator_traitsINS_9allocatorIN5Catch11MessageInfoEEEE8max_sizeERKS4_
FN:1490,_ZNSt3__116allocator_traitsINS_9allocatorIN5Catch15ConsoleReporter13SummaryColumnEEEE8max_sizeERKS5_
FN:1490,_ZNSt3__116allocator_traitsINS_9allocatorIN5Catch8TestCaseEEEE8max_sizeERKS4_
FN:1490,_ZNSt3__116allocator_traitsINS_9allocatorIPKN5Catch20IExceptionTranslatorEEEE8max_sizeERKS6_
FN:1490,_ZNSt3__116allocator_traitsINS_9allocatorIN5Catch3PtrINS2_16IReporterFactoryEEEEEE8max_sizeERKS6_
FN:1490,_ZNSt3__116allocator_traitsINS_9allocatorIN5Catch14AssertionStatsEEEE8max_sizeERKS4_
FN:1490,_ZNSt3__116allocator_traitsINS_9allocatorIPN5Catch14IGeneratorInfoEEEE8max_sizeERKS5_
FN:1490,_ZNSt3__116allocator_traitsINS_9allocatorIPN5Catch16TestCaseTracking8ITrackerEEEE8max_sizeERKS6_
FN:1490,_ZNSt3__116allocator_traitsINS_9allocatorIN5Catch3PtrINS2_18IStreamingReporterEEEEEE8max_sizeERKS6_
FN:1495,_ZNSt3__116allocator_traitsINS_9allocatorINS_11__tree_nodeINS_12basic_stringIcNS_11char_traitsIcEENS1_IcEEEEPvEEEEE37select_on_container_copy_constructionERKSA_
FN:1495,_ZNSt3__116allocator_traitsINS_9allocatorIN5Catch11MessageInfoEEEE37select_on_container_copy_constructionERKS4_
FN:1495,_ZNSt3__116allocator_traitsINS_9allocatorINS_12basic_stringIcNS_11char_traitsIcEENS1_IcEEEEEEE37select_on_container_copy_constructionERKS7_
FN:1495,_ZNSt3__116allocator_traitsINS_9allocatorIN5Catch5Clara6Parser5TokenEEEE37select_on_container_copy_constructionERKS6_
FN:1495,_ZNSt3__116allocator_traitsINS_9allocatorIN5Catch8TestCaseEEEE37select_on_container_copy_constructionERKS4_
FN:1495,_ZNSt3__116allocator_traitsINS_9allocatorIN5Catch3PtrINS2_8TestSpec7PatternEEEEEE37select_on_container_copy_constructionERKS7_
FN:1495,_ZNSt3__116allocator_traitsINS_9allocatorIN5Catch3PtrINS2_16IReporterFactoryEEEEEE37select_on_container_copy_constructionERKS6_
FN:1495,_ZNSt3__116allocator_traitsINS_9allocatorIN5Catch8TestSpec6FilterEEEE37select_on_container_copy_constructionERKS5_
FN:1495,_ZNSt3__116allocator_traitsINS_9allocatorIN5Catch3PtrINS2_8Matchers4Impl7MatcherINS_12basic_stringIcNS_11char_traitsIcEENS1_IcEEEEEEEEEEE37select_on_container_copy_constructionERKSE_
FN:1531,_ZNSt3__116allocator_traitsINS_9allocatorIN5Catch11MessageInfoEEEE25__construct_range_forwardIPS3_S7_EEvRS4_T_S9_RT0_
FN:1531,_ZNSt3__116allocator_traitsINS_9allocatorIN5Catch8TestSpec6FilterEEEE25__construct_range_forwardIPS4_S8_EEvRS5_T_SA_RT0_
FN:1531,_ZNSt3__116allocator_traitsINS_9allocatorIN5Catch3PtrINS2_8TestSpec7PatternEEEEEE25__construct_range_forwardIPS6_SA_EEvRS7_T_SC_RT0_
FN:1531,_ZNSt3__116allocator_traitsINS_9allocatorIN5Catch5Clara6Parser5TokenEEEE25__construct_range_forwardIPS5_S9_EEvRS6_T_SB_RT0_
FN:1531,_ZNSt3__116allocator_traitsINS_9allocatorIN5Catch8TestCaseEEEE25__construct_range_forwardIPS3_S7_EEvRS4_T_S9_RT0_
FN:1531,_ZNSt3__116allocator_traitsINS_9allocatorIN5Catch3PtrINS2_8Matchers4Impl7MatcherINS_12basic_stringIcNS_11char_traitsIcEENS1_IcEEEEEEEEEEE25__construct_range_forwardIPSD_SH_EEvRSE_T_SJ_RT0_
FN:1531,_ZNSt3__116allocator_traitsINS_9allocatorIN5Catch3PtrINS2_16IReporterFactoryEEEEEE25__construct_range_forwardIPS5_S9_EEvRS6_T_SB_RT0_
FN:1531,_ZNSt3__116allocator_traitsINS_9allocatorINS_12basic_stringIcNS_11char_traitsIcEENS1_IcEEEEEEE25__construct_range_forwardIPS6_SA_EEvRS7_T_SC_RT0_
FN:1559,_ZNSt3__116allocator_traitsINS_9allocatorINS_12basic_stringIcNS_11char_traitsIcEENS1_IcEEEEEEE20__construct_backwardIPS6_EEvRS7_T_SC_RSC_
FN:1559,_ZNSt3__116allocator_traitsINS_9allocatorIN5Catch3PtrINS2_22CumulativeReporterBase4NodeINS2_14TestGroupStatsENS5_INS2_13TestCaseStatsENS4_11SectionNodeEEEEEEEEEE20__construct_backwardIPSB_EEvRSC_T_SH_RSH_
FN:1559,_ZNSt3__116allocator_traitsINS_9allocatorIN5Catch3PtrINS2_16TestCaseTracking8ITrackerEEEEEE20__construct_backwardIPS6_EEvRS7_T_SC_RSC_
FN:1559,_ZNSt3__116allocator_traitsINS_9allocatorIN5Catch11MessageInfoEEEE20__construct_backwardIPS3_EEvRS4_T_S9_RS9_
FN:1559,_ZNSt3__116allocator_traitsINS_9allocatorIN5Catch14SectionEndInfoEEEE20__construct_backwardIPS3_EEvRS4_T_S9_RS9_
FN:1559,_ZNSt3__116allocator_traitsINS_9allocatorIN5Catch8TestSpec6FilterEEEE20__construct_backwardIPS4_EEvRS5_T_SA_RSA_
FN:1559,_ZNSt3__116allocator_traitsINS_9allocatorIN5Catch14AssertionStatsEEEE20__construct_backwardIPS3_EEvRS4_T_S9_RS9_
FN:1559,_ZNSt3__116allocator_traitsINS_9allocatorIN5Catch3PtrINS2_18IStreamingReporterEEEEEE20__construct_backwardIPS5_EEvRS6_T_SB_RSB_
FN:1559,_ZNSt3__116allocator_traitsINS_9allocatorIN5Catch3PtrINS2_22CumulativeReporterBase4NodeINS2_12TestRunStatsENS5_INS2_14TestGroupStatsENS5_INS2_13TestCaseStatsENS4_11SectionNodeEEEEEEEEEEEE20__construct_backwardIPSD_EEvRSE_T_SJ_RSJ_
FN:1559,_ZNSt3__116allocator_traitsINS_9allocatorIN5Catch5Clara6Parser5TokenEEEE20__construct_backwardIPS5_EEvRS6_T_SB_RSB_
FN:1559,_ZNSt3__116allocator_traitsINS_9allocatorIN5Catch3PtrINS2_16IReporterFactoryEEEEEE20__construct_backwardIPS5_EEvRS6_T_SB_RSB_
FN:1559,_ZNSt3__116allocator_traitsINS_9allocatorIN5Catch8TestCaseEEEE20__construct_backwardIPS3_EEvRS4_T_S9_RS9_
FN:1559,_ZNSt3__116allocator_traitsINS_9allocatorIN5Catch5Clara11CommandLineINS2_10ConfigDataEE3ArgEEEE20__construct_backwardIPS7_EEvRS8_T_SD_RSD_
FN:1559,_ZNSt3__116allocator_traitsINS_9allocatorIN5Catch3PtrINS2_22CumulativeReporterBase4NodeINS2_13TestCaseStatsENS4_11SectionNodeEEEEEEEE20__construct_backwardIPS9_EEvRSA_T_SF_RSF_
FN:1559,_ZNSt3__116allocator_traitsINS_9allocatorIN5Catch11SectionInfoEEEE20__construct_backwardIPS3_EEvRS4_T_S9_RS9_
FN:1559,_ZNSt3__116allocator_traitsINS_9allocatorIN5Catch15ConsoleReporter13SummaryColumnEEEE20__construct_backwardIPS4_EEvRS5_T_SA_RSA_
FN:1559,_ZNSt3__116allocator_traitsINS_9allocatorIN5Catch3PtrINS2_8TestSpec7PatternEEEEEE20__construct_backwardIPS6_EEvRS7_T_SC_RSC_
FN:1559,_ZNSt3__116allocator_traitsINS_9allocatorIN5Catch3PtrINS2_22CumulativeReporterBase11SectionNodeEEEEEE20__construct_backwardIPS6_EEvRS7_T_SC_RSC_
FN:1578,_ZNSt3__116allocator_traitsINS_9allocatorIPN5Catch14IGeneratorInfoEEEE20__construct_backwardIS4_EENS_9enable_ifIXaaoosr7is_sameIS5_NS1_IT_EEEE5valuentsr15__has_constructIS5_PS9_S9_EE5valuesr31is_trivially_move_constructibleIS9_EE5valueEvE4typeERS5_SB_SB_RSB_
FN:1578,_ZNSt3__116allocator_traitsINS_9allocatorIPKN5Catch20IExceptionTranslatorEEEE20__construct_backwardIS5_EENS_9enable_ifIXaaoosr7is_sameIS6_NS1_IT_EEEE5valuentsr15__has_constructIS6_PSA_SA_EE5valuesr31is_trivially_move_constructibleISA_EE5valueEvE4typeERS6_SC_SC_RSC_
FN:1578,_ZNSt3__116allocator_traitsINS_9allocatorIPN5Catch16TestCaseTracking8ITrackerEEEE20__construct_backwardIS5_EENS_9enable_ifIXaaoosr7is_sameIS6_NS1_IT_EEEE5valuentsr15__has_constructIS6_PSA_SA_EE5valuesr31is_trivially_move_constructibleISA_EE5valueEvE4typeERS6_SC_SC_RSC_
FN:1599,_ZNSt3__116allocator_traitsINS_9allocatorINS_12basic_stringIcNS_11char_traitsIcEENS1_IcEEEEEEE11__constructIS6_JEEEvNS_17integral_constantIbLb1EEERS7_PT_DpOT0_
FN:1599,_ZNSt3__116allocator_traitsINS_9allocatorIN5Catch15ConsoleReporter13SummaryColumnEEEE11__constructIS4_JS4_EEEvNS_17integral_constantIbLb1EEERS5_PT_DpOT0_
FN:1599,_ZNSt3__116allocator_traitsINS_9allocatorINS_11__tree_nodeINS_12basic_stringIcNS_11char_traitsIcEENS1_IcEEEEPvEEEEE11__constructIS7_JRKS7_EEEvNS_17integral_constantIbLb1EEERSA_PT_DpOT0_
FN:1599,_ZNSt3__116allocator_traitsINS_9allocatorIN5Catch14SectionEndInfoEEEE11__constructIS3_JS3_EEEvNS_17integral_constantIbLb1EEERS4_PT_DpOT0_
FN:1599,_ZNSt3__116allocator_traitsINS_9allocatorINS_12basic_stringIcNS_11char_traitsIcEENS1_IcEEEEEEE11__constructIS6_JRS6_EEEvNS_17integral_constantIbLb1EEERS7_PT_DpOT0_
FN:1599,_ZNSt3__116allocator_traitsINS_9allocatorINS_11__tree_nodeIN5Catch8TestCaseEPvEEEEE11__constructIS4_JRKS4_EEEvNS_17integral_constantIbLb1EEERS7_PT_DpOT0_
FN:1599,_ZNSt3__116allocator_traitsINS_9allocatorINS_11__tree_nodeINS_12__value_typeINS_12basic_stringIcNS_11char_traitsIcEENS1_IcEEEEPN5Catch14IGeneratorInfoEEEPvEEEEE11__constructISC_JNS_4pairIS8_SB_EEEEEvNS_17integral_constantIbLb1EEERSF_PT_DpOT0_
FN:1599,_ZNSt3__116allocator_traitsINS_9allocatorIN5Catch3PtrINS2_16TestCaseTracking8ITrackerEEEEEE11__constructIS6_JRKS6_EEEvNS_17integral_constantIbLb1EEERS7_PT_DpOT0_
FN:1599,_ZNSt3__116allocator_traitsINS_9allocatorIN5Catch14SectionEndInfoEEEE11__constructIS3_JRKS3_EEEvNS_17integral_constantIbLb1EEERS4_PT_DpOT0_
FN:1599,_ZNSt3__116allocator_traitsINS_9allocatorIN5Catch3PtrINS2_22CumulativeReporterBase4NodeINS2_13TestCaseStatsENS4_11SectionNodeEEEEEEEE11__constructIS9_JRKS9_EEEvNS_17integral_constantIbLb1EEERSA_PT_DpOT0_
FN:1599,_ZNSt3__116allocator_traitsINS_9allocatorIN5Catch3PtrINS2_22CumulativeReporterBase4NodeINS2_14TestGroupStatsENS5_INS2_13TestCaseStatsENS4_11SectionNodeEEEEEEEEEE11__constructISB_JRKSB_EEEvNS_17integral_constantIbLb1EEERSC_PT_DpOT0_
FN:1599,_ZNSt3__116allocator_traitsINS_9allocatorINS_11__tree_nodeINS_12basic_stringIcNS_11char_traitsIcEENS1_IcEEEEPvEEEEE11__constructIS7_JS7_EEEvNS_17integral_constantIbLb1EEERSA_PT_DpOT0_
FN:1599,_ZNSt3__116allocator_traitsINS_9allocatorIN5Catch8TestSpec6FilterEEEE11__constructIS4_JRKS4_EEEvNS_17integral_constantIbLb1EEERS5_PT_DpOT0_
FN:1599,_ZNSt3__116allocator_traitsINS_9allocatorIN5Catch3PtrINS2_8TestSpec7PatternEEEEEE11__constructIS6_JRKS6_EEEvNS_17integral_constantIbLb1EEERS7_PT_DpOT0_
FN:1599,_ZNSt3__116allocator_traitsINS_9allocatorIN5Catch14AssertionStatsEEEE11__constructIS3_JRKS3_EEEvNS_17integral_constantIbLb1EEERS4_PT_DpOT0_
FN:1599,_ZNSt3__116allocator_traitsINS_9allocatorIN5Catch5Clara6Parser5TokenEEEE11__constructIS5_JRS5_EEEvNS_17integral_constantIbLb1EEERS6_PT_DpOT0_
FN:1599,_ZNSt3__116allocator_traitsINS_9allocatorINS_11__tree_nodeINS_12__value_typeINS_12basic_stringIcNS_11char_traitsIcEENS1_IcEEEEN5Catch8TagAliasEEEPvEEEEE11__constructISB_JNS_4pairIPKcSA_EEEEEvNS_17integral_constantIbLb1EEERSE_PT_DpOT0_
FN:1599,_ZNSt3__116allocator_traitsINS_9allocatorIPN5Catch16TestCaseTracking8ITrackerEEEE11__constructIS5_JS5_EEEvNS_17integral_constantIbLb1EEERS6_PT_DpOT0_
FN:1599,_ZNSt3__116allocator_traitsINS_9allocatorIN5Catch14AssertionStatsEEEE11__constructIS3_JS3_EEEvNS_17integral_constantIbLb1EEERS4_PT_DpOT0_
FN:1599,_ZNSt3__116allocator_traitsINS_9allocatorIN5Catch8TestSpec6FilterEEEE11__constructIS4_JRS4_EEEvNS_17integral_constantIbLb1EEERS5_PT_DpOT0_
FN:1599,_ZNSt3__116allocator_traitsINS_9allocatorIN5Catch3PtrINS2_22CumulativeReporterBase4NodeINS2_12TestRunStatsENS5_INS2_14TestGroupStatsENS5_INS2_13TestCaseStatsENS4_11SectionNodeEEEEEEEEEEEE11__constructISD_JRKSD_EEEvNS_17integral_constantIbLb1EEERSE_PT_DpOT0_
FN:1599,_ZNSt3__116allocator_traitsINS_9allocatorIN5Catch11SectionInfoEEEE11__constructIS3_JS3_EEEvNS_17integral_constantIbLb1EEERS4_PT_DpOT0_
FN:1599,_ZNSt3__116allocator_traitsINS_9allocatorIN5Catch5Clara6Parser5TokenEEEE11__constructIS5_JRKS5_EEEvNS_17integral_constantIbLb1EEERS6_PT_DpOT0_
FN:1599,_ZNSt3__116allocator_traitsINS_9allocatorINS_12basic_stringIcNS_11char_traitsIcEENS1_IcEEEEEEE11__constructIS6_JS6_EEEvNS_17integral_constantIbLb1EEERS7_PT_DpOT0_
FN:1599,_ZNSt3__116allocator_traitsINS_9allocatorIN5Catch5Clara11CommandLineINS2_10ConfigDataEE3ArgEEEE11__constructIS7_JS7_EEEvNS_17integral_constantIbLb1EEERS8_PT_DpOT0_
FN:1599,_ZNSt3__116allocator_traitsINS_9allocatorINS_11__tree_nodeINS_12__value_typeINS_12basic_stringIcNS_11char_traitsIcEENS1_IcEEEEN5Catch3PtrINS9_16IReporterFactoryEEEEEPvEEEEE11__constructISD_JNS_4pairIS8_SC_EEEEEvNS_17integral_constantIbLb1EEERSG_PT_DpOT0_
FN:1599,_ZNSt3__116allocator_traitsINS_9allocatorIN5Catch11SectionInfoEEEE11__constructIS3_JRKS3_EEEvNS_17integral_constantIbLb1EEERS4_PT_DpOT0_
FN:1599,_ZNSt3__116allocator_traitsINS_9allocatorIN5Catch11MessageInfoEEEE11__constructIS3_JRKS3_EEEvNS_17integral_constantIbLb1EEERS4_PT_DpOT0_
FN:1599,_ZNSt3__116allocator_traitsINS_9allocatorIN5Catch3PtrINS2_16IReporterFactoryEEEEEE11__constructIS5_JRKS5_EEEvNS_17integral_constantIbLb1EEERS6_PT_DpOT0_
FN:1599,_ZNSt3__116allocator_traitsINS_9allocatorIPKN5Catch20IExceptionTranslatorEEEE11__constructIS5_JRKS5_EEEvNS_17integral_constantIbLb1EEERS6_PT_DpOT0_
FN:1599,_ZNSt3__116allocator_traitsINS_9allocatorINS_12basic_stringIcNS_11char_traitsIcEENS1_IcEEEEEEE11__constructIS6_JRKS6_EEEvNS_17integral_constantIbLb1EEERS7_PT_DpOT0_
FN:1599,_ZNSt3__116allocator_traitsINS_9allocatorIN5Catch11MessageInfoEEEE11__constructIS3_JS3_EEEvNS_17integral_constantIbLb1EEERS4_PT_DpOT0_
FN:1599,_ZNSt3__116allocator_traitsINS_9allocatorIN5Catch3PtrINS2_8TestSpec7PatternEEEEEE11__constructIS6_JRS6_EEEvNS_17integral_constantIbLb1EEERS7_PT_DpOT0_
FN:1599,_ZNSt3__116allocator_traitsINS_9allocatorIN5Catch5Clara6Parser5TokenEEEE11__constructIS5_JS5_EEEvNS_17integral_constantIbLb1EEERS6_PT_DpOT0_
FN:1599,_ZNSt3__116allocator_traitsINS_9allocatorINS_11__tree_nodeINS_12__value_typeINS_12basic_stringIcNS_11char_traitsIcEENS1_IcEEEEPN5Catch18IGeneratorsForTestEEEPvEEEEE11__constructISC_JNS_4pairIS8_SB_EEEEEvNS_17integral_constantIbLb1EEERSF_PT_DpOT0_
FN:1599,_ZNSt3__116allocator_traitsINS_9allocatorIN5Catch3PtrINS2_18IStreamingReporterEEEEEE11__constructIS5_JRKS5_EEEvNS_17integral_constantIbLb1EEERS6_PT_DpOT0_
FN:1599,_ZNSt3__116allocator_traitsINS_9allocatorIN5Catch8TestCaseEEEE11__constructIS3_JRS3_EEEvNS_17integral_constantIbLb1EEERS4_PT_DpOT0_
FN:1599,_ZNSt3__116allocator_traitsINS_9allocatorIN5Catch3PtrINS2_16IReporterFactoryEEEEEE11__constructIS5_JRS5_EEEvNS_17integral_constantIbLb1EEERS6_PT_DpOT0_
FN:1599,_ZNSt3__116allocator_traitsINS_9allocatorIN5Catch8TestCaseEEEE11__constructIS3_JRKS3_EEEvNS_17integral_constantIbLb1EEERS4_PT_DpOT0_
FN:1599,_ZNSt3__116allocator_traitsINS_9allocatorIN5Catch8TestSpec6FilterEEEE11__constructIS4_JS4_EEEvNS_17integral_constantIbLb1EEERS5_PT_DpOT0_
FN:1599,_ZNSt3__116allocator_traitsINS_9allocatorIPN5Catch14IGeneratorInfoEEEE11__constructIS4_JRKS4_EEEvNS_17integral_constantIbLb1EEERS5_PT_DpOT0_
FN:1599,_ZNSt3__116allocator_traitsINS_9allocatorIN5Catch11MessageInfoEEEE11__constructIS3_JRS3_EEEvNS_17integral_constantIbLb1EEERS4_PT_DpOT0_
FN:1599,_ZNSt3__116allocator_traitsINS_9allocatorIN5Catch5Clara11CommandLineINS2_10ConfigDataEE3ArgEEEE11__constructIS7_JRKS7_EEEvNS_17integral_constantIbLb1EEERS8_PT_DpOT0_
FN:1599,_ZNSt3__116allocator_traitsINS_9allocatorIN5Catch3PtrINS2_8Matchers4Impl7MatcherINS_12basic_stringIcNS_11char_traitsIcEENS1_IcEEEEEEEEEEE11__constructISD_JRSD_EEEvNS_17integral_constantIbLb1EEERSE_PT_DpOT0_
FN:1599,_ZNSt3__116allocator_traitsINS_9allocatorINS_11__tree_nodeINS_12__value_typeINS_12basic_stringIcNS_11char_traitsIcEENS1_IcEEEEN5Catch7TagInfoEEEPvEEEEE11__constructISB_JNS_4pairIS8_SA_EEEEEvNS_17integral_constantIbLb1EEERSE_PT_DpOT0_
FN:1599,_ZNSt3__116allocator_traitsINS_9allocatorIN5Catch3PtrINS2_22CumulativeReporterBase11SectionNodeEEEEEE11__constructIS6_JRKS6_EEEvNS_17integral_constantIbLb1EEERS7_PT_DpOT0_
FN:1611,_ZNSt3__116allocator_traitsINS_9allocatorIN5Catch3PtrINS2_22CumulativeReporterBase4NodeINS2_12TestRunStatsENS5_INS2_14TestGroupStatsENS5_INS2_13TestCaseStatsENS4_11SectionNodeEEEEEEEEEEEE9__destroyISD_EEvNS_17integral_constantIbLb1EEERSE_PT_
FN:1611,_ZNSt3__116allocator_traitsINS_9allocatorIN5Catch3PtrINS2_18IStreamingReporterEEEEEE9__destroyIS5_EEvNS_17integral_constantIbLb1EEERS6_PT_
FN:1611,_ZNSt3__116allocator_traitsINS_9allocatorIN5Catch8TestCaseEEEE9__destroyIS3_EEvNS_17integral_constantIbLb1EEERS4_PT_
FN:1611,_ZNSt3__116allocator_traitsINS_9allocatorIPN5Catch16TestCaseTracking8ITrackerEEEE9__destroyIS5_EEvNS_17integral_constantIbLb1EEERS6_PT_
FN:1611,_ZNSt3__116allocator_traitsINS_9allocatorIN5Catch14AssertionStatsEEEE9__destroyIS3_EEvNS_17integral_constantIbLb1EEERS4_PT_
FN:1611,_ZNSt3__116allocator_traitsINS_9allocatorIN5Catch3PtrINS2_16TestCaseTracking8ITrackerEEEEEE9__destroyIS6_EEvNS_17integral_constantIbLb1EEERS7_PT_
FN:1611,_ZNSt3__116allocator_traitsINS_9allocatorIN5Catch11MessageInfoEEEE9__destroyIS3_EEvNS_17integral_constantIbLb1EEERS4_PT_
FN:1611,_ZNSt3__116allocator_traitsINS_9allocatorIN5Catch3PtrINS2_16IReporterFactoryEEEEEE9__destroyIS5_EEvNS_17integral_constantIbLb1EEERS6_PT_
FN:1611,_ZNSt3__116allocator_traitsINS_9allocatorIN5Catch15ConsoleReporter13SummaryColumnEEEE9__destroyIS4_EEvNS_17integral_constantIbLb1EEERS5_PT_
FN:1611,_ZNSt3__116allocator_traitsINS_9allocatorIPKN5Catch20IExceptionTranslatorEEEE9__destroyIS5_EEvNS_17integral_constantIbLb1EEERS6_PT_
FN:1611,_ZNSt3__116allocator_traitsINS_9allocatorIN5Catch11SectionInfoEEEE9__destroyIS3_EEvNS_17integral_constantIbLb1EEERS4_PT_
FN:1611,_ZNSt3__116allocator_traitsINS_9allocatorIN5Catch3PtrINS2_22CumulativeReporterBase4NodeINS2_14TestGroupStatsENS5_INS2_13TestCaseStatsENS4_11SectionNodeEEEEEEEEEE9__destroyISB_EEvNS_17integral_constantIbLb1EEERSC_PT_
FN:1611,_ZNSt3__116allocator_traitsINS_9allocatorIN5Catch3PtrINS2_8TestSpec7PatternEEEEEE9__destroyIS6_EEvNS_17integral_constantIbLb1EEERS7_PT_
FN:1611,_ZNSt3__116allocator_traitsINS_9allocatorIN5Catch8TestSpec6FilterEEEE9__destroyIS4_EEvNS_17integral_constantIbLb1EEERS5_PT_
FN:1611,_ZNSt3__116allocator_traitsINS_9allocatorIN5Catch5Clara6Parser5TokenEEEE9__destroyIS5_EEvNS_17integral_constantIbLb1EEERS6_PT_
FN:1611,_ZNSt3__116allocator_traitsINS_9allocatorIN5Catch3PtrINS2_22CumulativeReporterBase4NodeINS2_13TestCaseStatsENS4_11SectionNodeEEEEEEEE9__destroyIS9_EEvNS_17integral_constantIbLb1EEERSA_PT_
FN:1611,_ZNSt3__116allocator_traitsINS_9allocatorIN5Catch3PtrINS2_22CumulativeReporterBase11SectionNodeEEEEEE9__destroyIS6_EEvNS_17integral_constantIbLb1EEERS7_PT_
FN:1611,_ZNSt3__116allocator_traitsINS_9allocatorINS_6vectorIN5Catch3PtrINS3_22CumulativeReporterBase11SectionNodeEEENS1_IS7_EEEEEEE9__destroyIS9_EEvNS_17integral_constantIbLb1EEERSA_PT_
FN:1611,_ZNSt3__116allocator_traitsINS_9allocatorIN5Catch14SectionEndInfoEEEE9__destroyIS3_EEvNS_17integral_constantIbLb1EEERS4_PT_
FN:1611,_ZNSt3__116allocator_traitsINS_9allocatorINS_12basic_stringIcNS_11char_traitsIcEENS1_IcEEEEEEE9__destroyIS6_EEvNS_17integral_constantIbLb1EEERS7_PT_
FN:1611,_ZNSt3__116allocator_traitsINS_9allocatorIN5Catch5Clara11CommandLineINS2_10ConfigDataEE3ArgEEEE9__destroyIS7_EEvNS_17integral_constantIbLb1EEERS8_PT_
FN:1611,_ZNSt3__116allocator_traitsINS_9allocatorIPN5Catch14IGeneratorInfoEEEE9__destroyIS4_EEvNS_17integral_constantIbLb1EEERS5_PT_
FN:1611,_ZNSt3__116allocator_traitsINS_9allocatorIN5Catch3PtrINS2_8Matchers4Impl7MatcherINS_12basic_stringIcNS_11char_traitsIcEENS1_IcEEEEEEEEEEE9__destroyISD_EEvNS_17integral_constantIbLb1EEERSE_PT_
FN:1615,_ZNSt3__116allocator_traitsINS_9allocatorINS_11__tree_nodeINS_12__value_typeIiN5Catch5Clara11CommandLineINS4_10ConfigDataEE3ArgEEEPvEEEEE9__destroyISA_EEvNS_17integral_constantIbLb0EEERSD_PT_
FN:1615,_ZNSt3__116allocator_traitsINS_9allocatorINS_11__tree_nodeINS_12__value_typeINS_12basic_stringIcNS_11char_traitsIcEENS1_IcEEEEPN5Catch14IGeneratorInfoEEEPvEEEEE9__destroyISC_EEvNS_17integral_constantIbLb0EEERSF_PT_
FN:1615,_ZNSt3__116allocator_traitsINS_9allocatorINS_11__tree_nodeINS_12__value_typeINS_12basic_stringIcNS_11char_traitsIcEENS1_IcEEEEPN5Catch18IGeneratorsForTestEEEPvEEEEE9__destroyISC_EEvNS_17integral_constantIbLb0EEERSF_PT_
FN:1615,_ZNSt3__116allocator_traitsINS_9allocatorINS_11__tree_nodeINS_12__value_typeINS_12basic_stringIcNS_11char_traitsIcEENS1_IcEEEEN5Catch8TagAliasEEEPvEEEEE9__destroyISB_EEvNS_17integral_constantIbLb0EEERSE_PT_
FN:1615,_ZNSt3__116allocator_traitsINS_9allocatorINS_11__tree_nodeINS_12__value_typeINS_12basic_stringIcNS_11char_traitsIcEENS1_IcEEEEN5Catch3PtrINS9_16IReporterFactoryEEEEEPvEEEEE9__destroyISD_EEvNS_17integral_constantIbLb0EEERSG_PT_
FN:1615,_ZNSt3__116allocator_traitsINS_9allocatorINS_11__tree_nodeINS_12basic_stringIcNS_11char_traitsIcEENS1_IcEEEEPvEEEEE9__destroyIS7_EEvNS_17integral_constantIbLb0EEERSA_PT_
FN:1615,_ZNSt3__116allocator_traitsINS_9allocatorINS_11__tree_nodeIN5Catch8TestCaseEPvEEEEE9__destroyIS4_EEvNS_17integral_constantIbLb0EEERS7_PT_
FN:1615,_ZNSt3__116allocator_traitsINS_9allocatorINS_11__tree_nodeINS_12__value_typeINS_12basic_stringIcNS_11char_traitsIcEENS1_IcEEEEN5Catch7TagInfoEEEPvEEEEE9__destroyISB_EEvNS_17integral_constantIbLb0EEERSE_PT_
FN:1621,_ZNSt3__116allocator_traitsINS_9allocatorIN5Catch8TestCaseEEEE10__max_sizeENS_17integral_constantIbLb1EEERKS4_
FN:1621,_ZNSt3__116allocator_traitsINS_9allocatorIN5Catch3PtrINS2_16TestCaseTracking8ITrackerEEEEEE10__max_sizeENS_17integral_constantIbLb1EEERKS7_
FN:1621,_ZNSt3__116allocator_traitsINS_9allocatorIN5Catch14SectionEndInfoEEEE10__max_sizeENS_17integral_constantIbLb1EEERKS4_
FN:1621,_ZNSt3__116allocator_traitsINS_9allocatorIN5Catch3PtrINS2_22CumulativeReporterBase11SectionNodeEEEEEE10__max_sizeENS_17integral_constantIbLb1EEERKS7_
FN:1621,_ZNSt3__116allocator_traitsINS_9allocatorIN5Catch5Clara6Parser5TokenEEEE10__max_sizeENS_17integral_constantIbLb1EEERKS6_
FN:1621,_ZNSt3__116allocator_traitsINS_9allocatorIN5Catch11MessageInfoEEEE10__max_sizeENS_17integral_constantIbLb1EEERKS4_
FN:1621,_ZNSt3__116allocator_traitsINS_9allocatorIN5Catch14AssertionStatsEEEE10__max_sizeENS_17integral_constantIbLb1EEERKS4_
FN:1621,_ZNSt3__116allocator_traitsINS_9allocatorIN5Catch15ConsoleReporter13SummaryColumnEEEE10__max_sizeENS_17integral_constantIbLb1EEERKS5_
FN:1621,_ZNSt3__116allocator_traitsINS_9allocatorIN5Catch3PtrINS2_8TestSpec7PatternEEEEEE10__max_sizeENS_17integral_constantIbLb1EEERKS7_
FN:1621,_ZNSt3__116allocator_traitsINS_9allocatorIcEEE10__max_sizeENS_17integral_constantIbLb1EEERKS2_
FN:1621,_ZNSt3__116allocator_traitsINS_9allocatorIN5Catch5Clara11CommandLineINS2_10ConfigDataEE3ArgEEEE10__max_sizeENS_17integral_constantIbLb1EEERKS8_
FN:1621,_ZNSt3__116allocator_traitsINS_9allocatorIN5Catch3PtrINS2_16IReporterFactoryEEEEEE10__max_sizeENS_17integral_constantIbLb1EEERKS6_
FN:1621,_ZNSt3__116allocator_traitsINS_9allocatorINS_12basic_stringIcNS_11char_traitsIcEENS1_IcEEEEEEE10__max_sizeENS_17integral_constantIbLb1EEERKS7_
FN:1621,_ZNSt3__116allocator_traitsINS_9allocatorIN5Catch3PtrINS2_22CumulativeReporterBase4NodeINS2_13TestCaseStatsENS4_11SectionNodeEEEEEEEE10__max_sizeENS_17integral_constantIbLb1EEERKSA_
FN:1621,_ZNSt3__116allocator_traitsINS_9allocatorIN5Catch3PtrINS2_22CumulativeReporterBase4NodeINS2_12TestRunStatsENS5_INS2_14TestGroupStatsENS5_INS2_13TestCaseStatsENS4_11SectionNodeEEEEEEEEEEEE10__max_sizeENS_17integral_constantIbLb1EEERKSE_
FN:1621,_ZNSt3__116allocator_traitsINS_9allocatorIN5Catch3PtrINS2_8Matchers4Impl7MatcherINS_12basic_stringIcNS_11char_traitsIcEENS1_IcEEEEEEEEEEE10__max_sizeENS_17integral_constantIbLb1EEERKSE_
FN:1621,_ZNSt3__116allocator_traitsINS_9allocatorIPN5Catch16TestCaseTracking8ITrackerEEEE10__max_sizeENS_17integral_constantIbLb1EEERKS6_
FN:1621,_ZNSt3__116allocator_traitsINS_9allocatorIPKN5Catch20IExceptionTranslatorEEEE10__max_sizeENS_17integral_constantIbLb1EEERKS6_
FN:1621,_ZNSt3__116allocator_traitsINS_9allocatorIN5Catch11SectionInfoEEEE10__max_sizeENS_17integral_constantIbLb1EEERKS4_
FN:1621,_ZNSt3__116allocator_traitsINS_9allocatorIN5Catch8TestSpec6FilterEEEE10__max_sizeENS_17integral_constantIbLb1EEERKS5_
FN:1621,_ZNSt3__116allocator_traitsINS_9allocatorIN5Catch3PtrINS2_18IStreamingReporterEEEEEE10__max_sizeENS_17integral_constantIbLb1EEERKS6_
FN:1621,_ZNSt3__116allocator_traitsINS_9allocatorIN5Catch3PtrINS2_22CumulativeReporterBase4NodeINS2_14TestGroupStatsENS5_INS2_13TestCaseStatsENS4_11SectionNodeEEEEEEEEEE10__max_sizeENS_17integral_constantIbLb1EEERKSC_
FN:1621,_ZNSt3__116allocator_traitsINS_9allocatorIPN5Catch14IGeneratorInfoEEEE10__max_sizeENS_17integral_constantIbLb1EEERKS5_
FN:1633,_ZNSt3__116allocator_traitsINS_9allocatorIN5Catch3PtrINS2_8Matchers4Impl7MatcherINS_12basic_stringIcNS_11char_traitsIcEENS1_IcEEEEEEEEEEE37select_on_container_copy_constructionENS_17integral_constantIbLb0EEERKSE_
FN:1633,_ZNSt3__116allocator_traitsINS_9allocatorIN5Catch8TestCaseEEEE37select_on_container_copy_constructionENS_17integral_constantIbLb0EEERKS4_
FN:1633,_ZNSt3__116allocator_traitsINS_9allocatorIN5Catch3PtrINS2_16IReporterFactoryEEEEEE37select_on_container_copy_constructionENS_17integral_constantIbLb0EEERKS6_
FN:1633,_ZNSt3__116allocator_traitsINS_9allocatorIN5Catch3PtrINS2_8TestSpec7PatternEEEEEE37select_on_container_copy_constructionENS_17integral_constantIbLb0EEERKS7_
FN:1633,_ZNSt3__116allocator_traitsINS_9allocatorINS_11__tree_nodeINS_12basic_stringIcNS_11char_traitsIcEENS1_IcEEEEPvEEEEE37select_on_container_copy_constructionENS_17integral_constantIbLb0EEERKSA_
FN:1633,_ZNSt3__116allocator_traitsINS_9allocatorIN5Catch11MessageInfoEEEE37select_on_container_copy_constructionENS_17integral_constantIbLb0EEERKS4_
FN:1633,_ZNSt3__116allocator_traitsINS_9allocatorIN5Catch5Clara6Parser5TokenEEEE37select_on_container_copy_constructionENS_17integral_constantIbLb0EEERKS6_
FN:1633,_ZNSt3__116allocator_traitsINS_9allocatorIN5Catch8TestSpec6FilterEEEE37select_on_container_copy_constructionENS_17integral_constantIbLb0EEERKS5_
FN:1633,_ZNSt3__116allocator_traitsINS_9allocatorINS_12basic_stringIcNS_11char_traitsIcEENS1_IcEEEEEEE37select_on_container_copy_constructionENS_17integral_constantIbLb0EEERKS7_
FN:1655,_ZNSt3__19allocatorIN5Catch3PtrINS1_22CumulativeReporterBase11SectionNodeEEEEC2Ev
FN:1655,_ZNSt3__19allocatorINS_11__tree_nodeIN5Catch8TestCaseEPvEEEC2Ev
FN:1655,_ZNSt3__19allocatorIwEC2Ev
FN:1655,_ZNSt3__19allocatorINS_11__tree_nodeINS_12__value_typeINS_12basic_stringIcNS_11char_traitsIcEENS0_IcEEEEN5Catch7TagInfoEEEPvEEEC2Ev
FN:1655,_ZNSt3__19allocatorIN5Catch11SectionInfoEEC2Ev
FN:1655,_ZNSt3__19allocatorIN5Catch5Clara11CommandLineINS1_10ConfigDataEE3ArgEEC2Ev
FN:1655,_ZNSt3__19allocatorINS_11__tree_nodeINS_12__value_typeINS_12basic_stringIcNS_11char_traitsIcEENS0_IcEEEEPN5Catch18IGeneratorsForTestEEEPvEEEC2Ev
FN:1655,_ZNSt3__19allocatorIN5Catch3PtrINS1_16TestCaseTracking8ITrackerEEEEC2Ev
FN:1655,_ZNSt3__19allocatorIN5Catch15ConsoleReporter13SummaryColumnEEC2Ev
FN:1655,_ZNSt3__19allocatorIN5Catch8TestCaseEEC2Ev
FN:1655,_ZNSt3__19allocatorIcEC2Ev
FN:1655,_ZNSt3__19allocatorIN5Catch3PtrINS1_16IReporterFactoryEEEEC2Ev
FN:1655,_ZNSt3__19allocatorIN5Catch5Clara6Parser5TokenEEC2Ev
FN:1655,_ZNSt3__19allocatorINS_6vectorIN5Catch3PtrINS2_22CumulativeReporterBase11SectionNodeEEENS0_IS6_EEEEEC2Ev
FN:1655,_ZNSt3__19allocatorIN5Catch3PtrINS1_22CumulativeReporterBase4NodeINS1_13TestCaseStatsENS3_11SectionNodeEEEEEEC2Ev
FN:1655,_ZNSt3__19allocatorIN5Catch14AssertionStatsEEC2Ev
FN:1655,_ZNSt3__19allocatorIN5Catch3PtrINS1_8TestSpec7PatternEEEEC2Ev
FN:1655,_ZNSt3__19allocatorIN5Catch3PtrINS1_8Matchers4Impl7MatcherINS_12basic_stringIcNS_11char_traitsIcEENS0_IcEEEEEEEEEC2Ev
FN:1655,_ZNSt3__19allocatorIN5Catch8TestSpec6FilterEEC2Ev
FN:1655,_ZNSt3__19allocatorINS_11__tree_nodeINS_12__value_typeIiN5Catch5Clara11CommandLineINS3_10ConfigDataEE3ArgEEEPvEEEC2Ev
FN:1655,_ZNSt3__19allocatorIN5Catch3PtrINS1_22CumulativeReporterBase4NodeINS1_14TestGroupStatsENS4_INS1_13TestCaseStatsENS3_11SectionNodeEEEEEEEEC2Ev
FN:1655,_ZNSt3__19allocatorINS_11__tree_nodeINS_12__value_typeINS_12basic_stringIcNS_11char_traitsIcEENS0_IcEEEEPN5Catch14IGeneratorInfoEEEPvEEEC2Ev
FN:1655,_ZNSt3__19allocatorIN5Catch3PtrINS1_22CumulativeReporterBase4NodeINS1_12TestRunStatsENS4_INS1_14TestGroupStatsENS4_INS1_13TestCaseStatsENS3_11SectionNodeEEEEEEEEEEC2Ev
FN:1655,_ZNSt3__19allocatorINS_11__tree_nodeINS_12__value_typeINS_12basic_stringIcNS_11char_traitsIcEENS0_IcEEEEN5Catch3PtrINS8_16IReporterFactoryEEEEEPvEEEC2Ev
FN:1655,_ZNSt3__19allocatorINS_11__tree_nodeINS_12__value_typeINS_12basic_stringIcNS_11char_traitsIcEENS0_IcEEEEN5Catch8TagAliasEEEPvEEEC2Ev
FN:1655,_ZNSt3__19allocatorIN5Catch3PtrINS1_18IStreamingReporterEEEEC2Ev
FN:1655,_ZNSt3__19allocatorIPN5Catch14IGeneratorInfoEEC2Ev
FN:1655,_ZNSt3__19allocatorIPKN5Catch20IExceptionTranslatorEEC2Ev
FN:1655,_ZNSt3__19allocatorIPN5Catch16TestCaseTracking8ITrackerEEC2Ev
FN:1655,_ZNSt3__19allocatorIN5Catch14SectionEndInfoEEC2Ev
FN:1655,_ZNSt3__19allocatorIN5Catch11MessageInfoEEC2Ev
FN:1655,_ZNSt3__19allocatorINS_12basic_stringIcNS_11char_traitsIcEENS0_IcEEEEEC2Ev
FN:1655,_ZNSt3__19allocatorINS_11__tree_nodeINS_12basic_stringIcNS_11char_traitsIcEENS0_IcEEEEPvEEEC2Ev
FN:1661,_ZNSt3__19allocatorIN5Catch14AssertionStatsEE8allocateEmPKv
FN:1661,_ZNSt3__19allocatorIN5Catch8TestSpec6FilterEE8allocateEmPKv
FN:1661,_ZNSt3__19allocatorIN5Catch3PtrINS1_22CumulativeReporterBase4NodeINS1_13TestCaseStatsENS3_11SectionNodeEEEEEE8allocateEmPKv
FN:1661,_ZNSt3__19allocatorINS_11__tree_nodeINS_12__value_typeINS_12basic_stringIcNS_11char_traitsIcEENS0_IcEEEEPN5Catch18IGeneratorsForTestEEEPvEEE8allocateEmPKv
FN:1661,_ZNSt3__19allocatorIN5Catch14SectionEndInfoEE8allocateEmPKv
FN:1661,_ZNSt3__19allocatorIN5Catch3PtrINS1_22CumulativeReporterBase4NodeINS1_14TestGroupStatsENS4_INS1_13TestCaseStatsENS3_11SectionNodeEEEEEEEE8allocateEmPKv
FN:1661,_ZNSt3__19allocatorIN5Catch3PtrINS1_8Matchers4Impl7MatcherINS_12basic_stringIcNS_11char_traitsIcEENS0_IcEEEEEEEEE8allocateEmPKv
FN:1661,_ZNSt3__19allocatorINS_11__tree_nodeIN5Catch8TestCaseEPvEEE8allocateEmPKv
FN:1661,_ZNSt3__19allocatorIN5Catch3PtrINS1_8TestSpec7PatternEEEE8allocateEmPKv
FN:1661,_ZNSt3__19allocatorIPN5Catch14IGeneratorInfoEE8allocateEmPKv
FN:1661,_ZNSt3__19allocatorINS_12basic_stringIcNS_11char_traitsIcEENS0_IcEEEEE8allocateEmPKv
FN:1661,_ZNSt3__19allocatorINS_11__tree_nodeINS_12basic_stringIcNS_11char_traitsIcEENS0_IcEEEEPvEEE8allocateEmPKv
FN:1661,_ZNSt3__19allocatorIN5Catch3PtrINS1_16TestCaseTracking8ITrackerEEEE8allocateEmPKv
FN:1661,_ZNSt3__19allocatorIN5Catch5Clara6Parser5TokenEE8allocateEmPKv
FN:1661,_ZNSt3__19allocatorIN5Catch8TestCaseEE8allocateEmPKv
FN:1661,_ZNSt3__19allocatorINS_11__tree_nodeINS_12__value_typeINS_12basic_stringIcNS_11char_traitsIcEENS0_IcEEEEN5Catch8TagAliasEEEPvEEE8allocateEmPKv
FN:1661,_ZNSt3__19allocatorIN5Catch3PtrINS1_22CumulativeReporterBase4NodeINS1_12TestRunStatsENS4_INS1_14TestGroupStatsENS4_INS1_13TestCaseStatsENS3_11SectionNodeEEEEEEEEEE8allocateEmPKv
FN:1661,_ZNSt3__19allocatorIN5Catch15ConsoleReporter13SummaryColumnEE8allocateEmPKv
FN:1661,_ZNSt3__19allocatorIN5Catch11SectionInfoEE8allocateEmPKv
FN:1661,_ZNSt3__19allocatorIN5Catch5Clara11CommandLineINS1_10ConfigDataEE3ArgEE8allocateEmPKv
FN:1661,_ZNSt3__19allocatorIPKN5Catch20IExceptionTranslatorEE8allocateEmPKv
FN:1661,_ZNSt3__19allocatorIN5Catch3PtrINS1_18IStreamingReporterEEEE8allocateEmPKv
FN:1661,_ZNSt3__19allocatorINS_11__tree_nodeINS_12__value_typeINS_12basic_stringIcNS_11char_traitsIcEENS0_IcEEEEN5Catch7TagInfoEEEPvEEE8allocateEmPKv
FN:1661,_ZNSt3__19allocatorIN5Catch3PtrINS1_22CumulativeReporterBase11SectionNodeEEEE8allocateEmPKv
FN:1661,_ZNSt3__19allocatorINS_11__tree_nodeINS_12__value_typeINS_12basic_stringIcNS_11char_traitsIcEENS0_IcEEEEN5Catch3PtrINS8_16IReporterFactoryEEEEEPvEEE8allocateEmPKv
FN:1661,_ZNSt3__19allocatorINS_11__tree_nodeINS_12__value_typeINS_12basic_stringIcNS_11char_traitsIcEENS0_IcEEEEPN5Catch14IGeneratorInfoEEEPvEEE8allocateEmPKv
FN:1661,_ZNSt3__19allocatorIPN5Catch16TestCaseTracking8ITrackerEE8allocateEmPKv
FN:1661,_ZNSt3__19allocatorIN5Catch11MessageInfoEE8allocateEmPKv
FN:1661,_ZNSt3__19allocatorIcE8allocateEmPKv
FN:1661,_ZNSt3__19allocatorIN5Catch3PtrINS1_16IReporterFactoryEEEE8allocateEmPKv
FN:1663,_ZNSt3__19allocatorIN5Catch5Clara6Parser5TokenEE10deallocateEPS4_m
FN:1663,_ZNSt3__19allocatorINS_11__tree_nodeIN5Catch8TestCaseEPvEEE10deallocateEPS5_m
FN:1663,_ZNSt3__19allocatorIN5Catch8TestCaseEE10deallocateEPS2_m
FN:1663,_ZNSt3__19allocatorINS_12basic_stringIcNS_11char_traitsIcEENS0_IcEEEEE10deallocateEPS5_m
FN:1663,_ZNSt3__19allocatorIN5Catch3PtrINS1_22CumulativeReporterBase4NodeINS1_14TestGroupStatsENS4_INS1_13TestCaseStatsENS3_11SectionNodeEEEEEEEE10deallocateEPSA_m
FN:1663,_ZNSt3__19allocatorIPKN5Catch20IExceptionTranslatorEE10deallocateEPS4_m
FN:1663,_ZNSt3__19allocatorIN5Catch14AssertionStatsEE10deallocateEPS2_m
FN:1663,_ZNSt3__19allocatorIN5Catch3PtrINS1_16IReporterFactoryEEEE10deallocateEPS4_m
FN:1663,_ZNSt3__19allocatorIN5Catch5Clara11CommandLineINS1_10ConfigDataEE3ArgEE10deallocateEPS6_m
FN:1663,_ZNSt3__19allocatorIN5Catch15ConsoleReporter13SummaryColumnEE10deallocateEPS3_m
FN:1663,_ZNSt3__19allocatorIN5Catch14SectionEndInfoEE10deallocateEPS2_m
FN:1663,_ZNSt3__19allocatorINS_11__tree_nodeINS_12basic_stringIcNS_11char_traitsIcEENS0_IcEEEEPvEEE10deallocateEPS8_m
FN:1663,_ZNSt3__19allocatorIN5Catch8TestSpec6FilterEE10deallocateEPS3_m
FN:1663,_ZNSt3__19allocatorIN5Catch3PtrINS1_18IStreamingReporterEEEE10deallocateEPS4_m
FN:1663,_ZNSt3__19allocatorINS_11__tree_nodeINS_12__value_typeINS_12basic_stringIcNS_11char_traitsIcEENS0_IcEEEEPN5Catch18IGeneratorsForTestEEEPvEEE10deallocateEPSD_m
FN:1663,_ZNSt3__19allocatorIN5Catch3PtrINS1_8TestSpec7PatternEEEE10deallocateEPS5_m
FN:1663,_ZNSt3__19allocatorIN5Catch3PtrINS1_22CumulativeReporterBase11SectionNodeEEEE10deallocateEPS5_m
FN:1663,_ZNSt3__19allocatorIN5Catch3PtrINS1_22CumulativeReporterBase4NodeINS1_13TestCaseStatsENS3_11SectionNodeEEEEEE10deallocateEPS8_m
FN:1663,_ZNSt3__19allocatorIN5Catch3PtrINS1_22CumulativeReporterBase4NodeINS1_12TestRunStatsENS4_INS1_14TestGroupStatsENS4_INS1_13TestCaseStatsENS3_11SectionNodeEEEEEEEEEE10deallocateEPSC_m
FN:1663,_ZNSt3__19allocatorINS_11__tree_nodeINS_12__value_typeINS_12basic_stringIcNS_11char_traitsIcEENS0_IcEEEEPN5Catch14IGeneratorInfoEEEPvEEE10deallocateEPSD_m
FN:1663,_ZNSt3__19allocatorIN5Catch11MessageInfoEE10deallocateEPS2_m
FN:1663,_ZNSt3__19allocatorINS_11__tree_nodeINS_12__value_typeINS_12basic_stringIcNS_11char_traitsIcEENS0_IcEEEEN5Catch8TagAliasEEEPvEEE10deallocateEPSC_m
FN:1663,_ZNSt3__19allocatorINS_6vectorIN5Catch3PtrINS2_22CumulativeReporterBase11SectionNodeEEENS0_IS6_EEEEE10deallocateEPS8_m
FN:1663,_ZNSt3__19allocatorINS_11__tree_nodeINS_12__value_typeINS_12basic_stringIcNS_11char_traitsIcEENS0_IcEEEEN5Catch3PtrINS8_16IReporterFactoryEEEEEPvEEE10deallocateEPSE_m
FN:1663,_ZNSt3__19allocatorIPN5Catch16TestCaseTracking8ITrackerEE10deallocateEPS4_m
FN:1663,_ZNSt3__19allocatorINS_11__tree_nodeINS_12__value_typeIiN5Catch5Clara11CommandLineINS3_10ConfigDataEE3ArgEEEPvEEE10deallocateEPSB_m
FN:1663,_ZNSt3__19allocatorIN5Catch11SectionInfoEE10deallocateEPS2_m
FN:1663,_ZNSt3__19allocatorINS_11__tree_nodeINS_12__value_typeINS_12basic_stringIcNS_11char_traitsIcEENS0_IcEEEEN5Catch7TagInfoEEEPvEEE10deallocateEPSC_m
FN:1663,_ZNSt3__19allocatorIN5Catch3PtrINS1_16TestCaseTracking8ITrackerEEEE10deallocateEPS5_m
FN:1663,_ZNSt3__19allocatorIPN5Catch14IGeneratorInfoEE10deallocateEPS3_m
FN:1663,_ZNSt3__19allocatorIN5Catch3PtrINS1_8Matchers4Impl7MatcherINS_12basic_stringIcNS_11char_traitsIcEENS0_IcEEEEEEEEE10deallocateEPSC_m
FN:1665,_ZNKSt3__19allocatorIcE8max_sizeEv
FN:1665,_ZNKSt3__19allocatorIN5Catch3PtrINS1_22CumulativeReporterBase4NodeINS1_14TestGroupStatsENS4_INS1_13TestCaseStatsENS3_11SectionNodeEEEEEEEE8max_sizeEv
FN:1665,_ZNKSt3__19allocatorIN5Catch14AssertionStatsEE8max_sizeEv
FN:1665,_ZNKSt3__19allocatorIPN5Catch14IGeneratorInfoEE8max_sizeEv
FN:1665,_ZNKSt3__19allocatorIN5Catch8TestSpec6FilterEE8max_sizeEv
FN:1665,_ZNKSt3__19allocatorIN5Catch15ConsoleReporter13SummaryColumnEE8max_sizeEv
FN:1665,_ZNKSt3__19allocatorIN5Catch8TestCaseEE8max_sizeEv
FN:1665,_ZNKSt3__19allocatorIN5Catch11MessageInfoEE8max_sizeEv
FN:1665,_ZNKSt3__19allocatorIPN5Catch16TestCaseTracking8ITrackerEE8max_sizeEv
FN:1665,_ZNKSt3__19allocatorIN5Catch3PtrINS1_8TestSpec7PatternEEEE8max_sizeEv
FN:1665,_ZNKSt3__19allocatorIPKN5Catch20IExceptionTranslatorEE8max_sizeEv
FN:1665,_ZNKSt3__19allocatorIN5Catch14SectionEndInfoEE8max_sizeEv
FN:1665,_ZNKSt3__19allocatorINS_12basic_stringIcNS_11char_traitsIcEENS0_IcEEEEE8max_sizeEv
FN:1665,_ZNKSt3__19allocatorIN5Catch3PtrINS1_16IReporterFactoryEEEE8max_sizeEv
FN:1665,_ZNKSt3__19allocatorIN5Catch5Clara6Parser5TokenEE8max_sizeEv
FN:1665,_ZNKSt3__19allocatorIN5Catch3PtrINS1_22CumulativeReporterBase11SectionNodeEEEE8max_sizeEv
FN:1665,_ZNKSt3__19allocatorIN5Catch3PtrINS1_8Matchers4Impl7MatcherINS_12basic_stringIcNS_11char_traitsIcEENS0_IcEEEEEEEEE8max_sizeEv
FN:1665,_ZNKSt3__19allocatorIN5Catch11SectionInfoEE8max_sizeEv
FN:1665,_ZNKSt3__19allocatorIN5Catch3PtrINS1_22CumulativeReporterBase4NodeINS1_13TestCaseStatsENS3_11SectionNodeEEEEEE8max_sizeEv
FN:1665,_ZNKSt3__19allocatorIN5Catch5Clara11CommandLineINS1_10ConfigDataEE3ArgEE8max_sizeEv
FN:1665,_ZNKSt3__19allocatorIN5Catch3PtrINS1_18IStreamingReporterEEEE8max_sizeEv
FN:1665,_ZNKSt3__19allocatorIN5Catch3PtrINS1_22CumulativeReporterBase4NodeINS1_12TestRunStatsENS4_INS1_14TestGroupStatsENS4_INS1_13TestCaseStatsENS3_11SectionNodeEEEEEEEEEE8max_sizeEv
FN:1665,_ZNKSt3__19allocatorIN5Catch3PtrINS1_16TestCaseTracking8ITrackerEEEE8max_sizeEv
FN:1671,_ZNSt3__19allocatorINS_12basic_stringIcNS_11char_traitsIcEENS0_IcEEEEE9constructIS5_JRS5_EEEvPT_DpOT0_
FN:1671,_ZNSt3__19allocatorIN5Catch5Clara6Parser5TokenEE9constructIS4_JS4_EEEvPT_DpOT0_
FN:1671,_ZNSt3__19allocatorIN5Catch5Clara6Parser5TokenEE9constructIS4_JRS4_EEEvPT_DpOT0_
FN:1671,_ZNSt3__19allocatorIN5Catch8TestCaseEE9constructIS2_JRKS2_EEEvPT_DpOT0_
FN:1671,_ZNSt3__19allocatorINS_12basic_stringIcNS_11char_traitsIcEENS0_IcEEEEE9constructIS5_JEEEvPT_DpOT0_
FN:1671,_ZNSt3__19allocatorINS_11__tree_nodeINS_12__value_typeINS_12basic_stringIcNS_11char_traitsIcEENS0_IcEEEEPN5Catch18IGeneratorsForTestEEEPvEEE9constructISB_JNS_4pairIS7_SA_EEEEEvPT_DpOT0_
FN:1671,_ZNSt3__19allocatorIN5Catch3PtrINS1_22CumulativeReporterBase4NodeINS1_13TestCaseStatsENS3_11SectionNodeEEEEEE9constructIS8_JRKS8_EEEvPT_DpOT0_
FN:1671,_ZNSt3__19allocatorIPN5Catch14IGeneratorInfoEE9constructIS3_JRKS3_EEEvPT_DpOT0_
FN:1671,_ZNSt3__19allocatorIN5Catch3PtrINS1_22CumulativeReporterBase11SectionNodeEEEE9constructIS5_JRKS5_EEEvPT_DpOT0_
FN:1671,_ZNSt3__19allocatorIN5Catch15ConsoleReporter13SummaryColumnEE9constructIS3_JS3_EEEvPT_DpOT0_
FN:1671,_ZNSt3__19allocatorIN5Catch11MessageInfoEE9constructIS2_JRKS2_EEEvPT_DpOT0_
FN:1671,_ZNSt3__19allocatorIPKN5Catch20IExceptionTranslatorEE9constructIS4_JRKS4_EEEvPT_DpOT0_
FN:1671,_ZNSt3__19allocatorIN5Catch11MessageInfoEE9constructIS2_JRS2_EEEvPT_DpOT0_
FN:1671,_ZNSt3__19allocatorINS_12basic_stringIcNS_11char_traitsIcEENS0_IcEEEEE9constructIS5_JS5_EEEvPT_DpOT0_
FN:1671,_ZNSt3__19allocatorIN5Catch3PtrINS1_8TestSpec7PatternEEEE9constructIS5_JRS5_EEEvPT_DpOT0_
FN:1671,_ZNSt3__19allocatorINS_11__tree_nodeINS_12__value_typeINS_12basic_stringIcNS_11char_traitsIcEENS0_IcEEEEPN5Catch14IGeneratorInfoEEEPvEEE9constructISB_JNS_4pairIS7_SA_EEEEEvPT_DpOT0_
FN:1671,_ZNSt3__19allocatorINS_11__tree_nodeINS_12__value_typeINS_12basic_stringIcNS_11char_traitsIcEENS0_IcEEEEN5Catch7TagInfoEEEPvEEE9constructISA_JNS_4pairIS7_S9_EEEEEvPT_DpOT0_
FN:1671,_ZNSt3__19allocatorIN5Catch11SectionInfoEE9constructIS2_JRKS2_EEEvPT_DpOT0_
FN:1671,_ZNSt3__19allocatorIN5Catch14SectionEndInfoEE9constructIS2_JRKS2_EEEvPT_DpOT0_
FN:1671,_ZNSt3__19allocatorIN5Catch14AssertionStatsEE9constructIS2_JRKS2_EEEvPT_DpOT0_
FN:1671,_ZNSt3__19allocatorIPN5Catch16TestCaseTracking8ITrackerEE9constructIS4_JS4_EEEvPT_DpOT0_
FN:1671,_ZNSt3__19allocatorIN5Catch8TestSpec6FilterEE9constructIS3_JS3_EEEvPT_DpOT0_
FN:1671,_ZNSt3__19allocatorIN5Catch3PtrINS1_8Matchers4Impl7MatcherINS_12basic_stringIcNS_11char_traitsIcEENS0_IcEEEEEEEEE9constructISC_JRSC_EEEvPT_DpOT0_
FN:1671,_ZNSt3__19allocatorIN5Catch3PtrINS1_22CumulativeReporterBase4NodeINS1_12TestRunStatsENS4_INS1_14TestGroupStatsENS4_INS1_13TestCaseStatsENS3_11SectionNodeEEEEEEEEEE9constructISC_JRKSC_EEEvPT_DpOT0_
FN:1671,_ZNSt3__19allocatorIN5Catch3PtrINS1_18IStreamingReporterEEEE9constructIS4_JRKS4_EEEvPT_DpOT0_
FN:1671,_ZNSt3__19allocatorIN5Catch5Clara11CommandLineINS1_10ConfigDataEE3ArgEE9constructIS6_JS6_EEEvPT_DpOT0_
FN:1671,_ZNSt3__19allocatorIN5Catch3PtrINS1_8TestSpec7PatternEEEE9constructIS5_JRKS5_EEEvPT_DpOT0_
FN:1671,_ZNSt3__19allocatorIN5Catch8TestSpec6FilterEE9constructIS3_JRKS3_EEEvPT_DpOT0_
FN:1671,_ZNSt3__19allocatorIN5Catch3PtrINS1_22CumulativeReporterBase4NodeINS1_14TestGroupStatsENS4_INS1_13TestCaseStatsENS3_11SectionNodeEEEEEEEE9constructISA_JRKSA_EEEvPT_DpOT0_
FN:1671,_ZNSt3__19allocatorIN5Catch11SectionInfoEE9constructIS2_JS2_EEEvPT_DpOT0_
FN:1671,_ZNSt3__19allocatorINS_11__tree_nodeINS_12basic_stringIcNS_11char_traitsIcEENS0_IcEEEEPvEEE9constructIS6_JRKS6_EEEvPT_DpOT0_
FN:1671,_ZNSt3__19allocatorIN5Catch5Clara11CommandLineINS1_10ConfigDataEE3ArgEE9constructIS6_JRKS6_EEEvPT_DpOT0_
FN:1671,_ZNSt3__19allocatorINS_11__tree_nodeIN5Catch8TestCaseEPvEEE9constructIS3_JRKS3_EEEvPT_DpOT0_
FN:1671,_ZNSt3__19allocatorIN5Catch11MessageInfoEE9constructIS2_JS2_EEEvPT_DpOT0_
FN:1671,_ZNSt3__19allocatorIN5Catch8TestCaseEE9constructIS2_JRS2_EEEvPT_DpOT0_
FN:1671,_ZNSt3__19allocatorIN5Catch3PtrINS1_16IReporterFactoryEEEE9constructIS4_JRKS4_EEEvPT_DpOT0_
FN:1671,_ZNSt3__19allocatorINS_11__tree_nodeINS_12__value_typeINS_12basic_stringIcNS_11char_traitsIcEENS0_IcEEEEN5Catch3PtrINS8_16IReporterFactoryEEEEEPvEEE9constructISC_JNS_4pairIS7_SB_EEEEEvPT_DpOT0_
FN:1671,_ZNSt3__19allocatorINS_11__tree_nodeINS_12basic_stringIcNS_11char_traitsIcEENS0_IcEEEEPvEEE9constructIS6_JS6_EEEvPT_DpOT0_
FN:1671,_ZNSt3__19allocatorINS_12basic_stringIcNS_11char_traitsIcEENS0_IcEEEEE9constructIS5_JRKS5_EEEvPT_DpOT0_
FN:1671,_ZNSt3__19allocatorIN5Catch8TestSpec6FilterEE9constructIS3_JRS3_EEEvPT_DpOT0_
FN:1671,_ZNSt3__19allocatorIN5Catch14AssertionStatsEE9constructIS2_JS2_EEEvPT_DpOT0_
FN:1671,_ZNSt3__19allocatorIN5Catch3PtrINS1_16TestCaseTracking8ITrackerEEEE9constructIS5_JRKS5_EEEvPT_DpOT0_
FN:1671,_ZNSt3__19allocatorIN5Catch14SectionEndInfoEE9constructIS2_JS2_EEEvPT_DpOT0_
FN:1671,_ZNSt3__19allocatorINS_11__tree_nodeINS_12__value_typeINS_12basic_stringIcNS_11char_traitsIcEENS0_IcEEEEN5Catch8TagAliasEEEPvEEE9constructISA_JNS_4pairIPKcS9_EEEEEvPT_DpOT0_
FN:1671,_ZNSt3__19allocatorIN5Catch5Clara6Parser5TokenEE9constructIS4_JRKS4_EEEvPT_DpOT0_
FN:1671,_ZNSt3__19allocatorIN5Catch3PtrINS1_16IReporterFactoryEEEE9constructIS4_JRS4_EEEvPT_DpOT0_
FN:1728,_ZNSt3__19allocatorIN5Catch8TestSpec6FilterEE7destroyEPS3_
FN:1728,_ZNSt3__19allocatorIN5Catch3PtrINS1_22CumulativeReporterBase11SectionNodeEEEE7destroyEPS5_
FN:1728,_ZNSt3__19allocatorIN5Catch5Clara6Parser5TokenEE7destroyEPS4_
FN:1728,_ZNSt3__19allocatorIN5Catch3PtrINS1_22CumulativeReporterBase4NodeINS1_12TestRunStatsENS4_INS1_14TestGroupStatsENS4_INS1_13TestCaseStatsENS3_11SectionNodeEEEEEEEEEE7destroyEPSC_
FN:1728,_ZNSt3__19allocatorIN5Catch3PtrINS1_8Matchers4Impl7MatcherINS_12basic_stringIcNS_11char_traitsIcEENS0_IcEEEEEEEEE7destroyEPSC_
FN:1728,_ZNSt3__19allocatorIN5Catch3PtrINS1_8TestSpec7PatternEEEE7destroyEPS5_
FN:1728,_ZNSt3__19allocatorIN5Catch11MessageInfoEE7destroyEPS2_
FN:1728,_ZNSt3__19allocatorIN5Catch3PtrINS1_16TestCaseTracking8ITrackerEEEE7destroyEPS5_
FN:1728,_ZNSt3__19allocatorIN5Catch14SectionEndInfoEE7destroyEPS2_
FN:1728,_ZNSt3__19allocatorIN5Catch3PtrINS1_18IStreamingReporterEEEE7destroyEPS4_
FN:1728,_ZNSt3__19allocatorIN5Catch11SectionInfoEE7destroyEPS2_
FN:1728,_ZNSt3__19allocatorIN5Catch14AssertionStatsEE7destroyEPS2_
FN:1728,_ZNSt3__19allocatorIN5Catch8TestCaseEE7destroyEPS2_
FN:1728,_ZNSt3__19allocatorIN5Catch3PtrINS1_22CumulativeReporterBase4NodeINS1_13TestCaseStatsENS3_11SectionNodeEEEEEE7destroyEPS8_
FN:1728,_ZNSt3__19allocatorIN5Catch15ConsoleReporter13SummaryColumnEE7destroyEPS3_
FN:1728,_ZNSt3__19allocatorIN5Catch3PtrINS1_22CumulativeReporterBase4NodeINS1_14TestGroupStatsENS4_INS1_13TestCaseStatsENS3_11SectionNodeEEEEEEEE7destroyEPSA_
FN:1728,_ZNSt3__19allocatorIN5Catch3PtrINS1_16IReporterFactoryEEEE7destroyEPS4_
FN:1728,_ZNSt3__19allocatorIPKN5Catch20IExceptionTranslatorEE7destroyEPS4_
FN:1728,_ZNSt3__19allocatorIPN5Catch16TestCaseTracking8ITrackerEE7destroyEPS4_
FN:1728,_ZNSt3__19allocatorINS_6vectorIN5Catch3PtrINS2_22CumulativeReporterBase11SectionNodeEEENS0_IS6_EEEEE7destroyEPS8_
FN:1728,_ZNSt3__19allocatorINS_12basic_stringIcNS_11char_traitsIcEENS0_IcEEEEE7destroyEPS5_
FN:1728,_ZNSt3__19allocatorIN5Catch5Clara11CommandLineINS1_10ConfigDataEE3ArgEE7destroyEPS6_
FN:1728,_ZNSt3__19allocatorIPN5Catch14IGeneratorInfoEE7destroyEPS3_
FN:1890,_ZNSt3__18auto_ptrIKN5Catch7IStreamEEC2EPS3_
FN:1890,_ZNSt3__18auto_ptrIN5Catch13StreamBufBaseEEC1EPS2_
FN:1890,_ZNSt3__18auto_ptrIKN5Catch7IStreamEEC1EPS3_
FN:1890,_ZNSt3__18auto_ptrIN5Catch13StreamBufBaseEEC2EPS2_
FN:1900,_ZNSt3__18auto_ptrIKN5Catch7IStreamEED1Ev
FN:1900,_ZNSt3__18auto_ptrIN5Catch13StreamBufBaseEED2Ev
FN:1900,_ZNSt3__18auto_ptrIN5Catch13StreamBufBaseEED1Ev
FN:1900,_ZNSt3__18auto_ptrIKN5Catch7IStreamEED2Ev
FN:1904,_ZNKSt3__18auto_ptrIKN5Catch7IStreamEEptEv
FN:1905,_ZNKSt3__18auto_ptrIN5Catch13StreamBufBaseEE3getEv
FN:1986,_ZNSt3__128__libcpp_compressed_pair_impIPPN5Catch14IGeneratorInfoERNS_9allocatorIS3_EELj0EEC2ES4_S7_
FN:1986,_ZNSt3__128__libcpp_compressed_pair_impIPN5Catch11MessageInfoERNS_9allocatorIS2_EELj0EEC2ES3_S6_
FN:1986,_ZNSt3__128__libcpp_compressed_pair_impIPNS_11__tree_nodeINS_12__value_typeINS_12basic_stringIcNS_11char_traitsIcEENS_9allocatorIcEEEEN5Catch8TagAliasEEEPvEENS_22__tree_node_destructorINS6_ISD_EEEELj0EEC2ESE_SH_
FN:1986,_ZNSt3__128__libcpp_compressed_pair_impIPN5Catch3PtrINS1_22CumulativeReporterBase4NodeINS1_14TestGroupStatsENS4_INS1_13TestCaseStatsENS3_11SectionNodeEEEEEEERNS_9allocatorISA_EELj0EEC2ESB_SE_
FN:1986,_ZNSt3__128__libcpp_compressed_pair_impIPN5Catch3PtrINS1_16TestCaseTracking8ITrackerEEERNS_9allocatorIS5_EELj0EEC2ES6_S9_
FN:1986,_ZNSt3__128__libcpp_compressed_pair_impIPNS_11__tree_nodeINS_12__value_typeINS_12basic_stringIcNS_11char_traitsIcEENS_9allocatorIcEEEEN5Catch3PtrINS9_16IReporterFactoryEEEEEPvEENS_22__tree_node_destructorINS6_ISF_EEEELj0EEC2ESG_SJ_
FN:1986,_ZNSt3__128__libcpp_compressed_pair_impIP7__sFILEPFiS2_ELj0EEC2ES2_S4_
FN:1986,_ZNSt3__128__libcpp_compressed_pair_impIPNS_11__tree_nodeINS_12__value_typeINS_12basic_stringIcNS_11char_traitsIcEENS_9allocatorIcEEEEN5Catch7TagInfoEEEPvEENS_22__tree_node_destructorINS6_ISD_EEEELj0EEC2ESE_SH_
FN:1986,_ZNSt3__128__libcpp_compressed_pair_impIPN5Catch15ConsoleReporter13SummaryColumnERNS_9allocatorIS3_EELj0EEC2ES4_S7_
FN:1986,_ZNSt3__128__libcpp_compressed_pair_impIPN5Catch8TestCaseERNS_9allocatorIS2_EELj0EEC2ES3_S6_
FN:1986,_ZNSt3__128__libcpp_compressed_pair_impIPN5Catch14SectionEndInfoERNS_9allocatorIS2_EELj0EEC2ES3_S6_
FN:1986,_ZNSt3__128__libcpp_compressed_pair_impIPNS_11__tree_nodeINS_12basic_stringIcNS_11char_traitsIcEENS_9allocatorIcEEEEPvEENS_22__tree_node_destructorINS5_IS9_EEEELj0EEC2ESA_SD_
FN:1986,_ZNSt3__128__libcpp_compressed_pair_impIPN5Catch5Clara6Parser5TokenERNS_9allocatorIS4_EELj0EEC2ES5_S8_
FN:1986,_ZNSt3__128__libcpp_compressed_pair_impIPN5Catch3PtrINS1_22CumulativeReporterBase4NodeINS1_13TestCaseStatsENS3_11SectionNodeEEEEERNS_9allocatorIS8_EELj0EEC2ES9_SC_
FN:1986,_ZNSt3__128__libcpp_compressed_pair_impIPN5Catch8TestSpec6FilterERNS_9allocatorIS3_EELj0EEC2ES4_S7_
FN:1986,_ZNSt3__128__libcpp_compressed_pair_impIPN5Catch14AssertionStatsERNS_9allocatorIS2_EELj0EEC2ES3_S6_
FN:1986,_ZNSt3__128__libcpp_compressed_pair_impIPN5Catch3PtrINS1_8TestSpec7PatternEEERNS_9allocatorIS5_EELj0EEC2ES6_S9_
FN:1986,_ZNSt3__128__libcpp_compressed_pair_impIPPN5Catch16TestCaseTracking8ITrackerERNS_9allocatorIS4_EELj0EEC2ES5_S8_
FN:1986,_ZNSt3__128__libcpp_compressed_pair_impIPNS_11__tree_nodeIN5Catch8TestCaseEPvEENS_22__tree_node_destructorINS_9allocatorIS5_EEEELj0EEC2ES6_SA_
FN:1986,_ZNSt3__128__libcpp_compressed_pair_impIPN5Catch11SectionInfoERNS_9allocatorIS2_EELj0EEC2ES3_S6_
FN:1986,_ZNSt3__128__libcpp_compressed_pair_impIPN5Catch3PtrINS1_16IReporterFactoryEEERNS_9allocatorIS4_EELj0EEC2ES5_S8_
FN:1986,_ZNSt3__128__libcpp_compressed_pair_impIPN5Catch3PtrINS1_22CumulativeReporterBase4NodeINS1_12TestRunStatsENS4_INS1_14TestGroupStatsENS4_INS1_13TestCaseStatsENS3_11SectionNodeEEEEEEEEERNS_9allocatorISC_EELj0EEC2ESD_SG_
FN:1986,_ZNSt3__128__libcpp_compressed_pair_impIPN5Catch3PtrINS1_18IStreamingReporterEEERNS_9allocatorIS4_EELj0EEC2ES5_S8_
FN:1986,_ZNSt3__128__libcpp_compressed_pair_impIPN5Catch3PtrINS1_22CumulativeReporterBase11SectionNodeEEERNS_9allocatorIS5_EELj0EEC2ES6_S9_
FN:1986,_ZNSt3__128__libcpp_compressed_pair_impIPNS_11__tree_nodeINS_12__value_typeINS_12basic_stringIcNS_11char_traitsIcEENS_9allocatorIcEEEEPN5Catch18IGeneratorsForTestEEEPvEENS_22__tree_node_destructorINS6_ISE_EEEELj0EEC2ESF_SI_
FN:1986,_ZNSt3__128__libcpp_compressed_pair_impIPPKN5Catch20IExceptionTranslatorERNS_9allocatorIS4_EELj0EEC2ES5_S8_
FN:1986,_ZNSt3__128__libcpp_compressed_pair_impIPN5Catch5Clara11CommandLineINS1_10ConfigDataEE3ArgERNS_9allocatorIS6_EELj0EEC2ES7_SA_
FN:1986,_ZNSt3__128__libcpp_compressed_pair_impIPNS_11__tree_nodeINS_12__value_typeINS_12basic_stringIcNS_11char_traitsIcEENS_9allocatorIcEEEEPN5Catch14IGeneratorInfoEEEPvEENS_22__tree_node_destructorINS6_ISE_EEEELj0EEC2ESF_SI_
FN:1986,_ZNSt3__128__libcpp_compressed_pair_impIPNS_12basic_stringIcNS_11char_traitsIcEENS_9allocatorIcEEEERNS4_IS6_EELj0EEC2ES7_S9_
FN:2042,_ZNSt3__128__libcpp_compressed_pair_impIPN5Catch3PtrINS1_8TestSpec7PatternEEERNS_9allocatorIS5_EELj0EE5firstEv
FN:2042,_ZNSt3__128__libcpp_compressed_pair_impIPN5Catch3PtrINS1_16TestCaseTracking8ITrackerEEERNS_9allocatorIS5_EELj0EE5firstEv
FN:2042,_ZNSt3__128__libcpp_compressed_pair_impIPNS_11__tree_nodeINS_12__value_typeINS_12basic_stringIcNS_11char_traitsIcEENS_9allocatorIcEEEEPN5Catch14IGeneratorInfoEEEPvEENS_22__tree_node_destructorINS6_ISE_EEEELj0EE5firstEv
FN:2042,_ZNSt3__128__libcpp_compressed_pair_impIPNS_11__tree_nodeINS_12__value_typeINS_12basic_stringIcNS_11char_traitsIcEENS_9allocatorIcEEEEN5Catch7TagInfoEEEPvEENS_22__tree_node_destructorINS6_ISD_EEEELj0EE5firstEv
FN:2042,_ZNSt3__128__libcpp_compressed_pair_impIPN5Catch15ConsoleReporter13SummaryColumnERNS_9allocatorIS3_EELj0EE5firstEv
FN:2042,_ZNSt3__128__libcpp_compressed_pair_impIPNS_11__tree_nodeINS_12__value_typeINS_12basic_stringIcNS_11char_traitsIcEENS_9allocatorIcEEEEN5Catch8TagAliasEEEPvEENS_22__tree_node_destructorINS6_ISD_EEEELj0EE5firstEv
FN:2042,_ZNSt3__128__libcpp_compressed_pair_impIPN5Catch11MessageInfoERNS_9allocatorIS2_EELj0EE5firstEv
FN:2042,_ZNSt3__128__libcpp_compressed_pair_impIPPN5Catch16TestCaseTracking8ITrackerERNS_9allocatorIS4_EELj0EE5firstEv
FN:2042,_ZNSt3__128__libcpp_compressed_pair_impIPN5Catch5Clara11CommandLineINS1_10ConfigDataEE3ArgERNS_9allocatorIS6_EELj0EE5firstEv
FN:2042,_ZNSt3__128__libcpp_compressed_pair_impIPN5Catch11SectionInfoERNS_9allocatorIS2_EELj0EE5firstEv
FN:2042,_ZNSt3__128__libcpp_compressed_pair_impIPN5Catch8TestCaseERNS_9allocatorIS2_EELj0EE5firstEv
FN:2042,_ZNSt3__128__libcpp_compressed_pair_impIPN5Catch3PtrINS1_22CumulativeReporterBase11SectionNodeEEERNS_9allocatorIS5_EELj0EE5firstEv
FN:2042,_ZNSt3__128__libcpp_compressed_pair_impIPPKN5Catch20IExceptionTranslatorERNS_9allocatorIS4_EELj0EE5firstEv
FN:2042,_ZNSt3__128__libcpp_compressed_pair_impIPPN5Catch14IGeneratorInfoERNS_9allocatorIS3_EELj0EE5firstEv
FN:2042,_ZNSt3__128__libcpp_compressed_pair_impIPN5Catch14SectionEndInfoERNS_9allocatorIS2_EELj0EE5firstEv
FN:2042,_ZNSt3__128__libcpp_compressed_pair_impIPN5Catch3PtrINS1_18IStreamingReporterEEERNS_9allocatorIS4_EELj0EE5firstEv
FN:2042,_ZNSt3__128__libcpp_compressed_pair_impIPNS_11__tree_nodeINS_12__value_typeINS_12basic_stringIcNS_11char_traitsIcEENS_9allocatorIcEEEEN5Catch3PtrINS9_16IReporterFactoryEEEEEPvEENS_22__tree_node_destructorINS6_ISF_EEEELj0EE5firstEv
FN:2042,_ZNSt3__128__libcpp_compressed_pair_impIP7__sFILEPFiS2_ELj0EE5firstEv
FN:2042,_ZNSt3__128__libcpp_compressed_pair_impIPN5Catch14AssertionStatsERNS_9allocatorIS2_EELj0EE5firstEv
FN:2042,_ZNSt3__128__libcpp_compressed_pair_impIPN5Catch3PtrINS1_22CumulativeReporterBase4NodeINS1_14TestGroupStatsENS4_INS1_13TestCaseStatsENS3_11SectionNodeEEEEEEERNS_9allocatorISA_EELj0EE5firstEv
FN:2042,_ZNSt3__128__libcpp_compressed_pair_impIPN5Catch3PtrINS1_22CumulativeReporterBase4NodeINS1_12TestRunStatsENS4_INS1_14TestGroupStatsENS4_INS1_13TestCaseStatsENS3_11SectionNodeEEEEEEEEERNS_9allocatorISC_EELj0EE5firstEv
FN:2042,_ZNSt3__128__libcpp_compressed_pair_impIPNS_11__tree_nodeIN5Catch8TestCaseEPvEENS_22__tree_node_destructorINS_9allocatorIS5_EEEELj0EE5firstEv
FN:2042,_ZNSt3__128__libcpp_compressed_pair_impIPN5Catch3PtrINS1_22CumulativeReporterBase4NodeINS1_13TestCaseStatsENS3_11SectionNodeEEEEERNS_9allocatorIS8_EELj0EE5firstEv
FN:2042,_ZNSt3__128__libcpp_compressed_pair_impIPN5Catch5Clara6Parser5TokenERNS_9allocatorIS4_EELj0EE5firstEv
FN:2042,_ZNSt3__128__libcpp_compressed_pair_impIPNS_11__tree_nodeINS_12__value_typeINS_12basic_stringIcNS_11char_traitsIcEENS_9allocatorIcEEEEPN5Catch18IGeneratorsForTestEEEPvEENS_22__tree_node_destructorINS6_ISE_EEEELj0EE5firstEv
FN:2042,_ZNSt3__128__libcpp_compressed_pair_impIPN5Catch3PtrINS1_16IReporterFactoryEEERNS_9allocatorIS4_EELj0EE5firstEv
FN:2042,_ZNSt3__128__libcpp_compressed_pair_impIPNS_11__tree_nodeINS_12basic_stringIcNS_11char_traitsIcEENS_9allocatorIcEEEEPvEENS_22__tree_node_destructorINS5_IS9_EEEELj0EE5firstEv
FN:2042,_ZNSt3__128__libcpp_compressed_pair_impIPNS_12basic_stringIcNS_11char_traitsIcEENS_9allocatorIcEEEERNS4_IS6_EELj0EE5firstEv
FN:2042,_ZNSt3__128__libcpp_compressed_pair_impIPN5Catch8TestSpec6FilterERNS_9allocatorIS3_EELj0EE5firstEv
FN:2043,_ZNKSt3__128__libcpp_compressed_pair_impIPN5Catch3PtrINS1_18IStreamingReporterEEERNS_9allocatorIS4_EELj0EE5firstEv
FN:2043,_ZNKSt3__128__libcpp_compressed_pair_impIPN5Catch3PtrINS1_22CumulativeReporterBase4NodeINS1_14TestGroupStatsENS4_INS1_13TestCaseStatsENS3_11SectionNodeEEEEEEERNS_9allocatorISA_EELj0EE5firstEv
FN:2043,_ZNKSt3__128__libcpp_compressed_pair_impIPPKN5Catch20IExceptionTranslatorERNS_9allocatorIS4_EELj0EE5firstEv
FN:2043,_ZNKSt3__128__libcpp_compressed_pair_impIPNS_11__tree_nodeINS_12__value_typeINS_12basic_stringIcNS_11char_traitsIcEENS_9allocatorIcEEEEN5Catch3PtrINS9_16IReporterFactoryEEEEEPvEENS_22__tree_node_destructorINS6_ISF_EEEELj0EE5firstEv
FN:2043,_ZNKSt3__128__libcpp_compressed_pair_impIPN5Catch8TestCaseERNS_9allocatorIS2_EELj0EE5firstEv
FN:2043,_ZNKSt3__128__libcpp_compressed_pair_impIPPN5Catch16TestCaseTracking8ITrackerERNS_9allocatorIS4_EELj0EE5firstEv
FN:2043,_ZNKSt3__128__libcpp_compressed_pair_impIPN5Catch3PtrINS1_16TestCaseTracking8ITrackerEEERNS_9allocatorIS5_EELj0EE5firstEv
FN:2043,_ZNKSt3__128__libcpp_compressed_pair_impIPN5Catch11SectionInfoERNS_9allocatorIS2_EELj0EE5firstEv
FN:2043,_ZNKSt3__128__libcpp_compressed_pair_impIPNS_11__tree_nodeINS_12__value_typeINS_12basic_stringIcNS_11char_traitsIcEENS_9allocatorIcEEEEN5Catch7TagInfoEEEPvEENS_22__tree_node_destructorINS6_ISD_EEEELj0EE5firstEv
FN:2043,_ZNKSt3__128__libcpp_compressed_pair_impIPNS_12basic_stringIcNS_11char_traitsIcEENS_9allocatorIcEEEERNS4_IS6_EELj0EE5firstEv
FN:2043,_ZNKSt3__128__libcpp_compressed_pair_impIPNS_11__tree_nodeIN5Catch8TestCaseEPvEENS_22__tree_node_destructorINS_9allocatorIS5_EEEELj0EE5firstEv
FN:2043,_ZNKSt3__128__libcpp_compressed_pair_impIPN5Catch3PtrINS1_22CumulativeReporterBase11SectionNodeEEERNS_9allocatorIS5_EELj0EE5firstEv
FN:2043,_ZNKSt3__128__libcpp_compressed_pair_impIPN5Catch14AssertionStatsERNS_9allocatorIS2_EELj0EE5firstEv
FN:2043,_ZNKSt3__128__libcpp_compressed_pair_impIPN5Catch14SectionEndInfoERNS_9allocatorIS2_EELj0EE5firstEv
FN:2043,_ZNKSt3__128__libcpp_compressed_pair_impIPN5Catch11MessageInfoERNS_9allocatorIS2_EELj0EE5firstEv
FN:2043,_ZNKSt3__128__libcpp_compressed_pair_impIPN5Catch15ConsoleReporter13SummaryColumnERNS_9allocatorIS3_EELj0EE5firstEv
FN:2043,_ZNKSt3__128__libcpp_compressed_pair_impIPNS_11__tree_nodeINS_12__value_typeINS_12basic_stringIcNS_11char_traitsIcEENS_9allocatorIcEEEEPN5Catch14IGeneratorInfoEEEPvEENS_22__tree_node_destructorINS6_ISE_EEEELj0EE5firstEv
FN:2043,_ZNKSt3__128__libcpp_compressed_pair_impIPN5Catch3PtrINS1_16IReporterFactoryEEERNS_9allocatorIS4_EELj0EE5firstEv
FN:2043,_ZNKSt3__128__libcpp_compressed_pair_impIPPN5Catch14IGeneratorInfoERNS_9allocatorIS3_EELj0EE5firstEv
FN:2043,_ZNKSt3__128__libcpp_compressed_pair_impIPNS_11__tree_nodeINS_12__value_typeINS_12basic_stringIcNS_11char_traitsIcEENS_9allocatorIcEEEEPN5Catch18IGeneratorsForTestEEEPvEENS_22__tree_node_destructorINS6_ISE_EEEELj0EE5firstEv
FN:2043,_ZNKSt3__128__libcpp_compressed_pair_impIPN5Catch3PtrINS1_8TestSpec7PatternEEERNS_9allocatorIS5_EELj0EE5firstEv
FN:2043,_ZNKSt3__128__libcpp_compressed_pair_impIPNS_11__tree_nodeINS_12__value_typeINS_12basic_stringIcNS_11char_traitsIcEENS_9allocatorIcEEEEN5Catch8TagAliasEEEPvEENS_22__tree_node_destructorINS6_ISD_EEEELj0EE5firstEv
FN:2043,_ZNKSt3__128__libcpp_compressed_pair_impIPN5Catch3PtrINS1_22CumulativeReporterBase4NodeINS1_13TestCaseStatsENS3_11SectionNodeEEEEERNS_9allocatorIS8_EELj0EE5firstEv
FN:2043,_ZNKSt3__128__libcpp_compressed_pair_impIPN5Catch5Clara11CommandLineINS1_10ConfigDataEE3ArgERNS_9allocatorIS6_EELj0EE5firstEv
FN:2043,_ZNKSt3__128__libcpp_compressed_pair_impIPN5Catch5Clara6Parser5TokenERNS_9allocatorIS4_EELj0EE5firstEv
FN:2043,_ZNKSt3__128__libcpp_compressed_pair_impIPNS_11__tree_nodeINS_12basic_stringIcNS_11char_traitsIcEENS_9allocatorIcEEEEPvEENS_22__tree_node_destructorINS5_IS9_EEEELj0EE5firstEv
FN:2043,_ZNKSt3__128__libcpp_compressed_pair_impIPN5Catch3PtrINS1_22CumulativeReporterBase4NodeINS1_12TestRunStatsENS4_INS1_14TestGroupStatsENS4_INS1_13TestCaseStatsENS3_11SectionNodeEEEEEEEEERNS_9allocatorISC_EELj0EE5firstEv
FN:2043,_ZNKSt3__128__libcpp_compressed_pair_impIPN5Catch8TestSpec6FilterERNS_9allocatorIS3_EELj0EE5firstEv
FN:2045,_ZNSt3__128__libcpp_compressed_pair_impIPN5Catch5Clara11CommandLineINS1_10ConfigDataEE3ArgERNS_9allocatorIS6_EELj0EE6secondEv
FN:2045,_ZNSt3__128__libcpp_compressed_pair_impIPN5Catch3PtrINS1_18IStreamingReporterEEERNS_9allocatorIS4_EELj0EE6secondEv
FN:2045,_ZNSt3__128__libcpp_compressed_pair_impIPN5Catch11SectionInfoERNS_9allocatorIS2_EELj0EE6secondEv
FN:2045,_ZNSt3__128__libcpp_compressed_pair_impIPPN5Catch14IGeneratorInfoERNS_9allocatorIS3_EELj0EE6secondEv
FN:2045,_ZNSt3__128__libcpp_compressed_pair_impIPNS_11__tree_nodeINS_12__value_typeINS_12basic_stringIcNS_11char_traitsIcEENS_9allocatorIcEEEEPN5Catch14IGeneratorInfoEEEPvEENS_22__tree_node_destructorINS6_ISE_EEEELj0EE6secondEv
FN:2045,_ZNSt3__128__libcpp_compressed_pair_impIPPN5Catch16TestCaseTracking8ITrackerERNS_9allocatorIS4_EELj0EE6secondEv
FN:2045,_ZNSt3__128__libcpp_compressed_pair_impIPN5Catch5Clara6Parser5TokenERNS_9allocatorIS4_EELj0EE6secondEv
FN:2045,_ZNSt3__128__libcpp_compressed_pair_impIP7__sFILEPFiS2_ELj0EE6secondEv
FN:2045,_ZNSt3__128__libcpp_compressed_pair_impIPN5Catch8TestCaseERNS_9allocatorIS2_EELj0EE6secondEv
FN:2045,_ZNSt3__128__libcpp_compressed_pair_impIPN5Catch3PtrINS1_16TestCaseTracking8ITrackerEEERNS_9allocatorIS5_EELj0EE6secondEv
FN:2045,_ZNSt3__128__libcpp_compressed_pair_impIPNS_11__tree_nodeINS_12__value_typeINS_12basic_stringIcNS_11char_traitsIcEENS_9allocatorIcEEEEPN5Catch18IGeneratorsForTestEEEPvEENS_22__tree_node_destructorINS6_ISE_EEEELj0EE6secondEv
FN:2045,_ZNSt3__128__libcpp_compressed_pair_impIPN5Catch11MessageInfoERNS_9allocatorIS2_EELj0EE6secondEv
FN:2045,_ZNSt3__128__libcpp_compressed_pair_impIPNS_11__tree_nodeIN5Catch8TestCaseEPvEENS_22__tree_node_destructorINS_9allocatorIS5_EEEELj0EE6secondEv
FN:2045,_ZNSt3__128__libcpp_compressed_pair_impIPN5Catch15ConsoleReporter13SummaryColumnERNS_9allocatorIS3_EELj0EE6secondEv
FN:2045,_ZNSt3__128__libcpp_compressed_pair_impIPN5Catch14SectionEndInfoERNS_9allocatorIS2_EELj0EE6secondEv
FN:2045,_ZNSt3__128__libcpp_compressed_pair_impIPNS_12basic_stringIcNS_11char_traitsIcEENS_9allocatorIcEEEERNS4_IS6_EELj0EE6secondEv
FN:2045,_ZNSt3__128__libcpp_compressed_pair_impIPN5Catch3PtrINS1_22CumulativeReporterBase11SectionNodeEEERNS_9allocatorIS5_EELj0EE6secondEv
FN:2045,_ZNSt3__128__libcpp_compressed_pair_impIPN5Catch8TestSpec6FilterERNS_9allocatorIS3_EELj0EE6secondEv
FN:2045,_ZNSt3__128__libcpp_compressed_pair_impIPN5Catch3PtrINS1_22CumulativeReporterBase4NodeINS1_13TestCaseStatsENS3_11SectionNodeEEEEERNS_9allocatorIS8_EELj0EE6secondEv
FN:2045,_ZNSt3__128__libcpp_compressed_pair_impIPNS_11__tree_nodeINS_12__value_typeINS_12basic_stringIcNS_11char_traitsIcEENS_9allocatorIcEEEEN5Catch3PtrINS9_16IReporterFactoryEEEEEPvEENS_22__tree_node_destructorINS6_ISF_EEEELj0EE6secondEv
FN:2045,_ZNSt3__128__libcpp_compressed_pair_impIPPKN5Catch20IExceptionTranslatorERNS_9allocatorIS4_EELj0EE6secondEv
FN:2045,_ZNSt3__128__libcpp_compressed_pair_impIPN5Catch14AssertionStatsERNS_9allocatorIS2_EELj0EE6secondEv
FN:2045,_ZNSt3__128__libcpp_compressed_pair_impIPN5Catch3PtrINS1_22CumulativeReporterBase4NodeINS1_14TestGroupStatsENS4_INS1_13TestCaseStatsENS3_11SectionNodeEEEEEEERNS_9allocatorISA_EELj0EE6secondEv
FN:2045,_ZNSt3__128__libcpp_compressed_pair_impIPN5Catch3PtrINS1_22CumulativeReporterBase4NodeINS1_12TestRunStatsENS4_INS1_14TestGroupStatsENS4_INS1_13TestCaseStatsENS3_11SectionNodeEEEEEEEEERNS_9allocatorISC_EELj0EE6secondEv
FN:2045,_ZNSt3__128__libcpp_compressed_pair_impIPNS_11__tree_nodeINS_12__value_typeINS_12basic_stringIcNS_11char_traitsIcEENS_9allocatorIcEEEEN5Catch7TagInfoEEEPvEENS_22__tree_node_destructorINS6_ISD_EEEELj0EE6secondEv
FN:2045,_ZNSt3__128__libcpp_compressed_pair_impIPN5Catch3PtrINS1_16IReporterFactoryEEERNS_9allocatorIS4_EELj0EE6secondEv
FN:2045,_ZNSt3__128__libcpp_compressed_pair_impIPNS_11__tree_nodeINS_12basic_stringIcNS_11char_traitsIcEENS_9allocatorIcEEEEPvEENS_22__tree_node_destructorINS5_IS9_EEEELj0EE6secondEv
FN:2045,_ZNSt3__128__libcpp_compressed_pair_impIPNS_11__tree_nodeINS_12__value_typeINS_12basic_stringIcNS_11char_traitsIcEENS_9allocatorIcEEEEN5Catch8TagAliasEEEPvEENS_22__tree_node_destructorINS6_ISD_EEEELj0EE6secondEv
FN:2045,_ZNSt3__128__libcpp_compressed_pair_impIPN5Catch3PtrINS1_8TestSpec7PatternEEERNS_9allocatorIS5_EELj0EE6secondEv
FN:2164,_ZNSt3__128__libcpp_compressed_pair_impINS_15__tree_end_nodeIPNS_16__tree_node_baseIPvEEEENS_9allocatorINS_11__tree_nodeINS_12__value_typeINS_12basic_stringIcNS_11char_traitsIcEENS7_IcEEEEPN5Catch18IGeneratorsForTestEEES3_EEEELj2EEC2Ev
FN:2164,_ZNSt3__128__libcpp_compressed_pair_impINS_15__tree_end_nodeIPNS_16__tree_node_baseIPvEEEENS_9allocatorINS_11__tree_nodeIN5Catch8TestCaseES3_EEEELj2EEC2Ev
FN:2164,_ZNSt3__128__libcpp_compressed_pair_impINS_15__tree_end_nodeIPNS_16__tree_node_baseIPvEEEENS_9allocatorINS_11__tree_nodeINS_12__value_typeIiN5Catch5Clara11CommandLineINSA_10ConfigDataEE3ArgEEES3_EEEELj2EEC2Ev
FN:2164,_ZNSt3__128__libcpp_compressed_pair_impINS_15__tree_end_nodeIPNS_16__tree_node_baseIPvEEEENS_9allocatorINS_11__tree_nodeINS_12__value_typeINS_12basic_stringIcNS_11char_traitsIcEENS7_IcEEEEN5Catch3PtrINSF_16IReporterFactoryEEEEES3_EEEELj2EEC2Ev
FN:2164,_ZNSt3__128__libcpp_compressed_pair_impINS_12basic_stringIcNS_11char_traitsIcEENS_9allocatorIcEEE5__repES5_Lj2EEC2Ev
FN:2164,_ZNSt3__128__libcpp_compressed_pair_impINS_15__tree_end_nodeIPNS_16__tree_node_baseIPvEEEENS_9allocatorINS_11__tree_nodeINS_12__value_typeINS_12basic_stringIcNS_11char_traitsIcEENS7_IcEEEEN5Catch7TagInfoEEES3_EEEELj2EEC2Ev
FN:2164,_ZNSt3__128__libcpp_compressed_pair_impINS_12basic_stringIwNS_11char_traitsIwEENS_9allocatorIwEEE5__repES5_Lj2EEC2Ev
FN:2164,_ZNSt3__128__libcpp_compressed_pair_impINS_15__tree_end_nodeIPNS_16__tree_node_baseIPvEEEENS_9allocatorINS_11__tree_nodeINS_12__value_typeINS_12basic_stringIcNS_11char_traitsIcEENS7_IcEEEEPN5Catch14IGeneratorInfoEEES3_EEEELj2EEC2Ev
FN:2164,_ZNSt3__128__libcpp_compressed_pair_impINS_15__tree_end_nodeIPNS_16__tree_node_baseIPvEEEENS_9allocatorINS_11__tree_nodeINS_12__value_typeINS_12basic_stringIcNS_11char_traitsIcEENS7_IcEEEEN5Catch8TagAliasEEES3_EEEELj2EEC2Ev
FN:2164,_ZNSt3__128__libcpp_compressed_pair_impINS_15__tree_end_nodeIPNS_16__tree_node_baseIPvEEEENS_9allocatorINS_11__tree_nodeINS_12basic_stringIcNS_11char_traitsIcEENS7_IcEEEES3_EEEELj2EEC2Ev
FN:2165,_ZNSt3__128__libcpp_compressed_pair_impIPN5Catch3PtrINS1_8TestSpec7PatternEEENS_9allocatorIS5_EELj2EEC2ES6_
FN:2165,_ZNSt3__128__libcpp_compressed_pair_impIPN5Catch11MessageInfoENS_9allocatorIS2_EELj2EEC2ES3_
FN:2165,_ZNSt3__128__libcpp_compressed_pair_impIPNS_12basic_stringIcNS_11char_traitsIcEENS_9allocatorIcEEEENS4_IS6_EELj2EEC2ES7_
FN:2165,_ZNSt3__128__libcpp_compressed_pair_impIPN5Catch14SectionEndInfoENS_9allocatorIS2_EELj2EEC2ES3_
FN:2165,_ZNSt3__128__libcpp_compressed_pair_impIPN5Catch14AssertionStatsENS_9allocatorIS2_EELj2EEC2ES3_
FN:2165,_ZNSt3__128__libcpp_compressed_pair_impIPN5Catch3PtrINS1_16IReporterFactoryEEENS_9allocatorIS4_EELj2EEC2ES5_
FN:2165,_ZNSt3__128__libcpp_compressed_pair_impIPN5Catch5Clara11CommandLineINS1_10ConfigDataEE3ArgENS_9allocatorIS6_EELj2EEC2ES7_
FN:2165,_ZNSt3__128__libcpp_compressed_pair_impIPN5Catch8TestSpec6FilterENS_9allocatorIS3_EELj2EEC2ES4_
FN:2165,_ZNSt3__128__libcpp_compressed_pair_impIPN5Catch5Clara6Parser5TokenENS_9allocatorIS4_EELj2EEC2ES5_
FN:2165,_ZNSt3__128__libcpp_compressed_pair_impIPN5Catch11SectionInfoENS_9allocatorIS2_EELj2EEC2ES3_
FN:2165,_ZNSt3__128__libcpp_compressed_pair_impIPPN5Catch16TestCaseTracking8ITrackerENS_9allocatorIS4_EELj2EEC2ES5_
FN:2165,_ZNSt3__128__libcpp_compressed_pair_impIPN5Catch3PtrINS1_22CumulativeReporterBase4NodeINS1_14TestGroupStatsENS4_INS1_13TestCaseStatsENS3_11SectionNodeEEEEEEENS_9allocatorISA_EELj2EEC2ESB_
FN:2165,_ZNSt3__128__libcpp_compressed_pair_impIPPKN5Catch20IExceptionTranslatorENS_9allocatorIS4_EELj2EEC2ES5_
FN:2165,_ZNSt3__128__libcpp_compressed_pair_impIPN5Catch3PtrINS1_22CumulativeReporterBase11SectionNodeEEENS_9allocatorIS5_EELj2EEC2ES6_
FN:2165,_ZNSt3__128__libcpp_compressed_pair_impIPN5Catch3PtrINS1_16TestCaseTracking8ITrackerEEENS_9allocatorIS5_EELj2EEC2ES6_
FN:2165,_ZNSt3__128__libcpp_compressed_pair_impIPN5Catch15ConsoleReporter13SummaryColumnENS_9allocatorIS3_EELj2EEC2ES4_
FN:2165,_ZNSt3__128__libcpp_compressed_pair_impIPN5Catch3PtrINS1_18IStreamingReporterEEENS_9allocatorIS4_EELj2EEC2ES5_
FN:2165,_ZNSt3__128__libcpp_compressed_pair_impIPN5Catch5Clara11CommandLineINS1_10ConfigDataEE3ArgENS_14default_deleteIS6_EELj2EEC2ES7_
FN:2165,_ZNSt3__128__libcpp_compressed_pair_impIPPN5Catch14IGeneratorInfoENS_9allocatorIS3_EELj2EEC2ES4_
FN:2165,_ZNSt3__128__libcpp_compressed_pair_impIPNS_6vectorIN5Catch3PtrINS2_22CumulativeReporterBase11SectionNodeEEENS_9allocatorIS6_EEEENS7_IS9_EELj2EEC2ESA_
FN:2165,_ZNSt3__128__libcpp_compressed_pair_impIPN5Catch3PtrINS1_22CumulativeReporterBase4NodeINS1_13TestCaseStatsENS3_11SectionNodeEEEEENS_9allocatorIS8_EELj2EEC2ES9_
FN:2165,_ZNSt3__128__libcpp_compressed_pair_impIPN5Catch3PtrINS1_22CumulativeReporterBase4NodeINS1_12TestRunStatsENS4_INS1_14TestGroupStatsENS4_INS1_13TestCaseStatsENS3_11SectionNodeEEEEEEEEENS_9allocatorISC_EELj2EEC2ESD_
FN:2165,_ZNSt3__128__libcpp_compressed_pair_impIPN5Catch8TestCaseENS_9allocatorIS2_EELj2EEC2ES3_
FN:2165,_ZNSt3__128__libcpp_compressed_pair_impIPN5Catch3PtrINS1_8Matchers4Impl7MatcherINS_12basic_stringIcNS_11char_traitsIcEENS_9allocatorIcEEEEEEEENS9_ISD_EELj2EEC2ESE_
FN:2167,_ZNSt3__128__libcpp_compressed_pair_impINS_15__tree_end_nodeIPNS_16__tree_node_baseIPvEEEENS_9allocatorINS_11__tree_nodeINS_12basic_stringIcNS_11char_traitsIcEENS7_IcEEEES3_EEEELj2EEC2ESF_
FN:2167,_ZNSt3__128__libcpp_compressed_pair_impINS_12basic_stringIcNS_11char_traitsIcEENS_9allocatorIcEEE5__repES5_Lj2EEC2ES5_
FN:2169,_ZNSt3__128__libcpp_compressed_pair_impIPN5Catch11MessageInfoENS_9allocatorIS2_EELj2EEC2ES3_S5_
FN:2169,_ZNSt3__128__libcpp_compressed_pair_impIPN5Catch5Clara6Parser5TokenENS_9allocatorIS4_EELj2EEC2ES5_S7_
FN:2169,_ZNSt3__128__libcpp_compressed_pair_impImNS_19__map_value_compareINS_12basic_stringIcNS_11char_traitsIcEENS_9allocatorIcEEEENS_12__value_typeIS7_N5Catch8TagAliasEEENS_4lessIS7_EELb1EEELj2EEC2EmSE_
FN:2169,_ZNSt3__128__libcpp_compressed_pair_impImNS_19__map_value_compareIiNS_12__value_typeIiN5Catch5Clara11CommandLineINS3_10ConfigDataEE3ArgEEENS_4lessIiEELb1EEELj2EEC2EmSC_
FN:2169,_ZNSt3__128__libcpp_compressed_pair_impIPN5Catch3PtrINS1_16IReporterFactoryEEENS_9allocatorIS4_EELj2EEC2ES5_S7_
FN:2169,_ZNSt3__128__libcpp_compressed_pair_impImNS_19__map_value_compareINS_12basic_stringIcNS_11char_traitsIcEENS_9allocatorIcEEEENS_12__value_typeIS7_PN5Catch18IGeneratorsForTestEEENS_4lessIS7_EELb1EEELj2EEC2EmSF_
FN:2169,_ZNSt3__128__libcpp_compressed_pair_impImNS_4lessIN5Catch8TestCaseEEELj2EEC2EmS4_
FN:2169,_ZNSt3__128__libcpp_compressed_pair_impImNS_19__map_value_compareINS_12basic_stringIcNS_11char_traitsIcEENS_9allocatorIcEEEENS_12__value_typeIS7_N5Catch3PtrINS9_16IReporterFactoryEEEEENS_4lessIS7_EELb1EEELj2EEC2EmSG_
FN:2169,_ZNSt3__128__libcpp_compressed_pair_impImNS_19__map_value_compareINS_12basic_stringIcNS_11char_traitsIcEENS_9allocatorIcEEEENS_12__value_typeIS7_PN5Catch14IGeneratorInfoEEENS_4lessIS7_EELb1EEELj2EEC2EmSF_
FN:2169,_ZNSt3__128__libcpp_compressed_pair_impImNS_19__map_value_compareINS_12basic_stringIcNS_11char_traitsIcEENS_9allocatorIcEEEENS_12__value_typeIS7_N5Catch7TagInfoEEENS_4lessIS7_EELb1EEELj2EEC2EmSE_
FN:2169,_ZNSt3__128__libcpp_compressed_pair_impIPN5Catch3PtrINS1_8Matchers4Impl7MatcherINS_12basic_stringIcNS_11char_traitsIcEENS_9allocatorIcEEEEEEEENS9_ISD_EELj2EEC2ESE_SF_
FN:2169,_ZNSt3__128__libcpp_compressed_pair_impIPN5Catch3PtrINS1_8TestSpec7PatternEEENS_9allocatorIS5_EELj2EEC2ES6_S8_
FN:2169,_ZNSt3__128__libcpp_compressed_pair_impIPN5Catch8TestSpec6FilterENS_9allocatorIS3_EELj2EEC2ES4_S6_
FN:2169,_ZNSt3__128__libcpp_compressed_pair_impIPN5Catch8TestCaseENS_9allocatorIS2_EELj2EEC2ES3_S5_
FN:2169,_ZNSt3__128__libcpp_compressed_pair_impIPNS_12basic_stringIcNS_11char_traitsIcEENS_9allocatorIcEEEENS4_IS6_EELj2EEC2ES7_S8_
FN:2169,_ZNSt3__128__libcpp_compressed_pair_impImNS_4lessINS_12basic_stringIcNS_11char_traitsIcEENS_9allocatorIcEEEEEELj2EEC2EmS8_
FN:2226,_ZNSt3__128__libcpp_compressed_pair_impIPN5Catch3PtrINS1_22CumulativeReporterBase11SectionNodeEEENS_9allocatorIS5_EELj2EE5firstEv
FN:2226,_ZNSt3__128__libcpp_compressed_pair_impIPN5Catch14AssertionStatsENS_9allocatorIS2_EELj2EE5firstEv
FN:2226,_ZNSt3__128__libcpp_compressed_pair_impINS_12basic_stringIcNS_11char_traitsIcEENS_9allocatorIcEEE5__repES5_Lj2EE5firstEv
FN:2226,_ZNSt3__128__libcpp_compressed_pair_impIPPN5Catch16TestCaseTracking8ITrackerENS_9allocatorIS4_EELj2EE5firstEv
FN:2226,_ZNSt3__128__libcpp_compressed_pair_impINS_15__tree_end_nodeIPNS_16__tree_node_baseIPvEEEENS_9allocatorINS_11__tree_nodeINS_12__value_typeINS_12basic_stringIcNS_11char_traitsIcEENS7_IcEEEEN5Catch8TagAliasEEES3_EEEELj2EE5firstEv
FN:2226,_ZNSt3__128__libcpp_compressed_pair_impImNS_4lessINS_12basic_stringIcNS_11char_traitsIcEENS_9allocatorIcEEEEEELj2EE5firstEv
FN:2226,_ZNSt3__128__libcpp_compressed_pair_impIPN5Catch11SectionInfoENS_9allocatorIS2_EELj2EE5firstEv
FN:2226,_ZNSt3__128__libcpp_compressed_pair_impIPN5Catch8TestCaseENS_9allocatorIS2_EELj2EE5firstEv
FN:2226,_ZNSt3__128__libcpp_compressed_pair_impIPN5Catch3PtrINS1_8Matchers4Impl7MatcherINS_12basic_stringIcNS_11char_traitsIcEENS_9allocatorIcEEEEEEEENS9_ISD_EELj2EE5firstEv
FN:2226,_ZNSt3__128__libcpp_compressed_pair_impImNS_19__map_value_compareINS_12basic_stringIcNS_11char_traitsIcEENS_9allocatorIcEEEENS_12__value_typeIS7_PN5Catch14IGeneratorInfoEEENS_4lessIS7_EELb1EEELj2EE5firstEv
FN:2226,_ZNSt3__128__libcpp_compressed_pair_impIPN5Catch3PtrINS1_16TestCaseTracking8ITrackerEEENS_9allocatorIS5_EELj2EE5firstEv
FN:2226,_ZNSt3__128__libcpp_compressed_pair_impImNS_19__map_value_compareINS_12basic_stringIcNS_11char_traitsIcEENS_9allocatorIcEEEENS_12__value_typeIS7_PN5Catch18IGeneratorsForTestEEENS_4lessIS7_EELb1EEELj2EE5firstEv
FN:2226,_ZNSt3__128__libcpp_compressed_pair_impImNS_19__map_value_compareINS_12basic_stringIcNS_11char_traitsIcEENS_9allocatorIcEEEENS_12__value_typeIS7_N5Catch3PtrINS9_16IReporterFactoryEEEEENS_4lessIS7_EELb1EEELj2EE5firstEv
FN:2226,_ZNSt3__128__libcpp_compressed_pair_impImNS_4lessIN5Catch8TestCaseEEELj2EE5firstEv
FN:2226,_ZNSt3__128__libcpp_compressed_pair_impIPN5Catch5Clara6Parser5TokenENS_9allocatorIS4_EELj2EE5firstEv
FN:2226,_ZNSt3__128__libcpp_compressed_pair_impIPN5Catch3PtrINS1_8TestSpec7PatternEEENS_9allocatorIS5_EELj2EE5firstEv
FN:2226,_ZNSt3__128__libcpp_compressed_pair_impINS_15__tree_end_nodeIPNS_16__tree_node_baseIPvEEEENS_9allocatorINS_11__tree_nodeIN5Catch8TestCaseES3_EEEELj2EE5firstEv
FN:2226,_ZNSt3__128__libcpp_compressed_pair_impImNS_19__map_value_compareINS_12basic_stringIcNS_11char_traitsIcEENS_9allocatorIcEEEENS_12__value_typeIS7_N5Catch8TagAliasEEENS_4lessIS7_EELb1EEELj2EE5firstEv
FN:2226,_ZNSt3__128__libcpp_compressed_pair_impIPN5Catch11MessageInfoENS_9allocatorIS2_EELj2EE5firstEv
FN:2226,_ZNSt3__128__libcpp_compressed_pair_impIPN5Catch5Clara11CommandLineINS1_10ConfigDataEE3ArgENS_14default_deleteIS6_EELj2EE5firstEv
FN:2226,_ZNSt3__128__libcpp_compressed_pair_impINS_15__tree_end_nodeIPNS_16__tree_node_baseIPvEEEENS_9allocatorINS_11__tree_nodeINS_12__value_typeINS_12basic_stringIcNS_11char_traitsIcEENS7_IcEEEEPN5Catch18IGeneratorsForTestEEES3_EEEELj2EE5firstEv
FN:2226,_ZNSt3__128__libcpp_compressed_pair_impINS_15__tree_end_nodeIPNS_16__tree_node_baseIPvEEEENS_9allocatorINS_11__tree_nodeINS_12__value_typeINS_12basic_stringIcNS_11char_traitsIcEENS7_IcEEEEN5Catch3PtrINSF_16IReporterFactoryEEEEES3_EEEELj2EE5firstEv
FN:2226,_ZNSt3__128__libcpp_compressed_pair_impIPPN5Catch14IGeneratorInfoENS_9allocatorIS3_EELj2EE5firstEv
FN:2226,_ZNSt3__128__libcpp_compressed_pair_impIPN5Catch3PtrINS1_22CumulativeReporterBase4NodeINS1_12TestRunStatsENS4_INS1_14TestGroupStatsENS4_INS1_13TestCaseStatsENS3_11SectionNodeEEEEEEEEENS_9allocatorISC_EELj2EE5firstEv
FN:2226,_ZNSt3__128__libcpp_compressed_pair_impImNS_19__map_value_compareINS_12basic_stringIcNS_11char_traitsIcEENS_9allocatorIcEEEENS_12__value_typeIS7_N5Catch7TagInfoEEENS_4lessIS7_EELb1EEELj2EE5firstEv
FN:2226,_ZNSt3__128__libcpp_compressed_pair_impINS_15__tree_end_nodeIPNS_16__tree_node_baseIPvEEEENS_9allocatorINS_11__tree_nodeINS_12__value_typeINS_12basic_stringIcNS_11char_traitsIcEENS7_IcEEEEN5Catch7TagInfoEEES3_EEEELj2EE5firstEv
FN:2226,_ZNSt3__128__libcpp_compressed_pair_impIPN5Catch8TestSpec6FilterENS_9allocatorIS3_EELj2EE5firstEv
FN:2226,_ZNSt3__128__libcpp_compressed_pair_impINS_15__tree_end_nodeIPNS_16__tree_node_baseIPvEEEENS_9allocatorINS_11__tree_nodeINS_12__value_typeIiN5Catch5Clara11CommandLineINSA_10ConfigDataEE3ArgEEES3_EEEELj2EE5firstEv
FN:2226,_ZNSt3__128__libcpp_compressed_pair_impIPN5Catch3PtrINS1_16IReporterFactoryEEENS_9allocatorIS4_EELj2EE5firstEv
FN:2226,_ZNSt3__128__libcpp_compressed_pair_impIPN5Catch3PtrINS1_22CumulativeReporterBase4NodeINS1_13TestCaseStatsENS3_11SectionNodeEEEEENS_9allocatorIS8_EELj2EE5firstEv
FN:2226,_ZNSt3__128__libcpp_compressed_pair_impIPN5Catch3PtrINS1_22CumulativeReporterBase4NodeINS1_14TestGroupStatsENS4_INS1_13TestCaseStatsENS3_11SectionNodeEEEEEEENS_9allocatorISA_EELj2EE5firstEv
FN:2226,_ZNSt3__128__libcpp_compressed_pair_impIPN5Catch3PtrINS1_18IStreamingReporterEEENS_9allocatorIS4_EELj2EE5firstEv
FN:2226,_ZNSt3__128__libcpp_compressed_pair_impINS_15__tree_end_nodeIPNS_16__tree_node_baseIPvEEEENS_9allocatorINS_11__tree_nodeINS_12__value_typeINS_12basic_stringIcNS_11char_traitsIcEENS7_IcEEEEPN5Catch14IGeneratorInfoEEES3_EEEELj2EE5firstEv
FN:2226,_ZNSt3__128__libcpp_compressed_pair_impIPNS_12basic_stringIcNS_11char_traitsIcEENS_9allocatorIcEEEENS4_IS6_EELj2EE5firstEv
FN:2226,_ZNSt3__128__libcpp_compressed_pair_impIPPKN5Catch20IExceptionTranslatorENS_9allocatorIS4_EELj2EE5firstEv
FN:2226,_ZNSt3__128__libcpp_compressed_pair_impINS_15__tree_end_nodeIPNS_16__tree_node_baseIPvEEEENS_9allocatorINS_11__tree_nodeINS_12basic_stringIcNS_11char_traitsIcEENS7_IcEEEES3_EEEELj2EE5firstEv
FN:2226,_ZNSt3__128__libcpp_compressed_pair_impIPN5Catch15ConsoleReporter13SummaryColumnENS_9allocatorIS3_EELj2EE5firstEv
FN:2226,_ZNSt3__128__libcpp_compressed_pair_impIPN5Catch14SectionEndInfoENS_9allocatorIS2_EELj2EE5firstEv
FN:2226,_ZNSt3__128__libcpp_compressed_pair_impIPN5Catch5Clara11CommandLineINS1_10ConfigDataEE3ArgENS_9allocatorIS6_EELj2EE5firstEv
FN:2227,_ZNKSt3__128__libcpp_compressed_pair_impIPN5Catch3PtrINS1_16TestCaseTracking8ITrackerEEENS_9allocatorIS5_EELj2EE5firstEv
FN:2227,_ZNKSt3__128__libcpp_compressed_pair_impIPN5Catch3PtrINS1_18IStreamingReporterEEENS_9allocatorIS4_EELj2EE5firstEv
FN:2227,_ZNKSt3__128__libcpp_compressed_pair_impImNS_19__map_value_compareINS_12basic_stringIcNS_11char_traitsIcEENS_9allocatorIcEEEENS_12__value_typeIS7_N5Catch7TagInfoEEENS_4lessIS7_EELb1EEELj2EE5firstEv
FN:2227,_ZNKSt3__128__libcpp_compressed_pair_impINS_15__tree_end_nodeIPNS_16__tree_node_baseIPvEEEENS_9allocatorINS_11__tree_nodeINS_12basic_stringIcNS_11char_traitsIcEENS7_IcEEEES3_EEEELj2EE5firstEv
FN:2227,_ZNKSt3__128__libcpp_compressed_pair_impINS_12basic_stringIwNS_11char_traitsIwEENS_9allocatorIwEEE5__repES5_Lj2EE5firstEv
FN:2227,_ZNKSt3__128__libcpp_compressed_pair_impIPN5Catch3PtrINS1_22CumulativeReporterBase11SectionNodeEEENS_9allocatorIS5_EELj2EE5firstEv
FN:2227,_ZNKSt3__128__libcpp_compressed_pair_impIPN5Catch5Clara6Parser5TokenENS_9allocatorIS4_EELj2EE5firstEv
FN:2227,_ZNKSt3__128__libcpp_compressed_pair_impIPN5Catch5Clara11CommandLineINS1_10ConfigDataEE3ArgENS_9allocatorIS6_EELj2EE5firstEv
FN:2227,_ZNKSt3__128__libcpp_compressed_pair_impINS_15__tree_end_nodeIPNS_16__tree_node_baseIPvEEEENS_9allocatorINS_11__tree_nodeINS_12__value_typeIiN5Catch5Clara11CommandLineINSA_10ConfigDataEE3ArgEEES3_EEEELj2EE5firstEv
FN:2227,_ZNKSt3__128__libcpp_compressed_pair_impIPNS_6vectorIN5Catch3PtrINS2_22CumulativeReporterBase11SectionNodeEEENS_9allocatorIS6_EEEENS7_IS9_EELj2EE5firstEv
FN:2227,_ZNKSt3__128__libcpp_compressed_pair_impImNS_19__map_value_compareIiNS_12__value_typeIiN5Catch5Clara11CommandLineINS3_10ConfigDataEE3ArgEEENS_4lessIiEELb1EEELj2EE5firstEv
FN:2227,_ZNKSt3__128__libcpp_compressed_pair_impIPNS_12basic_stringIcNS_11char_traitsIcEENS_9allocatorIcEEEENS4_IS6_EELj2EE5firstEv
FN:2227,_ZNKSt3__128__libcpp_compressed_pair_impIPN5Catch3PtrINS1_8Matchers4Impl7MatcherINS_12basic_stringIcNS_11char_traitsIcEENS_9allocatorIcEEEEEEEENS9_ISD_EELj2EE5firstEv
FN:2227,_ZNKSt3__128__libcpp_compressed_pair_impIPPN5Catch14IGeneratorInfoENS_9allocatorIS3_EELj2EE5firstEv
FN:2227,_ZNKSt3__128__libcpp_compressed_pair_impIPN5Catch14SectionEndInfoENS_9allocatorIS2_EELj2EE5firstEv
FN:2227,_ZNKSt3__128__libcpp_compressed_pair_impIPN5Catch8TestCaseENS_9allocatorIS2_EELj2EE5firstEv
FN:2227,_ZNKSt3__128__libcpp_compressed_pair_impIPN5Catch3PtrINS1_22CumulativeReporterBase4NodeINS1_12TestRunStatsENS4_INS1_14TestGroupStatsENS4_INS1_13TestCaseStatsENS3_11SectionNodeEEEEEEEEENS_9allocatorISC_EELj2EE5firstEv
FN:2227,_ZNKSt3__128__libcpp_compressed_pair_impINS_15__tree_end_nodeIPNS_16__tree_node_baseIPvEEEENS_9allocatorINS_11__tree_nodeINS_12__value_typeINS_12basic_stringIcNS_11char_traitsIcEENS7_IcEEEEN5Catch8TagAliasEEES3_EEEELj2EE5firstEv
FN:2227,_ZNKSt3__128__libcpp_compressed_pair_impINS_15__tree_end_nodeIPNS_16__tree_node_baseIPvEEEENS_9allocatorINS_11__tree_nodeINS_12__value_typeINS_12basic_stringIcNS_11char_traitsIcEENS7_IcEEEEN5Catch3PtrINSF_16IReporterFactoryEEEEES3_EEEELj2EE5firstEv
FN:2227,_ZNKSt3__128__libcpp_compressed_pair_impIPPN5Catch16TestCaseTracking8ITrackerENS_9allocatorIS4_EELj2EE5firstEv
FN:2227,_ZNKSt3__128__libcpp_compressed_pair_impImNS_4lessINS_12basic_stringIcNS_11char_traitsIcEENS_9allocatorIcEEEEEELj2EE5firstEv
FN:2227,_ZNKSt3__128__libcpp_compressed_pair_impIPN5Catch3PtrINS1_16IReporterFactoryEEENS_9allocatorIS4_EELj2EE5firstEv
FN:2227,_ZNKSt3__128__libcpp_compressed_pair_impIPN5Catch3PtrINS1_8TestSpec7PatternEEENS_9allocatorIS5_EELj2EE5firstEv
FN:2227,_ZNKSt3__128__libcpp_compressed_pair_impImNS_19__map_value_compareINS_12basic_stringIcNS_11char_traitsIcEENS_9allocatorIcEEEENS_12__value_typeIS7_N5Catch3PtrINS9_16IReporterFactoryEEEEENS_4lessIS7_EELb1EEELj2EE5firstEv
FN:2227,_ZNKSt3__128__libcpp_compressed_pair_impINS_12basic_stringIcNS_11char_traitsIcEENS_9allocatorIcEEE5__repES5_Lj2EE5firstEv
FN:2227,_ZNKSt3__128__libcpp_compressed_pair_impIPN5Catch3PtrINS1_22CumulativeReporterBase4NodeINS1_13TestCaseStatsENS3_11SectionNodeEEEEENS_9allocatorIS8_EELj2EE5firstEv
FN:2227,_ZNKSt3__128__libcpp_compressed_pair_impIPPKN5Catch20IExceptionTranslatorENS_9allocatorIS4_EELj2EE5firstEv
FN:2227,_ZNKSt3__128__libcpp_compressed_pair_impIPN5Catch3PtrINS1_22CumulativeReporterBase4NodeINS1_14TestGroupStatsENS4_INS1_13TestCaseStatsENS3_11SectionNodeEEEEEEENS_9allocatorISA_EELj2EE5firstEv
FN:2227,_ZNKSt3__128__libcpp_compressed_pair_impIPN5Catch14AssertionStatsENS_9allocatorIS2_EELj2EE5firstEv
FN:2227,_ZNKSt3__128__libcpp_compressed_pair_impIPN5Catch5Clara11CommandLineINS1_10ConfigDataEE3ArgENS_14default_deleteIS6_EELj2EE5firstEv
FN:2227,_ZNKSt3__128__libcpp_compressed_pair_impIPN5Catch8TestSpec6FilterENS_9allocatorIS3_EELj2EE5firstEv
FN:2227,_ZNKSt3__128__libcpp_compressed_pair_impIPN5Catch15ConsoleReporter13SummaryColumnENS_9allocatorIS3_EELj2EE5firstEv
FN:2227,_ZNKSt3__128__libcpp_compressed_pair_impIPN5Catch11SectionInfoENS_9allocatorIS2_EELj2EE5firstEv
FN:2227,_ZNKSt3__128__libcpp_compressed_pair_impIPN5Catch11MessageInfoENS_9allocatorIS2_EELj2EE5firstEv
FN:2229,_ZNSt3__128__libcpp_compressed_pair_impIPN5Catch15ConsoleReporter13SummaryColumnENS_9allocatorIS3_EELj2EE6secondEv
FN:2229,_ZNSt3__128__libcpp_compressed_pair_impINS_15__tree_end_nodeIPNS_16__tree_node_baseIPvEEEENS_9allocatorINS_11__tree_nodeINS_12__value_typeINS_12basic_stringIcNS_11char_traitsIcEENS7_IcEEEEN5Catch8TagAliasEEES3_EEEELj2EE6secondEv
FN:2229,_ZNSt3__128__libcpp_compressed_pair_impImNS_4lessINS_12basic_stringIcNS_11char_traitsIcEENS_9allocatorIcEEEEEELj2EE6secondEv
FN:2229,_ZNSt3__128__libcpp_compressed_pair_impIPN5Catch5Clara6Parser5TokenENS_9allocatorIS4_EELj2EE6secondEv
FN:2229,_ZNSt3__128__libcpp_compressed_pair_impINS_15__tree_end_nodeIPNS_16__tree_node_baseIPvEEEENS_9allocatorINS_11__tree_nodeINS_12basic_stringIcNS_11char_traitsIcEENS7_IcEEEES3_EEEELj2EE6secondEv
FN:2229,_ZNSt3__128__libcpp_compressed_pair_impIPN5Catch11SectionInfoENS_9allocatorIS2_EELj2EE6secondEv
FN:2229,_ZNSt3__128__libcpp_compressed_pair_impIPN5Catch3PtrINS1_22CumulativeReporterBase4NodeINS1_12TestRunStatsENS4_INS1_14TestGroupStatsENS4_INS1_13TestCaseStatsENS3_11SectionNodeEEEEEEEEENS_9allocatorISC_EELj2EE6secondEv
FN:2229,_ZNSt3__128__libcpp_compressed_pair_impIPN5Catch3PtrINS1_16IReporterFactoryEEENS_9allocatorIS4_EELj2EE6secondEv
FN:2229,_ZNSt3__128__libcpp_compressed_pair_impIPPN5Catch16TestCaseTracking8ITrackerENS_9allocatorIS4_EELj2EE6secondEv
FN:2229,_ZNSt3__128__libcpp_compressed_pair_impImNS_19__map_value_compareINS_12basic_stringIcNS_11char_traitsIcEENS_9allocatorIcEEEENS_12__value_typeIS7_PN5Catch18IGeneratorsForTestEEENS_4lessIS7_EELb1EEELj2EE6secondEv
FN:2229,_ZNSt3__128__libcpp_compressed_pair_impIPN5Catch3PtrINS1_16TestCaseTracking8ITrackerEEENS_9allocatorIS5_EELj2EE6secondEv
FN:2229,_ZNSt3__128__libcpp_compressed_pair_impIPN5Catch3PtrINS1_22CumulativeReporterBase4NodeINS1_14TestGroupStatsENS4_INS1_13TestCaseStatsENS3_11SectionNodeEEEEEEENS_9allocatorISA_EELj2EE6secondEv
FN:2229,_ZNSt3__128__libcpp_compressed_pair_impImNS_4lessIN5Catch8TestCaseEEELj2EE6secondEv
FN:2229,_ZNSt3__128__libcpp_compressed_pair_impINS_12basic_stringIcNS_11char_traitsIcEENS_9allocatorIcEEE5__repES5_Lj2EE6secondEv
FN:2229,_ZNSt3__128__libcpp_compressed_pair_impIPN5Catch3PtrINS1_18IStreamingReporterEEENS_9allocatorIS4_EELj2EE6secondEv
FN:2229,_ZNSt3__128__libcpp_compressed_pair_impIPN5Catch11MessageInfoENS_9allocatorIS2_EELj2EE6secondEv
FN:2229,_ZNSt3__128__libcpp_compressed_pair_impImNS_19__map_value_compareINS_12basic_stringIcNS_11char_traitsIcEENS_9allocatorIcEEEENS_12__value_typeIS7_N5Catch7TagInfoEEENS_4lessIS7_EELb1EEELj2EE6secondEv
FN:2229,_ZNSt3__128__libcpp_compressed_pair_impImNS_19__map_value_compareINS_12basic_stringIcNS_11char_traitsIcEENS_9allocatorIcEEEENS_12__value_typeIS7_N5Catch3PtrINS9_16IReporterFactoryEEEEENS_4lessIS7_EELb1EEELj2EE6secondEv
FN:2229,_ZNSt3__128__libcpp_compressed_pair_impIPN5Catch5Clara11CommandLineINS1_10ConfigDataEE3ArgENS_9allocatorIS6_EELj2EE6secondEv
FN:2229,_ZNSt3__128__libcpp_compressed_pair_impIPN5Catch14SectionEndInfoENS_9allocatorIS2_EELj2EE6secondEv
FN:2229,_ZNSt3__128__libcpp_compressed_pair_impINS_15__tree_end_nodeIPNS_16__tree_node_baseIPvEEEENS_9allocatorINS_11__tree_nodeINS_12__value_typeINS_12basic_stringIcNS_11char_traitsIcEENS7_IcEEEEN5Catch7TagInfoEEES3_EEEELj2EE6secondEv
FN:2229,_ZNSt3__128__libcpp_compressed_pair_impIPN5Catch3PtrINS1_8Matchers4Impl7MatcherINS_12basic_stringIcNS_11char_traitsIcEENS_9allocatorIcEEEEEEEENS9_ISD_EELj2EE6secondEv
FN:2229,_ZNSt3__128__libcpp_compressed_pair_impIPN5Catch8TestCaseENS_9allocatorIS2_EELj2EE6secondEv
FN:2229,_ZNSt3__128__libcpp_compressed_pair_impIPNS_12basic_stringIcNS_11char_traitsIcEENS_9allocatorIcEEEENS4_IS6_EELj2EE6secondEv
FN:2229,_ZNSt3__128__libcpp_compressed_pair_impINS_15__tree_end_nodeIPNS_16__tree_node_baseIPvEEEENS_9allocatorINS_11__tree_nodeIN5Catch8TestCaseES3_EEEELj2EE6secondEv
FN:2229,_ZNSt3__128__libcpp_compressed_pair_impIPN5Catch3PtrINS1_22CumulativeReporterBase4NodeINS1_13TestCaseStatsENS3_11SectionNodeEEEEENS_9allocatorIS8_EELj2EE6secondEv
FN:2229,_ZNSt3__128__libcpp_compressed_pair_impINS_15__tree_end_nodeIPNS_16__tree_node_baseIPvEEEENS_9allocatorINS_11__tree_nodeINS_12__value_typeINS_12basic_stringIcNS_11char_traitsIcEENS7_IcEEEEPN5Catch18IGeneratorsForTestEEES3_EEEELj2EE6secondEv
FN:2229,_ZNSt3__128__libcpp_compressed_pair_impIPPKN5Catch20IExceptionTranslatorENS_9allocatorIS4_EELj2EE6secondEv
FN:2229,_ZNSt3__128__libcpp_compressed_pair_impIPN5Catch3PtrINS1_22CumulativeReporterBase11SectionNodeEEENS_9allocatorIS5_EELj2EE6secondEv
FN:2229,_ZNSt3__128__libcpp_compressed_pair_impINS_15__tree_end_nodeIPNS_16__tree_node_baseIPvEEEENS_9allocatorINS_11__tree_nodeINS_12__value_typeINS_12basic_stringIcNS_11char_traitsIcEENS7_IcEEEEPN5Catch14IGeneratorInfoEEES3_EEEELj2EE6secondEv
FN:2229,_ZNSt3__128__libcpp_compressed_pair_impImNS_19__map_value_compareINS_12basic_stringIcNS_11char_traitsIcEENS_9allocatorIcEEEENS_12__value_typeIS7_N5Catch8TagAliasEEENS_4lessIS7_EELb1EEELj2EE6secondEv
FN:2229,_ZNSt3__128__libcpp_compressed_pair_impIPPN5Catch14IGeneratorInfoENS_9allocatorIS3_EELj2EE6secondEv
FN:2229,_ZNSt3__128__libcpp_compressed_pair_impIPN5Catch8TestSpec6FilterENS_9allocatorIS3_EELj2EE6secondEv
FN:2229,_ZNSt3__128__libcpp_compressed_pair_impIPNS_6vectorIN5Catch3PtrINS2_22CumulativeReporterBase11SectionNodeEEENS_9allocatorIS6_EEEENS7_IS9_EELj2EE6secondEv
FN:2229,_ZNSt3__128__libcpp_compressed_pair_impImNS_19__map_value_compareINS_12basic_stringIcNS_11char_traitsIcEENS_9allocatorIcEEEENS_12__value_typeIS7_PN5Catch14IGeneratorInfoEEENS_4lessIS7_EELb1EEELj2EE6secondEv
FN:2229,_ZNSt3__128__libcpp_compressed_pair_impIPN5Catch5Clara11CommandLineINS1_10ConfigDataEE3ArgENS_14default_deleteIS6_EELj2EE6secondEv
FN:2229,_ZNSt3__128__libcpp_compressed_pair_impINS_15__tree_end_nodeIPNS_16__tree_node_baseIPvEEEENS_9allocatorINS_11__tree_nodeINS_12__value_typeIiN5Catch5Clara11CommandLineINSA_10ConfigDataEE3ArgEEES3_EEEELj2EE6secondEv
FN:2229,_ZNSt3__128__libcpp_compressed_pair_impIPN5Catch14AssertionStatsENS_9allocatorIS2_EELj2EE6secondEv
FN:2229,_ZNSt3__128__libcpp_compressed_pair_impIPN5Catch3PtrINS1_8TestSpec7PatternEEENS_9allocatorIS5_EELj2EE6secondEv
FN:2229,_ZNSt3__128__libcpp_compressed_pair_impINS_15__tree_end_nodeIPNS_16__tree_node_baseIPvEEEENS_9allocatorINS_11__tree_nodeINS_12__value_typeINS_12basic_stringIcNS_11char_traitsIcEENS7_IcEEEEN5Catch3PtrINSF_16IReporterFactoryEEEEES3_EEEELj2EE6secondEv
FN:2230,_ZNKSt3__128__libcpp_compressed_pair_impIPN5Catch3PtrINS1_22CumulativeReporterBase11SectionNodeEEENS_9allocatorIS5_EELj2EE6secondEv
FN:2230,_ZNKSt3__128__libcpp_compressed_pair_impINS_15__tree_end_nodeIPNS_16__tree_node_baseIPvEEEENS_9allocatorINS_11__tree_nodeINS_12basic_stringIcNS_11char_traitsIcEENS7_IcEEEES3_EEEELj2EE6secondEv
FN:2230,_ZNKSt3__128__libcpp_compressed_pair_impIPPKN5Catch20IExceptionTranslatorENS_9allocatorIS4_EELj2EE6secondEv
FN:2230,_ZNKSt3__128__libcpp_compressed_pair_impIPN5Catch14SectionEndInfoENS_9allocatorIS2_EELj2EE6secondEv
FN:2230,_ZNKSt3__128__libcpp_compressed_pair_impImNS_19__map_value_compareINS_12basic_stringIcNS_11char_traitsIcEENS_9allocatorIcEEEENS_12__value_typeIS7_N5Catch8TagAliasEEENS_4lessIS7_EELb1EEELj2EE6secondEv
FN:2230,_ZNKSt3__128__libcpp_compressed_pair_impIPPN5Catch16TestCaseTracking8ITrackerENS_9allocatorIS4_EELj2EE6secondEv
FN:2230,_ZNKSt3__128__libcpp_compressed_pair_impImNS_19__map_value_compareINS_12basic_stringIcNS_11char_traitsIcEENS_9allocatorIcEEEENS_12__value_typeIS7_N5Catch3PtrINS9_16IReporterFactoryEEEEENS_4lessIS7_EELb1EEELj2EE6secondEv
FN:2230,_ZNKSt3__128__libcpp_compressed_pair_impIPN5Catch3PtrINS1_18IStreamingReporterEEENS_9allocatorIS4_EELj2EE6secondEv
FN:2230,_ZNKSt3__128__libcpp_compressed_pair_impIPN5Catch3PtrINS1_8Matchers4Impl7MatcherINS_12basic_stringIcNS_11char_traitsIcEENS_9allocatorIcEEEEEEEENS9_ISD_EELj2EE6secondEv
FN:2230,_ZNKSt3__128__libcpp_compressed_pair_impIPN5Catch5Clara6Parser5TokenENS_9allocatorIS4_EELj2EE6secondEv
FN:2230,_ZNKSt3__128__libcpp_compressed_pair_impIPN5Catch8TestCaseENS_9allocatorIS2_EELj2EE6secondEv
FN:2230,_ZNKSt3__128__libcpp_compressed_pair_impIPN5Catch3PtrINS1_22CumulativeReporterBase4NodeINS1_13TestCaseStatsENS3_11SectionNodeEEEEENS_9allocatorIS8_EELj2EE6secondEv
FN:2230,_ZNKSt3__128__libcpp_compressed_pair_impIPNS_12basic_stringIcNS_11char_traitsIcEENS_9allocatorIcEEEENS4_IS6_EELj2EE6secondEv
FN:2230,_ZNKSt3__128__libcpp_compressed_pair_impIPN5Catch11SectionInfoENS_9allocatorIS2_EELj2EE6secondEv
FN:2230,_ZNKSt3__128__libcpp_compressed_pair_impINS_12basic_stringIcNS_11char_traitsIcEENS_9allocatorIcEEE5__repES5_Lj2EE6secondEv
FN:2230,_ZNKSt3__128__libcpp_compressed_pair_impIPPN5Catch14IGeneratorInfoENS_9allocatorIS3_EELj2EE6secondEv
FN:2230,_ZNKSt3__128__libcpp_compressed_pair_impIPN5Catch3PtrINS1_22CumulativeReporterBase4NodeINS1_12TestRunStatsENS4_INS1_14TestGroupStatsENS4_INS1_13TestCaseStatsENS3_11SectionNodeEEEEEEEEENS_9allocatorISC_EELj2EE6secondEv
FN:2230,_ZNKSt3__128__libcpp_compressed_pair_impIPN5Catch15ConsoleReporter13SummaryColumnENS_9allocatorIS3_EELj2EE6secondEv
FN:2230,_ZNKSt3__128__libcpp_compressed_pair_impIPN5Catch3PtrINS1_8TestSpec7PatternEEENS_9allocatorIS5_EELj2EE6secondEv
FN:2230,_ZNKSt3__128__libcpp_compressed_pair_impIPN5Catch14AssertionStatsENS_9allocatorIS2_EELj2EE6secondEv
FN:2230,_ZNKSt3__128__libcpp_compressed_pair_impIPN5Catch11MessageInfoENS_9allocatorIS2_EELj2EE6secondEv
FN:2230,_ZNKSt3__128__libcpp_compressed_pair_impIPN5Catch3PtrINS1_22CumulativeReporterBase4NodeINS1_14TestGroupStatsENS4_INS1_13TestCaseStatsENS3_11SectionNodeEEEEEEENS_9allocatorISA_EELj2EE6secondEv
FN:2230,_ZNKSt3__128__libcpp_compressed_pair_impImNS_4lessINS_12basic_stringIcNS_11char_traitsIcEENS_9allocatorIcEEEEEELj2EE6secondEv
FN:2230,_ZNKSt3__128__libcpp_compressed_pair_impImNS_19__map_value_compareIiNS_12__value_typeIiN5Catch5Clara11CommandLineINS3_10ConfigDataEE3ArgEEENS_4lessIiEELb1EEELj2EE6secondEv
FN:2230,_ZNKSt3__128__libcpp_compressed_pair_impIPN5Catch3PtrINS1_16TestCaseTracking8ITrackerEEENS_9allocatorIS5_EELj2EE6secondEv
FN:2230,_ZNKSt3__128__libcpp_compressed_pair_impIPN5Catch5Clara11CommandLineINS1_10ConfigDataEE3ArgENS_9allocatorIS6_EELj2EE6secondEv
FN:2230,_ZNKSt3__128__libcpp_compressed_pair_impIPN5Catch8TestSpec6FilterENS_9allocatorIS3_EELj2EE6secondEv
FN:2230,_ZNKSt3__128__libcpp_compressed_pair_impIPN5Catch3PtrINS1_16IReporterFactoryEEENS_9allocatorIS4_EELj2EE6secondEv
FN:2232,_ZNSt3__128__libcpp_compressed_pair_impImNS_4lessINS_12basic_stringIcNS_11char_traitsIcEENS_9allocatorIcEEEEEELj2EE4swapERS9_
FN:2343,_ZNSt3__117__compressed_pairINS_15__tree_end_nodeIPNS_16__tree_node_baseIPvEEEENS_9allocatorINS_11__tree_nodeINS_12__value_typeINS_12basic_stringIcNS_11char_traitsIcEENS7_IcEEEEN5Catch3PtrINSF_16IReporterFactoryEEEEES3_EEEEEC2Ev
FN:2343,_ZNSt3__117__compressed_pairINS_15__tree_end_nodeIPNS_16__tree_node_baseIPvEEEENS_9allocatorINS_11__tree_nodeINS_12__value_typeINS_12basic_stringIcNS_11char_traitsIcEENS7_IcEEEEN5Catch3PtrINSF_16IReporterFactoryEEEEES3_EEEEEC1Ev
FN:2343,_ZNSt3__117__compressed_pairINS_15__tree_end_nodeIPNS_16__tree_node_baseIPvEEEENS_9allocatorINS_11__tree_nodeINS_12__value_typeINS_12basic_stringIcNS_11char_traitsIcEENS7_IcEEEEPN5Catch18IGeneratorsForTestEEES3_EEEEEC2Ev
FN:2343,_ZNSt3__117__compressed_pairINS_15__tree_end_nodeIPNS_16__tree_node_baseIPvEEEENS_9allocatorINS_11__tree_nodeINS_12__value_typeINS_12basic_stringIcNS_11char_traitsIcEENS7_IcEEEEN5Catch7TagInfoEEES3_EEEEEC2Ev
FN:2343,_ZNSt3__117__compressed_pairINS_15__tree_end_nodeIPNS_16__tree_node_baseIPvEEEENS_9allocatorINS_11__tree_nodeINS_12__value_typeINS_12basic_stringIcNS_11char_traitsIcEENS7_IcEEEEN5Catch7TagInfoEEES3_EEEEEC1Ev
FN:2343,_ZNSt3__117__compressed_pairINS_15__tree_end_nodeIPNS_16__tree_node_baseIPvEEEENS_9allocatorINS_11__tree_nodeIN5Catch8TestCaseES3_EEEEEC2Ev
FN:2343,_ZNSt3__117__compressed_pairINS_15__tree_end_nodeIPNS_16__tree_node_baseIPvEEEENS_9allocatorINS_11__tree_nodeINS_12__value_typeINS_12basic_stringIcNS_11char_traitsIcEENS7_IcEEEEPN5Catch14IGeneratorInfoEEES3_EEEEEC2Ev
FN:2343,_ZNSt3__117__compressed_pairINS_15__tree_end_nodeIPNS_16__tree_node_baseIPvEEEENS_9allocatorINS_11__tree_nodeINS_12__value_typeINS_12basic_stringIcNS_11char_traitsIcEENS7_IcEEEEPN5Catch14IGeneratorInfoEEES3_EEEEEC1Ev
FN:2343,_ZNSt3__117__compressed_pairINS_12basic_stringIwNS_11char_traitsIwEENS_9allocatorIwEEE5__repES5_EC2Ev
FN:2343,_ZNSt3__117__compressed_pairINS_12basic_stringIcNS_11char_traitsIcEENS_9allocatorIcEEE5__repES5_EC1Ev
FN:2343,_ZNSt3__117__compressed_pairINS_15__tree_end_nodeIPNS_16__tree_node_baseIPvEEEENS_9allocatorINS_11__tree_nodeINS_12__value_typeINS_12basic_stringIcNS_11char_traitsIcEENS7_IcEEEEPN5Catch18IGeneratorsForTestEEES3_EEEEEC1Ev
FN:2343,_ZNSt3__117__compressed_pairINS_15__tree_end_nodeIPNS_16__tree_node_baseIPvEEEENS_9allocatorINS_11__tree_nodeINS_12__value_typeINS_12basic_stringIcNS_11char_traitsIcEENS7_IcEEEEN5Catch8TagAliasEEES3_EEEEEC1Ev
FN:2343,_ZNSt3__117__compressed_pairINS_15__tree_end_nodeIPNS_16__tree_node_baseIPvEEEENS_9allocatorINS_11__tree_nodeINS_12__value_typeIiN5Catch5Clara11CommandLineINSA_10ConfigDataEE3ArgEEES3_EEEEEC2Ev
FN:2343,_ZNSt3__117__compressed_pairINS_15__tree_end_nodeIPNS_16__tree_node_baseIPvEEEENS_9allocatorINS_11__tree_nodeINS_12basic_stringIcNS_11char_traitsIcEENS7_IcEEEES3_EEEEEC2Ev
FN:2343,_ZNSt3__117__compressed_pairINS_12basic_stringIcNS_11char_traitsIcEENS_9allocatorIcEEE5__repES5_EC2Ev
FN:2343,_ZNSt3__117__compressed_pairINS_15__tree_end_nodeIPNS_16__tree_node_baseIPvEEEENS_9allocatorINS_11__tree_nodeINS_12__value_typeINS_12basic_stringIcNS_11char_traitsIcEENS7_IcEEEEN5Catch8TagAliasEEES3_EEEEEC2Ev
FN:2343,_ZNSt3__117__compressed_pairINS_15__tree_end_nodeIPNS_16__tree_node_baseIPvEEEENS_9allocatorINS_11__tree_nodeINS_12__value_typeIiN5Catch5Clara11CommandLineINSA_10ConfigDataEE3ArgEEES3_EEEEEC1Ev
FN:2343,_ZNSt3__117__compressed_pairINS_15__tree_end_nodeIPNS_16__tree_node_baseIPvEEEENS_9allocatorINS_11__tree_nodeINS_12basic_stringIcNS_11char_traitsIcEENS7_IcEEEES3_EEEEEC1Ev
FN:2343,_ZNSt3__117__compressed_pairINS_12basic_stringIwNS_11char_traitsIwEENS_9allocatorIwEEE5__repES5_EC1Ev
FN:2343,_ZNSt3__117__compressed_pairINS_15__tree_end_nodeIPNS_16__tree_node_baseIPvEEEENS_9allocatorINS_11__tree_nodeIN5Catch8TestCaseES3_EEEEEC1Ev
FN:2344,_ZNSt3__117__compressed_pairIPN5Catch15ConsoleReporter13SummaryColumnENS_9allocatorIS3_EEEC2ES4_
FN:2344,_ZNSt3__117__compressed_pairIPN5Catch14AssertionStatsENS_9allocatorIS2_EEEC2ES3_
FN:2344,_ZNSt3__117__compressed_pairIPPN5Catch16TestCaseTracking8ITrackerENS_9allocatorIS4_EEEC2ES5_
FN:2344,_ZNSt3__117__compressed_pairIPN5Catch5Clara11CommandLineINS1_10ConfigDataEE3ArgENS_14default_deleteIS6_EEEC2ES7_
FN:2344,_ZNSt3__117__compressed_pairIPN5Catch3PtrINS1_22CumulativeReporterBase4NodeINS1_13TestCaseStatsENS3_11SectionNodeEEEEENS_9allocatorIS8_EEEC2ES9_
FN:2344,_ZNSt3__117__compressed_pairIPN5Catch8TestSpec6FilterENS_9allocatorIS3_EEEC1ES4_
FN:2344,_ZNSt3__117__compressed_pairIPN5Catch3PtrINS1_22CumulativeReporterBase11SectionNodeEEENS_9allocatorIS5_EEEC1ES6_
FN:2344,_ZNSt3__117__compressed_pairIPN5Catch8TestSpec6FilterENS_9allocatorIS3_EEEC2ES4_
FN:2344,_ZNSt3__117__compressed_pairIPN5Catch3PtrINS1_16TestCaseTracking8ITrackerEEENS_9allocatorIS5_EEEC1ES6_
FN:2344,_ZNSt3__117__compressed_pairIPN5Catch5Clara11CommandLineINS1_10ConfigDataEE3ArgENS_9allocatorIS6_EEEC2ES7_
FN:2344,_ZNSt3__117__compressed_pairIPN5Catch15ConsoleReporter13SummaryColumnENS_9allocatorIS3_EEEC1ES4_
FN:2344,_ZNSt3__117__compressed_pairIPN5Catch3PtrINS1_8TestSpec7PatternEEENS_9allocatorIS5_EEEC2ES6_
FN:2344,_ZNSt3__117__compressed_pairIPN5Catch3PtrINS1_22CumulativeReporterBase4NodeINS1_13TestCaseStatsENS3_11SectionNodeEEEEENS_9allocatorIS8_EEEC1ES9_
FN:2344,_ZNSt3__117__compressed_pairIPN5Catch14AssertionStatsENS_9allocatorIS2_EEEC1ES3_
FN:2344,_ZNSt3__117__compressed_pairIPN5Catch5Clara6Parser5TokenENS_9allocatorIS4_EEEC2ES5_
FN:2344,_ZNSt3__117__compressed_pairIPN5Catch8TestCaseENS_9allocatorIS2_EEEC2ES3_
FN:2344,_ZNSt3__117__compressed_pairIPN5Catch3PtrINS1_18IStreamingReporterEEENS_9allocatorIS4_EEEC1ES5_
FN:2344,_ZNSt3__117__compressed_pairIPPN5Catch14IGeneratorInfoENS_9allocatorIS3_EEEC2ES4_
FN:2344,_ZNSt3__117__compressed_pairIPPN5Catch16TestCaseTracking8ITrackerENS_9allocatorIS4_EEEC1ES5_
FN:2344,_ZNSt3__117__compressed_pairIPNS_6vectorIN5Catch3PtrINS2_22CumulativeReporterBase11SectionNodeEEENS_9allocatorIS6_EEEENS7_IS9_EEEC2ESA_
FN:2344,_ZNSt3__117__compressed_pairIPPN5Catch14IGeneratorInfoENS_9allocatorIS3_EEEC1ES4_
FN:2344,_ZNSt3__117__compressed_pairIPN5Catch5Clara6Parser5TokenENS_9allocatorIS4_EEEC1ES5_
FN:2344,_ZNSt3__117__compressed_pairIPNS_6vectorIN5Catch3PtrINS2_22CumulativeReporterBase11SectionNodeEEENS_9allocatorIS6_EEEENS7_IS9_EEEC1ESA_
FN:2344,_ZNSt3__117__compressed_pairIPN5Catch3PtrINS1_22CumulativeReporterBase4NodeINS1_14TestGroupStatsENS4_INS1_13TestCaseStatsENS3_11SectionNodeEEEEEEENS_9allocatorISA_EEEC2ESB_
FN:2344,_ZNSt3__117__compressed_pairIPN5Catch11MessageInfoENS_9allocatorIS2_EEEC1ES3_
FN:2344,_ZNSt3__117__compressed_pairIPN5Catch3PtrINS1_22CumulativeReporterBase4NodeINS1_12TestRunStatsENS4_INS1_14TestGroupStatsENS4_INS1_13TestCaseStatsENS3_11SectionNodeEEEEEEEEENS_9allocatorISC_EEEC1ESD_
FN:2344,_ZNSt3__117__compressed_pairIPPKN5Catch20IExceptionTranslatorENS_9allocatorIS4_EEEC1ES5_
FN:2344,_ZNSt3__117__compressed_pairIPNS_12basic_stringIcNS_11char_traitsIcEENS_9allocatorIcEEEENS4_IS6_EEEC2ES7_
FN:2344,_ZNSt3__117__compressed_pairIPN5Catch5Clara11CommandLineINS1_10ConfigDataEE3ArgENS_9allocatorIS6_EEEC1ES7_
FN:2344,_ZNSt3__117__compressed_pairIPN5Catch11MessageInfoENS_9allocatorIS2_EEEC2ES3_
FN:2344,_ZNSt3__117__compressed_pairIPN5Catch3PtrINS1_22CumulativeReporterBase4NodeINS1_14TestGroupStatsENS4_INS1_13TestCaseStatsENS3_11SectionNodeEEEEEEENS_9allocatorISA_EEEC1ESB_
FN:2344,_ZNSt3__117__compressed_pairIPPKN5Catch20IExceptionTranslatorENS_9allocatorIS4_EEEC2ES5_
FN:2344,_ZNSt3__117__compressed_pairIPNS_12basic_stringIcNS_11char_traitsIcEENS_9allocatorIcEEEENS4_IS6_EEEC1ES7_
FN:2344,_ZNSt3__117__compressed_pairIPN5Catch3PtrINS1_16IReporterFactoryEEENS_9allocatorIS4_EEEC1ES5_
FN:2344,_ZNSt3__117__compressed_pairIPN5Catch14SectionEndInfoENS_9allocatorIS2_EEEC2ES3_
FN:2344,_ZNSt3__117__compressed_pairIPN5Catch3PtrINS1_22CumulativeReporterBase11SectionNodeEEENS_9allocatorIS5_EEEC2ES6_
FN:2344,_ZNSt3__117__compressed_pairIPN5Catch3PtrINS1_8Matchers4Impl7MatcherINS_12basic_stringIcNS_11char_traitsIcEENS_9allocatorIcEEEEEEEENS9_ISD_EEEC1ESE_
FN:2344,_ZNSt3__117__compressed_pairIPN5Catch11SectionInfoENS_9allocatorIS2_EEEC2ES3_
FN:2344,_ZNSt3__117__compressed_pairIPN5Catch3PtrINS1_8Matchers4Impl7MatcherINS_12basic_stringIcNS_11char_traitsIcEENS_9allocatorIcEEEEEEEENS9_ISD_EEEC2ESE_
FN:2344,_ZNSt3__117__compressed_pairIPN5Catch3PtrINS1_22CumulativeReporterBase4NodeINS1_12TestRunStatsENS4_INS1_14TestGroupStatsENS4_INS1_13TestCaseStatsENS3_11SectionNodeEEEEEEEEENS_9allocatorISC_EEEC2ESD_
FN:2344,_ZNSt3__117__compressed_pairIPN5Catch3PtrINS1_18IStreamingReporterEEENS_9allocatorIS4_EEEC2ES5_
FN:2344,_ZNSt3__117__compressed_pairIPN5Catch14SectionEndInfoENS_9allocatorIS2_EEEC1ES3_
FN:2344,_ZNSt3__117__compressed_pairIPN5Catch3PtrINS1_16IReporterFactoryEEENS_9allocatorIS4_EEEC2ES5_
FN:2344,_ZNSt3__117__compressed_pairIPN5Catch8TestCaseENS_9allocatorIS2_EEEC1ES3_
FN:2344,_ZNSt3__117__compressed_pairIPN5Catch3PtrINS1_16TestCaseTracking8ITrackerEEENS_9allocatorIS5_EEEC2ES6_
FN:2344,_ZNSt3__117__compressed_pairIPN5Catch11SectionInfoENS_9allocatorIS2_EEEC1ES3_
FN:2344,_ZNSt3__117__compressed_pairIPN5Catch3PtrINS1_8TestSpec7PatternEEENS_9allocatorIS5_EEEC1ES6_
FN:2344,_ZNSt3__117__compressed_pairIPN5Catch5Clara11CommandLineINS1_10ConfigDataEE3ArgENS_14default_deleteIS6_EEEC1ES7_
FN:2346,_ZNSt3__117__compressed_pairINS_15__tree_end_nodeIPNS_16__tree_node_baseIPvEEEENS_9allocatorINS_11__tree_nodeINS_12basic_stringIcNS_11char_traitsIcEENS7_IcEEEES3_EEEEEC1ESF_
FN:2346,_ZNSt3__117__compressed_pairINS_15__tree_end_nodeIPNS_16__tree_node_baseIPvEEEENS_9allocatorINS_11__tree_nodeINS_12basic_stringIcNS_11char_traitsIcEENS7_IcEEEES3_EEEEEC2ESF_
FN:2346,_ZNSt3__117__compressed_pairINS_12basic_stringIcNS_11char_traitsIcEENS_9allocatorIcEEE5__repES5_EC2ES5_
FN:2346,_ZNSt3__117__compressed_pairINS_12basic_stringIcNS_11char_traitsIcEENS_9allocatorIcEEE5__repES5_EC1ES5_
FN:2348,_ZNSt3__117__compressed_pairIPNS_11__tree_nodeINS_12__value_typeINS_12basic_stringIcNS_11char_traitsIcEENS_9allocatorIcEEEEN5Catch7TagInfoEEEPvEENS_22__tree_node_destructorINS6_ISD_EEEEEC2ESE_SH_
FN:2348,_ZNSt3__117__compressed_pairImNS_19__map_value_compareINS_12basic_stringIcNS_11char_traitsIcEENS_9allocatorIcEEEENS_12__value_typeIS7_N5Catch7TagInfoEEENS_4lessIS7_EELb1EEEEC2EmSE_
FN:2348,_ZNSt3__117__compressed_pairIPN5Catch3PtrINS1_16IReporterFactoryEEENS_9allocatorIS4_EEEC2ES5_S7_
FN:2348,_ZNSt3__117__compressed_pairIPPKN5Catch20IExceptionTranslatorERNS_9allocatorIS4_EEEC1ES5_S8_
FN:2348,_ZNSt3__117__compressed_pairIPN5Catch3PtrINS1_22CumulativeReporterBase4NodeINS1_14TestGroupStatsENS4_INS1_13TestCaseStatsENS3_11SectionNodeEEEEEEERNS_9allocatorISA_EEEC2ESB_SE_
FN:2348,_ZNSt3__117__compressed_pairIPN5Catch3PtrINS1_8TestSpec7PatternEEERNS_9allocatorIS5_EEEC2ES6_S9_
FN:2348,_ZNSt3__117__compressed_pairIPPN5Catch14IGeneratorInfoERNS_9allocatorIS3_EEEC1ES4_S7_
FN:2348,_ZNSt3__117__compressed_pairImNS_4lessINS_12basic_stringIcNS_11char_traitsIcEENS_9allocatorIcEEEEEEEC2EmS8_
FN:2348,_ZNSt3__117__compressed_pairIPN5Catch8TestCaseERNS_9allocatorIS2_EEEC1ES3_S6_
FN:2348,_ZNSt3__117__compressed_pairImNS_19__map_value_compareINS_12basic_stringIcNS_11char_traitsIcEENS_9allocatorIcEEEENS_12__value_typeIS7_N5Catch3PtrINS9_16IReporterFactoryEEEEENS_4lessIS7_EELb1EEEEC1EmSG_
FN:2348,_ZNSt3__117__compressed_pairIPNS_11__tree_nodeIN5Catch8TestCaseEPvEENS_22__tree_node_destructorINS_9allocatorIS5_EEEEEC2ES6_SA_
FN:2348,_ZNSt3__117__compressed_pairIPN5Catch3PtrINS1_8Matchers4Impl7MatcherINS_12basic_stringIcNS_11char_traitsIcEENS_9allocatorIcEEEEEEEENS9_ISD_EEEC2ESE_SF_
FN:2348,_ZNSt3__117__compressed_pairIPN5Catch5Clara6Parser5TokenERNS_9allocatorIS4_EEEC2ES5_S8_
FN:2348,_ZNSt3__117__compressed_pairIPN5Catch3PtrINS1_22CumulativeReporterBase4NodeINS1_14TestGroupStatsENS4_INS1_13TestCaseStatsENS3_11SectionNodeEEEEEEERNS_9allocatorISA_EEEC1ESB_SE_
FN:2348,_ZNSt3__117__compressed_pairImNS_19__map_value_compareINS_12basic_stringIcNS_11char_traitsIcEENS_9allocatorIcEEEENS_12__value_typeIS7_PN5Catch14IGeneratorInfoEEENS_4lessIS7_EELb1EEEEC1EmSF_
FN:2348,_ZNSt3__117__compressed_pairIPNS_12basic_stringIcNS_11char_traitsIcEENS_9allocatorIcEEEERNS4_IS6_EEEC2ES7_S9_
FN:2348,_ZNSt3__117__compressed_pairIPN5Catch3PtrINS1_22CumulativeReporterBase4NodeINS1_13TestCaseStatsENS3_11SectionNodeEEEEERNS_9allocatorIS8_EEEC1ES9_SC_
FN:2348,_ZNSt3__117__compressed_pairIPN5Catch3PtrINS1_22CumulativeReporterBase11SectionNodeEEERNS_9allocatorIS5_EEEC2ES6_S9_
FN:2348,_ZNSt3__117__compressed_pairIPN5Catch8TestSpec6FilterENS_9allocatorIS3_EEEC1ES4_S6_
FN:2348,_ZNSt3__117__compressed_pairImNS_19__map_value_compareINS_12basic_stringIcNS_11char_traitsIcEENS_9allocatorIcEEEENS_12__value_typeIS7_N5Catch3PtrINS9_16IReporterFactoryEEEEENS_4lessIS7_EELb1EEEEC2EmSG_
FN:2348,_ZNSt3__117__compressed_pairIPN5Catch5Clara11CommandLineINS1_10ConfigDataEE3ArgERNS_9allocatorIS6_EEEC1ES7_SA_
FN:2348,_ZNSt3__117__compressed_pairImNS_19__map_value_compareINS_12basic_stringIcNS_11char_traitsIcEENS_9allocatorIcEEEENS_12__value_typeIS7_N5Catch8TagAliasEEENS_4lessIS7_EELb1EEEEC2EmSE_
FN:2348,_ZNSt3__117__compressed_pairIPN5Catch3PtrINS1_16TestCaseTracking8ITrackerEEERNS_9allocatorIS5_EEEC1ES6_S9_
FN:2348,_ZNSt3__117__compressed_pairIPNS_11__tree_nodeINS_12__value_typeINS_12basic_stringIcNS_11char_traitsIcEENS_9allocatorIcEEEEN5Catch7TagInfoEEEPvEENS_22__tree_node_destructorINS6_ISD_EEEEEC1ESE_SH_
FN:2348,_ZNSt3__117__compressed_pairIPN5Catch3PtrINS1_16TestCaseTracking8ITrackerEEERNS_9allocatorIS5_EEEC2ES6_S9_
FN:2348,_ZNSt3__117__compressed_pairIPNS_12basic_stringIcNS_11char_traitsIcEENS_9allocatorIcEEEENS4_IS6_EEEC2ES7_S8_
FN:2348,_ZNSt3__117__compressed_pairIPN5Catch3PtrINS1_18IStreamingReporterEEERNS_9allocatorIS4_EEEC2ES5_S8_
FN:2348,_ZNSt3__117__compressed_pairIPNS_11__tree_nodeINS_12__value_typeINS_12basic_stringIcNS_11char_traitsIcEENS_9allocatorIcEEEEPN5Catch14IGeneratorInfoEEEPvEENS_22__tree_node_destructorINS6_ISE_EEEEEC1ESF_SI_
FN:2348,_ZNSt3__117__compressed_pairIPN5Catch11MessageInfoERNS_9allocatorIS2_EEEC1ES3_S6_
FN:2348,_ZNSt3__117__compressed_pairIPN5Catch3PtrINS1_16IReporterFactoryEEERNS_9allocatorIS4_EEEC1ES5_S8_
FN:2348,_ZNSt3__117__compressed_pairIPNS_12basic_stringIcNS_11char_traitsIcEENS_9allocatorIcEEEERNS4_IS6_EEEC1ES7_S9_
FN:2348,_ZNSt3__117__compressed_pairIPN5Catch14SectionEndInfoERNS_9allocatorIS2_EEEC2ES3_S6_
FN:2348,_ZNSt3__117__compressed_pairIPPN5Catch14IGeneratorInfoERNS_9allocatorIS3_EEEC2ES4_S7_
FN:2348,_ZNSt3__117__compressed_pairIPNS_11__tree_nodeINS_12__value_typeINS_12basic_stringIcNS_11char_traitsIcEENS_9allocatorIcEEEEPN5Catch14IGeneratorInfoEEEPvEENS_22__tree_node_destructorINS6_ISE_EEEEEC2ESF_SI_
FN:2348,_ZNSt3__117__compressed_pairIPNS_11__tree_nodeINS_12__value_typeINS_12basic_stringIcNS_11char_traitsIcEENS_9allocatorIcEEEEN5Catch3PtrINS9_16IReporterFactoryEEEEEPvEENS_22__tree_node_destructorINS6_ISF_EEEEEC1ESG_SJ_
FN:2348,_ZNSt3__117__compressed_pairIPN5Catch5Clara6Parser5TokenERNS_9allocatorIS4_EEEC1ES5_S8_
FN:2348,_ZNSt3__117__compressed_pairIPN5Catch11SectionInfoERNS_9allocatorIS2_EEEC1ES3_S6_
FN:2348,_ZNSt3__117__compressed_pairIPN5Catch3PtrINS1_22CumulativeReporterBase4NodeINS1_12TestRunStatsENS4_INS1_14TestGroupStatsENS4_INS1_13TestCaseStatsENS3_11SectionNodeEEEEEEEEERNS_9allocatorISC_EEEC1ESD_SG_
FN:2348,_ZNSt3__117__compressed_pairIPN5Catch3PtrINS1_8TestSpec7PatternEEENS_9allocatorIS5_EEEC1ES6_S8_
FN:2348,_ZNSt3__117__compressed_pairIPPN5Catch16TestCaseTracking8ITrackerERNS_9allocatorIS4_EEEC1ES5_S8_
FN:2348,_ZNSt3__117__compressed_pairIPN5Catch8TestSpec6FilterENS_9allocatorIS3_EEEC2ES4_S6_
FN:2348,_ZNSt3__117__compressed_pairIPNS_11__tree_nodeINS_12__value_typeINS_12basic_stringIcNS_11char_traitsIcEENS_9allocatorIcEEEEPN5Catch18IGeneratorsForTestEEEPvEENS_22__tree_node_destructorINS6_ISE_EEEEEC1ESF_SI_
FN:2348,_ZNSt3__117__compressed_pairIP7__sFILEPFiS2_EEC2ES2_S4_
FN:2348,_ZNSt3__117__compressed_pairIPNS_11__tree_nodeINS_12__value_typeINS_12basic_stringIcNS_11char_traitsIcEENS_9allocatorIcEEEEN5Catch3PtrINS9_16IReporterFactoryEEEEEPvEENS_22__tree_node_destructorINS6_ISF_EEEEEC2ESG_SJ_
FN:2348,_ZNSt3__117__compressed_pairIPN5Catch3PtrINS1_16IReporterFactoryEEENS_9allocatorIS4_EEEC1ES5_S7_
FN:2348,_ZNSt3__117__compressed_pairIPNS_11__tree_nodeINS_12__value_typeINS_12basic_stringIcNS_11char_traitsIcEENS_9allocatorIcEEEEN5Catch8TagAliasEEEPvEENS_22__tree_node_destructorINS6_ISD_EEEEEC1ESE_SH_
FN:2348,_ZNSt3__117__compressed_pairImNS_19__map_value_compareINS_12basic_stringIcNS_11char_traitsIcEENS_9allocatorIcEEEENS_12__value_typeIS7_N5Catch8TagAliasEEENS_4lessIS7_EELb1EEEEC1EmSE_
FN:2348,_ZNSt3__117__compressed_pairImNS_19__map_value_compareINS_12basic_stringIcNS_11char_traitsIcEENS_9allocatorIcEEEENS_12__value_typeIS7_PN5Catch14IGeneratorInfoEEENS_4lessIS7_EELb1EEEEC2EmSF_
FN:2348,_ZNSt3__117__compressed_pairIPNS_11__tree_nodeINS_12basic_stringIcNS_11char_traitsIcEENS_9allocatorIcEEEEPvEENS_22__tree_node_destructorINS5_IS9_EEEEEC2ESA_SD_
FN:2348,_ZNSt3__117__compressed_pairIPNS_12basic_stringIcNS_11char_traitsIcEENS_9allocatorIcEEEENS4_IS6_EEEC1ES7_S8_
FN:2348,_ZNSt3__117__compressed_pairImNS_19__map_value_compareINS_12basic_stringIcNS_11char_traitsIcEENS_9allocatorIcEEEENS_12__value_typeIS7_PN5Catch18IGeneratorsForTestEEENS_4lessIS7_EELb1EEEEC2EmSF_
FN:2348,_ZNSt3__117__compressed_pairIPN5Catch14SectionEndInfoERNS_9allocatorIS2_EEEC1ES3_S6_
FN:2348,_ZNSt3__117__compressed_pairIPN5Catch8TestCaseENS_9allocatorIS2_EEEC2ES3_S5_
FN:2348,_ZNSt3__117__compressed_pairImNS_4lessINS_12basic_stringIcNS_11char_traitsIcEENS_9allocatorIcEEEEEEEC1EmS8_
FN:2348,_ZNSt3__117__compressed_pairIPN5Catch11MessageInfoENS_9allocatorIS2_EEEC1ES3_S5_
FN:2348,_ZNSt3__117__compressed_pairIPN5Catch8TestSpec6FilterERNS_9allocatorIS3_EEEC2ES4_S7_
FN:2348,_ZNSt3__117__compressed_pairIPN5Catch15ConsoleReporter13SummaryColumnERNS_9allocatorIS3_EEEC2ES4_S7_
FN:2348,_ZNSt3__117__compressed_pairIPN5Catch8TestSpec6FilterERNS_9allocatorIS3_EEEC1ES4_S7_
FN:2348,_ZNSt3__117__compressed_pairImNS_4lessIN5Catch8TestCaseEEEEC2EmS4_
FN:2348,_ZNSt3__117__compressed_pairIPNS_11__tree_nodeINS_12__value_typeINS_12basic_stringIcNS_11char_traitsIcEENS_9allocatorIcEEEEN5Catch8TagAliasEEEPvEENS_22__tree_node_destructorINS6_ISD_EEEEEC2ESE_SH_
FN:2348,_ZNSt3__117__compressed_pairIPN5Catch3PtrINS1_8TestSpec7PatternEEERNS_9allocatorIS5_EEEC1ES6_S9_
FN:2348,_ZNSt3__117__compressed_pairImNS_19__map_value_compareIiNS_12__value_typeIiN5Catch5Clara11CommandLineINS3_10ConfigDataEE3ArgEEENS_4lessIiEELb1EEEEC2EmSC_
FN:2348,_ZNSt3__117__compressed_pairImNS_4lessIN5Catch8TestCaseEEEEC1EmS4_
FN:2348,_ZNSt3__117__compressed_pairIPN5Catch11MessageInfoENS_9allocatorIS2_EEEC2ES3_S5_
FN:2348,_ZNSt3__117__compressed_pairIP7__sFILEPFiS2_EEC1ES2_S4_
FN:2348,_ZNSt3__117__compressed_pairIPN5Catch3PtrINS1_22CumulativeReporterBase4NodeINS1_13TestCaseStatsENS3_11SectionNodeEEEEERNS_9allocatorIS8_EEEC2ES9_SC_
FN:2348,_ZNSt3__117__compressed_pairIPN5Catch8TestCaseERNS_9allocatorIS2_EEEC2ES3_S6_
FN:2348,_ZNSt3__117__compressed_pairIPN5Catch11SectionInfoERNS_9allocatorIS2_EEEC2ES3_S6_
FN:2348,_ZNSt3__117__compressed_pairIPNS_11__tree_nodeINS_12basic_stringIcNS_11char_traitsIcEENS_9allocatorIcEEEEPvEENS_22__tree_node_destructorINS5_IS9_EEEEEC1ESA_SD_
FN:2348,_ZNSt3__117__compressed_pairImNS_19__map_value_compareIiNS_12__value_typeIiN5Catch5Clara11CommandLineINS3_10ConfigDataEE3ArgEEENS_4lessIiEELb1EEEEC1EmSC_
FN:2348,_ZNSt3__117__compressed_pairIPN5Catch14AssertionStatsERNS_9allocatorIS2_EEEC1ES3_S6_
FN:2348,_ZNSt3__117__compressed_pairIPN5Catch3PtrINS1_8TestSpec7PatternEEENS_9allocatorIS5_EEEC2ES6_S8_
FN:2348,_ZNSt3__117__compressed_pairIPPN5Catch16TestCaseTracking8ITrackerERNS_9allocatorIS4_EEEC2ES5_S8_
FN:2348,_ZNSt3__117__compressed_pairIPNS_11__tree_nodeINS_12__value_typeINS_12basic_stringIcNS_11char_traitsIcEENS_9allocatorIcEEEEPN5Catch18IGeneratorsForTestEEEPvEENS_22__tree_node_destructorINS6_ISE_EEEEEC2ESF_SI_
FN:2348,_ZNSt3__117__compressed_pairIPN5Catch15ConsoleReporter13SummaryColumnERNS_9allocatorIS3_EEEC1ES4_S7_
FN:2348,_ZNSt3__117__compressed_pairIPN5Catch5Clara11CommandLineINS1_10ConfigDataEE3ArgERNS_9allocatorIS6_EEEC2ES7_SA_
FN:2348,_ZNSt3__117__compressed_pairIPN5Catch3PtrINS1_16IReporterFactoryEEERNS_9allocatorIS4_EEEC2ES5_S8_
FN:2348,_ZNSt3__117__compressed_pairIPNS_11__tree_nodeIN5Catch8TestCaseEPvEENS_22__tree_node_destructorINS_9allocatorIS5_EEEEEC1ES6_SA_
FN:2348,_ZNSt3__117__compressed_pairIPN5Catch14AssertionStatsERNS_9allocatorIS2_EEEC2ES3_S6_
FN:2348,_ZNSt3__117__compressed_pairIPN5Catch3PtrINS1_22CumulativeReporterBase4NodeINS1_12TestRunStatsENS4_INS1_14TestGroupStatsENS4_INS1_13TestCaseStatsENS3_11SectionNodeEEEEEEEEERNS_9allocatorISC_EEEC2ESD_SG_
FN:2348,_ZNSt3__117__compressed_pairIPPKN5Catch20IExceptionTranslatorERNS_9allocatorIS4_EEEC2ES5_S8_
FN:2348,_ZNSt3__117__compressed_pairIPN5Catch5Clara6Parser5TokenENS_9allocatorIS4_EEEC2ES5_S7_
FN:2348,_ZNSt3__117__compressed_pairImNS_19__map_value_compareINS_12basic_stringIcNS_11char_traitsIcEENS_9allocatorIcEEEENS_12__value_typeIS7_N5Catch7TagInfoEEENS_4lessIS7_EELb1EEEEC1EmSE_
FN:2348,_ZNSt3__117__compressed_pairImNS_19__map_value_compareINS_12basic_stringIcNS_11char_traitsIcEENS_9allocatorIcEEEENS_12__value_typeIS7_PN5Catch18IGeneratorsForTestEEENS_4lessIS7_EELb1EEEEC1EmSF_
FN:2348,_ZNSt3__117__compressed_pairIPN5Catch3PtrINS1_18IStreamingReporterEEERNS_9allocatorIS4_EEEC1ES5_S8_
FN:2348,_ZNSt3__117__compressed_pairIPN5Catch5Clara6Parser5TokenENS_9allocatorIS4_EEEC1ES5_S7_
FN:2348,_ZNSt3__117__compressed_pairIPN5Catch11MessageInfoERNS_9allocatorIS2_EEEC2ES3_S6_
FN:2348,_ZNSt3__117__compressed_pairIPN5Catch3PtrINS1_22CumulativeReporterBase11SectionNodeEEERNS_9allocatorIS5_EEEC1ES6_S9_
FN:2348,_ZNSt3__117__compressed_pairIPN5Catch8TestCaseENS_9allocatorIS2_EEEC1ES3_S5_
FN:2348,_ZNSt3__117__compressed_pairIPN5Catch3PtrINS1_8Matchers4Impl7MatcherINS_12basic_stringIcNS_11char_traitsIcEENS_9allocatorIcEEEEEEEENS9_ISD_EEEC1ESE_SF_
FN:2398,_ZNSt3__117__compressed_pairIPNS_11__tree_nodeINS_12__value_typeINS_12basic_stringIcNS_11char_traitsIcEENS_9allocatorIcEEEEPN5Catch18IGeneratorsForTestEEEPvEENS_22__tree_node_destructorINS6_ISE_EEEEE5firstEv
FN:2398,_ZNSt3__117__compressed_pairIPN5Catch14SectionEndInfoENS_9allocatorIS2_EEE5firstEv
FN:2398,_ZNSt3__117__compressed_pairINS_15__tree_end_nodeIPNS_16__tree_node_baseIPvEEEENS_9allocatorINS_11__tree_nodeINS_12__value_typeINS_12basic_stringIcNS_11char_traitsIcEENS7_IcEEEEPN5Catch18IGeneratorsForTestEEES3_EEEEE5firstEv
FN:2398,_ZNSt3__117__compressed_pairIPN5Catch15ConsoleReporter13SummaryColumnENS_9allocatorIS3_EEE5firstEv
FN:2398,_ZNSt3__117__compressed_pairINS_15__tree_end_nodeIPNS_16__tree_node_baseIPvEEEENS_9allocatorINS_11__tree_nodeINS_12__value_typeINS_12basic_stringIcNS_11char_traitsIcEENS7_IcEEEEN5Catch3PtrINSF_16IReporterFactoryEEEEES3_EEEEE5firstEv
FN:2398,_ZNSt3__117__compressed_pairIPPN5Catch14IGeneratorInfoENS_9allocatorIS3_EEE5firstEv
FN:2398,_ZNSt3__117__compressed_pairIPN5Catch3PtrINS1_8TestSpec7PatternEEENS_9allocatorIS5_EEE5firstEv
FN:2398,_ZNSt3__117__compressed_pairIPN5Catch14SectionEndInfoERNS_9allocatorIS2_EEE5firstEv
FN:2398,_ZNSt3__117__compressed_pairIPNS_11__tree_nodeINS_12__value_typeINS_12basic_stringIcNS_11char_traitsIcEENS_9allocatorIcEEEEN5Catch8TagAliasEEEPvEENS_22__tree_node_destructorINS6_ISD_EEEEE5firstEv
FN:2398,_ZNSt3__117__compressed_pairIPN5Catch11SectionInfoENS_9allocatorIS2_EEE5firstEv
FN:2398,_ZNSt3__117__compressed_pairIPN5Catch3PtrINS1_22CumulativeReporterBase11SectionNodeEEERNS_9allocatorIS5_EEE5firstEv
FN:2398,_ZNSt3__117__compressed_pairIPN5Catch3PtrINS1_22CumulativeReporterBase4NodeINS1_14TestGroupStatsENS4_INS1_13TestCaseStatsENS3_11SectionNodeEEEEEEERNS_9allocatorISA_EEE5firstEv
FN:2398,_ZNSt3__117__compressed_pairIPN5Catch3PtrINS1_22CumulativeReporterBase4NodeINS1_12TestRunStatsENS4_INS1_14TestGroupStatsENS4_INS1_13TestCaseStatsENS3_11SectionNodeEEEEEEEEERNS_9allocatorISC_EEE5firstEv
FN:2398,_ZNSt3__117__compressed_pairIPNS_11__tree_nodeINS_12__value_typeINS_12basic_stringIcNS_11char_traitsIcEENS_9allocatorIcEEEEPN5Catch14IGeneratorInfoEEEPvEENS_22__tree_node_destructorINS6_ISE_EEEEE5firstEv
FN:2398,_ZNSt3__117__compressed_pairIPN5Catch3PtrINS1_8Matchers4Impl7MatcherINS_12basic_stringIcNS_11char_traitsIcEENS_9allocatorIcEEEEEEEENS9_ISD_EEE5firstEv
FN:2398,_ZNSt3__117__compressed_pairIPN5Catch11MessageInfoERNS_9allocatorIS2_EEE5firstEv
FN:2398,_ZNSt3__117__compressed_pairImNS_19__map_value_compareINS_12basic_stringIcNS_11char_traitsIcEENS_9allocatorIcEEEENS_12__value_typeIS7_PN5Catch14IGeneratorInfoEEENS_4lessIS7_EELb1EEEE5firstEv
FN:2398,_ZNSt3__117__compressed_pairIPPN5Catch16TestCaseTracking8ITrackerERNS_9allocatorIS4_EEE5firstEv
FN:2398,_ZNSt3__117__compressed_pairIPNS_11__tree_nodeINS_12__value_typeINS_12basic_stringIcNS_11char_traitsIcEENS_9allocatorIcEEEEN5Catch3PtrINS9_16IReporterFactoryEEEEEPvEENS_22__tree_node_destructorINS6_ISF_EEEEE5firstEv
FN:2398,_ZNSt3__117__compressed_pairIPN5Catch3PtrINS1_22CumulativeReporterBase11SectionNodeEEENS_9allocatorIS5_EEE5firstEv
FN:2398,_ZNSt3__117__compressed_pairIPN5Catch5Clara6Parser5TokenERNS_9allocatorIS4_EEE5firstEv
FN:2398,_ZNSt3__117__compressed_pairINS_15__tree_end_nodeIPNS_16__tree_node_baseIPvEEEENS_9allocatorINS_11__tree_nodeINS_12__value_typeINS_12basic_stringIcNS_11char_traitsIcEENS7_IcEEEEN5Catch7TagInfoEEES3_EEEEE5firstEv
FN:2398,_ZNSt3__117__compressed_pairIPN5Catch3PtrINS1_16TestCaseTracking8ITrackerEEENS_9allocatorIS5_EEE5firstEv
FN:2398,_ZNSt3__117__compressed_pairIPPN5Catch14IGeneratorInfoERNS_9allocatorIS3_EEE5firstEv
FN:2398,_ZNSt3__117__compressed_pairIPNS_11__tree_nodeINS_12basic_stringIcNS_11char_traitsIcEENS_9allocatorIcEEEEPvEENS_22__tree_node_destructorINS5_IS9_EEEEE5firstEv
FN:2398,_ZNSt3__117__compressed_pairIPN5Catch5Clara11CommandLineINS1_10ConfigDataEE3ArgENS_9allocatorIS6_EEE5firstEv
FN:2398,_ZNSt3__117__compressed_pairIPPN5Catch16TestCaseTracking8ITrackerENS_9allocatorIS4_EEE5firstEv
FN:2398,_ZNSt3__117__compressed_pairIPN5Catch3PtrINS1_16IReporterFactoryEEENS_9allocatorIS4_EEE5firstEv
FN:2398,_ZNSt3__117__compressed_pairImNS_19__map_value_compareINS_12basic_stringIcNS_11char_traitsIcEENS_9allocatorIcEEEENS_12__value_typeIS7_PN5Catch18IGeneratorsForTestEEENS_4lessIS7_EELb1EEEE5firstEv
FN:2398,_ZNSt3__117__compressed_pairIPN5Catch15ConsoleReporter13SummaryColumnERNS_9allocatorIS3_EEE5firstEv
FN:2398,_ZNSt3__117__compressed_pairIPN5Catch5Clara11CommandLineINS1_10ConfigDataEE3ArgENS_14default_deleteIS6_EEE5firstEv
FN:2398,_ZNSt3__117__compressed_pairIPN5Catch3PtrINS1_18IStreamingReporterEEERNS_9allocatorIS4_EEE5firstEv
FN:2398,_ZNSt3__117__compressed_pairIPN5Catch11MessageInfoENS_9allocatorIS2_EEE5firstEv
FN:2398,_ZNSt3__117__compressed_pairIPN5Catch14AssertionStatsENS_9allocatorIS2_EEE5firstEv
FN:2398,_ZNSt3__117__compressed_pairIPN5Catch3PtrINS1_8TestSpec7PatternEEERNS_9allocatorIS5_EEE5firstEv
FN:2398,_ZNSt3__117__compressed_pairIPPKN5Catch20IExceptionTranslatorENS_9allocatorIS4_EEE5firstEv
FN:2398,_ZNSt3__117__compressed_pairIPN5Catch3PtrINS1_22CumulativeReporterBase4NodeINS1_14TestGroupStatsENS4_INS1_13TestCaseStatsENS3_11SectionNodeEEEEEEENS_9allocatorISA_EEE5firstEv
FN:2398,_ZNSt3__117__compressed_pairINS_15__tree_end_nodeIPNS_16__tree_node_baseIPvEEEENS_9allocatorINS_11__tree_nodeINS_12basic_stringIcNS_11char_traitsIcEENS7_IcEEEES3_EEEEE5firstEv
FN:2398,_ZNSt3__117__compressed_pairIPN5Catch8TestCaseERNS_9allocatorIS2_EEE5firstEv
FN:2398,_ZNSt3__117__compressed_pairIPN5Catch3PtrINS1_16IReporterFactoryEEERNS_9allocatorIS4_EEE5firstEv
FN:2398,_ZNSt3__117__compressed_pairIPN5Catch3PtrINS1_22CumulativeReporterBase4NodeINS1_13TestCaseStatsENS3_11SectionNodeEEEEENS_9allocatorIS8_EEE5firstEv
FN:2398,_ZNSt3__117__compressed_pairIPN5Catch3PtrINS1_22CumulativeReporterBase4NodeINS1_12TestRunStatsENS4_INS1_14TestGroupStatsENS4_INS1_13TestCaseStatsENS3_11SectionNodeEEEEEEEEENS_9allocatorISC_EEE5firstEv
FN:2398,_ZNSt3__117__compressed_pairIPNS_12basic_stringIcNS_11char_traitsIcEENS_9allocatorIcEEEENS4_IS6_EEE5firstEv
FN:2398,_ZNSt3__117__compressed_pairINS_15__tree_end_nodeIPNS_16__tree_node_baseIPvEEEENS_9allocatorINS_11__tree_nodeIN5Catch8TestCaseES3_EEEEE5firstEv
FN:2398,_ZNSt3__117__compressed_pairINS_15__tree_end_nodeIPNS_16__tree_node_baseIPvEEEENS_9allocatorINS_11__tree_nodeINS_12__value_typeIiN5Catch5Clara11CommandLineINSA_10ConfigDataEE3ArgEEES3_EEEEE5firstEv
FN:2398,_ZNSt3__117__compressed_pairIPN5Catch11SectionInfoERNS_9allocatorIS2_EEE5firstEv
FN:2398,_ZNSt3__117__compressed_pairImNS_4lessIN5Catch8TestCaseEEEE5firstEv
FN:2398,_ZNSt3__117__compressed_pairIPN5Catch3PtrINS1_22CumulativeReporterBase4NodeINS1_13TestCaseStatsENS3_11SectionNodeEEEEERNS_9allocatorIS8_EEE5firstEv
FN:2398,_ZNSt3__117__compressed_pairIPN5Catch8TestCaseENS_9allocatorIS2_EEE5firstEv
FN:2398,_ZNSt3__117__compressed_pairINS_12basic_stringIcNS_11char_traitsIcEENS_9allocatorIcEEE5__repES5_E5firstEv
FN:2398,_ZNSt3__117__compressed_pairImNS_19__map_value_compareINS_12basic_stringIcNS_11char_traitsIcEENS_9allocatorIcEEEENS_12__value_typeIS7_N5Catch7TagInfoEEENS_4lessIS7_EELb1EEEE5firstEv
FN:2398,_ZNSt3__117__compressed_pairIPN5Catch3PtrINS1_16TestCaseTracking8ITrackerEEERNS_9allocatorIS5_EEE5firstEv
FN:2398,_ZNSt3__117__compressed_pairIPNS_11__tree_nodeINS_12__value_typeINS_12basic_stringIcNS_11char_traitsIcEENS_9allocatorIcEEEEN5Catch7TagInfoEEEPvEENS_22__tree_node_destructorINS6_ISD_EEEEE5firstEv
FN:2398,_ZNSt3__117__compressed_pairIPPKN5Catch20IExceptionTranslatorERNS_9allocatorIS4_EEE5firstEv
FN:2398,_ZNSt3__117__compressed_pairImNS_19__map_value_compareINS_12basic_stringIcNS_11char_traitsIcEENS_9allocatorIcEEEENS_12__value_typeIS7_N5Catch8TagAliasEEENS_4lessIS7_EELb1EEEE5firstEv
FN:2398,_ZNSt3__117__compressed_pairIPN5Catch3PtrINS1_18IStreamingReporterEEENS_9allocatorIS4_EEE5firstEv
FN:2398,_ZNSt3__117__compressed_pairIPNS_11__tree_nodeIN5Catch8TestCaseEPvEENS_22__tree_node_destructorINS_9allocatorIS5_EEEEE5firstEv
FN:2398,_ZNSt3__117__compressed_pairIPNS_12basic_stringIcNS_11char_traitsIcEENS_9allocatorIcEEEERNS4_IS6_EEE5firstEv
FN:2398,_ZNSt3__117__compressed_pairIPN5Catch8TestSpec6FilterERNS_9allocatorIS3_EEE5firstEv
FN:2398,_ZNSt3__117__compressed_pairImNS_4lessINS_12basic_stringIcNS_11char_traitsIcEENS_9allocatorIcEEEEEEE5firstEv
FN:2398,_ZNSt3__117__compressed_pairINS_15__tree_end_nodeIPNS_16__tree_node_baseIPvEEEENS_9allocatorINS_11__tree_nodeINS_12__value_typeINS_12basic_stringIcNS_11char_traitsIcEENS7_IcEEEEN5Catch8TagAliasEEES3_EEEEE5firstEv
FN:2398,_ZNSt3__117__compressed_pairIPN5Catch5Clara11CommandLineINS1_10ConfigDataEE3ArgERNS_9allocatorIS6_EEE5firstEv
FN:2398,_ZNSt3__117__compressed_pairIPN5Catch14AssertionStatsERNS_9allocatorIS2_EEE5firstEv
FN:2398,_ZNSt3__117__compressed_pairIPN5Catch5Clara6Parser5TokenENS_9allocatorIS4_EEE5firstEv
FN:2398,_ZNSt3__117__compressed_pairINS_15__tree_end_nodeIPNS_16__tree_node_baseIPvEEEENS_9allocatorINS_11__tree_nodeINS_12__value_typeINS_12basic_stringIcNS_11char_traitsIcEENS7_IcEEEEPN5Catch14IGeneratorInfoEEES3_EEEEE5firstEv
FN:2398,_ZNSt3__117__compressed_pairIP7__sFILEPFiS2_EE5firstEv
FN:2398,_ZNSt3__117__compressed_pairIPN5Catch8TestSpec6FilterENS_9allocatorIS3_EEE5firstEv
FN:2398,_ZNSt3__117__compressed_pairImNS_19__map_value_compareINS_12basic_stringIcNS_11char_traitsIcEENS_9allocatorIcEEEENS_12__value_typeIS7_N5Catch3PtrINS9_16IReporterFactoryEEEEENS_4lessIS7_EELb1EEEE5firstEv
FN:2399,_ZNKSt3__117__compressed_pairINS_15__tree_end_nodeIPNS_16__tree_node_baseIPvEEEENS_9allocatorINS_11__tree_nodeINS_12__value_typeINS_12basic_stringIcNS_11char_traitsIcEENS7_IcEEEEN5Catch8TagAliasEEES3_EEEEE5firstEv
FN:2399,_ZNKSt3__117__compressed_pairIPN5Catch3PtrINS1_22CumulativeReporterBase4NodeINS1_13TestCaseStatsENS3_11SectionNodeEEEEERNS_9allocatorIS8_EEE5firstEv
FN:2399,_ZNKSt3__117__compressed_pairINS_15__tree_end_nodeIPNS_16__tree_node_baseIPvEEEENS_9allocatorINS_11__tree_nodeINS_12basic_stringIcNS_11char_traitsIcEENS7_IcEEEES3_EEEEE5firstEv
FN:2399,_ZNKSt3__117__compressed_pairIPN5Catch3PtrINS1_18IStreamingReporterEEENS_9allocatorIS4_EEE5firstEv
FN:2399,_ZNKSt3__117__compressed_pairIPN5Catch3PtrINS1_22CumulativeReporterBase4NodeINS1_13TestCaseStatsENS3_11SectionNodeEEEEENS_9allocatorIS8_EEE5firstEv
FN:2399,_ZNKSt3__117__compressed_pairIPN5Catch3PtrINS1_22CumulativeReporterBase4NodeINS1_14TestGroupStatsENS4_INS1_13TestCaseStatsENS3_11SectionNodeEEEEEEERNS_9allocatorISA_EEE5firstEv
FN:2399,_ZNKSt3__117__compressed_pairIPN5Catch3PtrINS1_16TestCaseTracking8ITrackerEEERNS_9allocatorIS5_EEE5firstEv
FN:2399,_ZNKSt3__117__compressed_pairIPN5Catch14AssertionStatsENS_9allocatorIS2_EEE5firstEv
FN:2399,_ZNKSt3__117__compressed_pairIPPN5Catch14IGeneratorInfoERNS_9allocatorIS3_EEE5firstEv
FN:2399,_ZNKSt3__117__compressed_pairIPNS_6vectorIN5Catch3PtrINS2_22CumulativeReporterBase11SectionNodeEEENS_9allocatorIS6_EEEENS7_IS9_EEE5firstEv
FN:2399,_ZNKSt3__117__compressed_pairIPNS_11__tree_nodeINS_12__value_typeINS_12basic_stringIcNS_11char_traitsIcEENS_9allocatorIcEEEEN5Catch3PtrINS9_16IReporterFactoryEEEEEPvEENS_22__tree_node_destructorINS6_ISF_EEEEE5firstEv
FN:2399,_ZNKSt3__117__compressed_pairIPN5Catch3PtrINS1_22CumulativeReporterBase11SectionNodeEEENS_9allocatorIS5_EEE5firstEv
FN:2399,_ZNKSt3__117__compressed_pairIPN5Catch8TestSpec6FilterERNS_9allocatorIS3_EEE5firstEv
FN:2399,_ZNKSt3__117__compressed_pairIPNS_11__tree_nodeINS_12__value_typeINS_12basic_stringIcNS_11char_traitsIcEENS_9allocatorIcEEEEPN5Catch14IGeneratorInfoEEEPvEENS_22__tree_node_destructorINS6_ISE_EEEEE5firstEv
FN:2399,_ZNKSt3__117__compressed_pairImNS_19__map_value_compareINS_12basic_stringIcNS_11char_traitsIcEENS_9allocatorIcEEEENS_12__value_typeIS7_N5Catch3PtrINS9_16IReporterFactoryEEEEENS_4lessIS7_EELb1EEEE5firstEv
FN:2399,_ZNKSt3__117__compressed_pairIPN5Catch3PtrINS1_22CumulativeReporterBase11SectionNodeEEERNS_9allocatorIS5_EEE5firstEv
FN:2399,_ZNKSt3__117__compressed_pairIPN5Catch8TestCaseENS_9allocatorIS2_EEE5firstEv
FN:2399,_ZNKSt3__117__compressed_pairIPN5Catch5Clara11CommandLineINS1_10ConfigDataEE3ArgERNS_9allocatorIS6_EEE5firstEv
FN:2399,_ZNKSt3__117__compressed_pairIPN5Catch3PtrINS1_16IReporterFactoryEEENS_9allocatorIS4_EEE5firstEv
FN:2399,_ZNKSt3__117__compressed_pairIPN5Catch3PtrINS1_16TestCaseTracking8ITrackerEEENS_9allocatorIS5_EEE5firstEv
FN:2399,_ZNKSt3__117__compressed_pairIPN5Catch15ConsoleReporter13SummaryColumnENS_9allocatorIS3_EEE5firstEv
FN:2399,_ZNKSt3__117__compressed_pairIPN5Catch3PtrINS1_22CumulativeReporterBase4NodeINS1_14TestGroupStatsENS4_INS1_13TestCaseStatsENS3_11SectionNodeEEEEEEENS_9allocatorISA_EEE5firstEv
FN:2399,_ZNKSt3__117__compressed_pairImNS_19__map_value_compareINS_12basic_stringIcNS_11char_traitsIcEENS_9allocatorIcEEEENS_12__value_typeIS7_N5Catch7TagInfoEEENS_4lessIS7_EELb1EEEE5firstEv
FN:2399,_ZNKSt3__117__compressed_pairINS_15__tree_end_nodeIPNS_16__tree_node_baseIPvEEEENS_9allocatorINS_11__tree_nodeINS_12__value_typeIiN5Catch5Clara11CommandLineINSA_10ConfigDataEE3ArgEEES3_EEEEE5firstEv
FN:2399,_ZNKSt3__117__compressed_pairIPPKN5Catch20IExceptionTranslatorENS_9allocatorIS4_EEE5firstEv
FN:2399,_ZNKSt3__117__compressed_pairIPN5Catch3PtrINS1_8TestSpec7PatternEEERNS_9allocatorIS5_EEE5firstEv
FN:2399,_ZNKSt3__117__compressed_pairIPN5Catch3PtrINS1_8TestSpec7PatternEEENS_9allocatorIS5_EEE5firstEv
FN:2399,_ZNKSt3__117__compressed_pairIPNS_11__tree_nodeINS_12__value_typeINS_12basic_stringIcNS_11char_traitsIcEENS_9allocatorIcEEEEN5Catch8TagAliasEEEPvEENS_22__tree_node_destructorINS6_ISD_EEEEE5firstEv
FN:2399,_ZNKSt3__117__compressed_pairIPN5Catch14AssertionStatsERNS_9allocatorIS2_EEE5firstEv
FN:2399,_ZNKSt3__117__compressed_pairIPN5Catch5Clara11CommandLineINS1_10ConfigDataEE3ArgENS_14default_deleteIS6_EEE5firstEv
FN:2399,_ZNKSt3__117__compressed_pairIPN5Catch11MessageInfoERNS_9allocatorIS2_EEE5firstEv
FN:2399,_ZNKSt3__117__compressed_pairIPN5Catch14SectionEndInfoENS_9allocatorIS2_EEE5firstEv
FN:2399,_ZNKSt3__117__compressed_pairIPN5Catch3PtrINS1_16IReporterFactoryEEERNS_9allocatorIS4_EEE5firstEv
FN:2399,_ZNKSt3__117__compressed_pairIPN5Catch3PtrINS1_22CumulativeReporterBase4NodeINS1_12TestRunStatsENS4_INS1_14TestGroupStatsENS4_INS1_13TestCaseStatsENS3_11SectionNodeEEEEEEEEERNS_9allocatorISC_EEE5firstEv
FN:2399,_ZNKSt3__117__compressed_pairINS_12basic_stringIwNS_11char_traitsIwEENS_9allocatorIwEEE5__repES5_E5firstEv
FN:2399,_ZNKSt3__117__compressed_pairIPNS_11__tree_nodeINS_12__value_typeINS_12basic_stringIcNS_11char_traitsIcEENS_9allocatorIcEEEEN5Catch7TagInfoEEEPvEENS_22__tree_node_destructorINS6_ISD_EEEEE5firstEv
FN:2399,_ZNKSt3__117__compressed_pairIPN5Catch8TestSpec6FilterENS_9allocatorIS3_EEE5firstEv
FN:2399,_ZNKSt3__117__compressed_pairIPPN5Catch14IGeneratorInfoENS_9allocatorIS3_EEE5firstEv
FN:2399,_ZNKSt3__117__compressed_pairIPN5Catch5Clara6Parser5TokenENS_9allocatorIS4_EEE5firstEv
FN:2399,_ZNKSt3__117__compressed_pairINS_12basic_stringIcNS_11char_traitsIcEENS_9allocatorIcEEE5__repES5_E5firstEv
FN:2399,_ZNKSt3__117__compressed_pairIPN5Catch11SectionInfoERNS_9allocatorIS2_EEE5firstEv
FN:2399,_ZNKSt3__117__compressed_pairINS_15__tree_end_nodeIPNS_16__tree_node_baseIPvEEEENS_9allocatorINS_11__tree_nodeINS_12__value_typeINS_12basic_stringIcNS_11char_traitsIcEENS7_IcEEEEN5Catch3PtrINSF_16IReporterFactoryEEEEES3_EEEEE5firstEv
FN:2399,_ZNKSt3__117__compressed_pairIPN5Catch14SectionEndInfoERNS_9allocatorIS2_EEE5firstEv
FN:2399,_ZNKSt3__117__compressed_pairIPN5Catch15ConsoleReporter13SummaryColumnERNS_9allocatorIS3_EEE5firstEv
FN:2399,_ZNKSt3__117__compressed_pairIPNS_11__tree_nodeINS_12__value_typeINS_12basic_stringIcNS_11char_traitsIcEENS_9allocatorIcEEEEPN5Catch18IGeneratorsForTestEEEPvEENS_22__tree_node_destructorINS6_ISE_EEEEE5firstEv
FN:2399,_ZNKSt3__117__compressed_pairIPNS_11__tree_nodeINS_12basic_stringIcNS_11char_traitsIcEENS_9allocatorIcEEEEPvEENS_22__tree_node_destructorINS5_IS9_EEEEE5firstEv
FN:2399,_ZNKSt3__117__compressed_pairIPN5Catch5Clara11CommandLineINS1_10ConfigDataEE3ArgENS_9allocatorIS6_EEE5firstEv
FN:2399,_ZNKSt3__117__compressed_pairImNS_19__map_value_compareIiNS_12__value_typeIiN5Catch5Clara11CommandLineINS3_10ConfigDataEE3ArgEEENS_4lessIiEELb1EEEE5firstEv
FN:2399,_ZNKSt3__117__compressed_pairIPN5Catch11MessageInfoENS_9allocatorIS2_EEE5firstEv
FN:2399,_ZNKSt3__117__compressed_pairIPN5Catch5Clara6Parser5TokenERNS_9allocatorIS4_EEE5firstEv
FN:2399,_ZNKSt3__117__compressed_pairIPN5Catch8TestCaseERNS_9allocatorIS2_EEE5firstEv
FN:2399,_ZNKSt3__117__compressed_pairIPNS_11__tree_nodeIN5Catch8TestCaseEPvEENS_22__tree_node_destructorINS_9allocatorIS5_EEEEE5firstEv
FN:2399,_ZNKSt3__117__compressed_pairIPNS_12basic_stringIcNS_11char_traitsIcEENS_9allocatorIcEEEENS4_IS6_EEE5firstEv
FN:2399,_ZNKSt3__117__compressed_pairIPN5Catch3PtrINS1_8Matchers4Impl7MatcherINS_12basic_stringIcNS_11char_traitsIcEENS_9allocatorIcEEEEEEEENS9_ISD_EEE5firstEv
FN:2399,_ZNKSt3__117__compressed_pairIPN5Catch3PtrINS1_22CumulativeReporterBase4NodeINS1_12TestRunStatsENS4_INS1_14TestGroupStatsENS4_INS1_13TestCaseStatsENS3_11SectionNodeEEEEEEEEENS_9allocatorISC_EEE5firstEv
FN:2399,_ZNKSt3__117__compressed_pairIPPN5Catch16TestCaseTracking8ITrackerENS_9allocatorIS4_EEE5firstEv
FN:2399,_ZNKSt3__117__compressed_pairIPN5Catch3PtrINS1_18IStreamingReporterEEERNS_9allocatorIS4_EEE5firstEv
FN:2399,_ZNKSt3__117__compressed_pairIPNS_12basic_stringIcNS_11char_traitsIcEENS_9allocatorIcEEEERNS4_IS6_EEE5firstEv
FN:2399,_ZNKSt3__117__compressed_pairIPPKN5Catch20IExceptionTranslatorERNS_9allocatorIS4_EEE5firstEv
FN:2399,_ZNKSt3__117__compressed_pairIPPN5Catch16TestCaseTracking8ITrackerERNS_9allocatorIS4_EEE5firstEv
FN:2399,_ZNKSt3__117__compressed_pairIPN5Catch11SectionInfoENS_9allocatorIS2_EEE5firstEv
FN:2399,_ZNKSt3__117__compressed_pairImNS_4lessINS_12basic_stringIcNS_11char_traitsIcEENS_9allocatorIcEEEEEEE5firstEv
FN:2401,_ZNSt3__117__compressed_pairIPPN5Catch14IGeneratorInfoERNS_9allocatorIS3_EEE6secondEv
FN:2401,_ZNSt3__117__compressed_pairIPNS_11__tree_nodeINS_12basic_stringIcNS_11char_traitsIcEENS_9allocatorIcEEEEPvEENS_22__tree_node_destructorINS5_IS9_EEEEE6secondEv
FN:2401,_ZNSt3__117__compressed_pairIPN5Catch3PtrINS1_22CumulativeReporterBase11SectionNodeEEENS_9allocatorIS5_EEE6secondEv
FN:2401,_ZNSt3__117__compressed_pairImNS_19__map_value_compareINS_12basic_stringIcNS_11char_traitsIcEENS_9allocatorIcEEEENS_12__value_typeIS7_PN5Catch18IGeneratorsForTestEEENS_4lessIS7_EELb1EEEE6secondEv
FN:2401,_ZNSt3__117__compressed_pairIPNS_12basic_stringIcNS_11char_traitsIcEENS_9allocatorIcEEEENS4_IS6_EEE6secondEv
FN:2401,_ZNSt3__117__compressed_pairImNS_4lessINS_12basic_stringIcNS_11char_traitsIcEENS_9allocatorIcEEEEEEE6secondEv
FN:2401,_ZNSt3__117__compressed_pairIPN5Catch3PtrINS1_16IReporterFactoryEEERNS_9allocatorIS4_EEE6secondEv
FN:2401,_ZNSt3__117__compressed_pairIPNS_11__tree_nodeINS_12__value_typeINS_12basic_stringIcNS_11char_traitsIcEENS_9allocatorIcEEEEN5Catch7TagInfoEEEPvEENS_22__tree_node_destructorINS6_ISD_EEEEE6secondEv
FN:2401,_ZNSt3__117__compressed_pairIPN5Catch8TestSpec6FilterERNS_9allocatorIS3_EEE6secondEv
FN:2401,_ZNSt3__117__compressed_pairIPN5Catch11MessageInfoERNS_9allocatorIS2_EEE6secondEv
FN:2401,_ZNSt3__117__compressed_pairIPN5Catch14SectionEndInfoERNS_9allocatorIS2_EEE6secondEv
FN:2401,_ZNSt3__117__compressed_pairINS_15__tree_end_nodeIPNS_16__tree_node_baseIPvEEEENS_9allocatorINS_11__tree_nodeINS_12__value_typeINS_12basic_stringIcNS_11char_traitsIcEENS7_IcEEEEN5Catch3PtrINSF_16IReporterFactoryEEEEES3_EEEEE6secondEv
FN:2401,_ZNSt3__117__compressed_pairIPN5Catch3PtrINS1_22CumulativeReporterBase4NodeINS1_12TestRunStatsENS4_INS1_14TestGroupStatsENS4_INS1_13TestCaseStatsENS3_11SectionNodeEEEEEEEEENS_9allocatorISC_EEE6secondEv
FN:2401,_ZNSt3__117__compressed_pairIPN5Catch3PtrINS1_8TestSpec7PatternEEERNS_9allocatorIS5_EEE6secondEv
FN:2401,_ZNSt3__117__compressed_pairIPN5Catch3PtrINS1_22CumulativeReporterBase4NodeINS1_13TestCaseStatsENS3_11SectionNodeEEEEENS_9allocatorIS8_EEE6secondEv
FN:2401,_ZNSt3__117__compressed_pairIPNS_11__tree_nodeINS_12__value_typeINS_12basic_stringIcNS_11char_traitsIcEENS_9allocatorIcEEEEN5Catch3PtrINS9_16IReporterFactoryEEEEEPvEENS_22__tree_node_destructorINS6_ISF_EEEEE6secondEv
FN:2401,_ZNSt3__117__compressed_pairIPPKN5Catch20IExceptionTranslatorENS_9allocatorIS4_EEE6secondEv
FN:2401,_ZNSt3__117__compressed_pairINS_15__tree_end_nodeIPNS_16__tree_node_baseIPvEEEENS_9allocatorINS_11__tree_nodeINS_12__value_typeIiN5Catch5Clara11CommandLineINSA_10ConfigDataEE3ArgEEES3_EEEEE6secondEv
FN:2401,_ZNSt3__117__compressed_pairIPN5Catch15ConsoleReporter13SummaryColumnENS_9allocatorIS3_EEE6secondEv
FN:2401,_ZNSt3__117__compressed_pairIPN5Catch3PtrINS1_22CumulativeReporterBase4NodeINS1_14TestGroupStatsENS4_INS1_13TestCaseStatsENS3_11SectionNodeEEEEEEENS_9allocatorISA_EEE6secondEv
FN:2401,_ZNSt3__117__compressed_pairImNS_19__map_value_compareINS_12basic_stringIcNS_11char_traitsIcEENS_9allocatorIcEEEENS_12__value_typeIS7_N5Catch8TagAliasEEENS_4lessIS7_EELb1EEEE6secondEv
FN:2401,_ZNSt3__117__compressed_pairIPN5Catch14AssertionStatsENS_9allocatorIS2_EEE6secondEv
FN:2401,_ZNSt3__117__compressed_pairIPN5Catch3PtrINS1_22CumulativeReporterBase11SectionNodeEEERNS_9allocatorIS5_EEE6secondEv
FN:2401,_ZNSt3__117__compressed_pairIPNS_11__tree_nodeIN5Catch8TestCaseEPvEENS_22__tree_node_destructorINS_9allocatorIS5_EEEEE6secondEv
FN:2401,_ZNSt3__117__compressed_pairIPN5Catch8TestCaseENS_9allocatorIS2_EEE6secondEv
FN:2401,_ZNSt3__117__compressed_pairIPN5Catch5Clara11CommandLineINS1_10ConfigDataEE3ArgENS_14default_deleteIS6_EEE6secondEv
FN:2401,_ZNSt3__117__compressed_pairIPN5Catch3PtrINS1_16TestCaseTracking8ITrackerEEENS_9allocatorIS5_EEE6secondEv
FN:2401,_ZNSt3__117__compressed_pairIPN5Catch3PtrINS1_8Matchers4Impl7MatcherINS_12basic_stringIcNS_11char_traitsIcEENS_9allocatorIcEEEEEEEENS9_ISD_EEE6secondEv
FN:2401,_ZNSt3__117__compressed_pairIPPKN5Catch20IExceptionTranslatorERNS_9allocatorIS4_EEE6secondEv
FN:2401,_ZNSt3__117__compressed_pairINS_15__tree_end_nodeIPNS_16__tree_node_baseIPvEEEENS_9allocatorINS_11__tree_nodeIN5Catch8TestCaseES3_EEEEE6secondEv
FN:2401,_ZNSt3__117__compressed_pairIPPN5Catch16TestCaseTracking8ITrackerENS_9allocatorIS4_EEE6secondEv
FN:2401,_ZNSt3__117__compressed_pairIP7__sFILEPFiS2_EE6secondEv
FN:2401,_ZNSt3__117__compressed_pairIPN5Catch3PtrINS1_22CumulativeReporterBase4NodeINS1_12TestRunStatsENS4_INS1_14TestGroupStatsENS4_INS1_13TestCaseStatsENS3_11SectionNodeEEEEEEEEERNS_9allocatorISC_EEE6secondEv
FN:2401,_ZNSt3__117__compressed_pairINS_15__tree_end_nodeIPNS_16__tree_node_baseIPvEEEENS_9allocatorINS_11__tree_nodeINS_12__value_typeINS_12basic_stringIcNS_11char_traitsIcEENS7_IcEEEEN5Catch7TagInfoEEES3_EEEEE6secondEv
FN:2401,_ZNSt3__117__compressed_pairIPPN5Catch16TestCaseTracking8ITrackerERNS_9allocatorIS4_EEE6secondEv
FN:2401,_ZNSt3__117__compressed_pairImNS_19__map_value_compareINS_12basic_stringIcNS_11char_traitsIcEENS_9allocatorIcEEEENS_12__value_typeIS7_PN5Catch14IGeneratorInfoEEENS_4lessIS7_EELb1EEEE6secondEv
FN:2401,_ZNSt3__117__compressed_pairIPPN5Catch14IGeneratorInfoENS_9allocatorIS3_EEE6secondEv
FN:2401,_ZNSt3__117__compressed_pairIPN5Catch11SectionInfoERNS_9allocatorIS2_EEE6secondEv
FN:2401,_ZNSt3__117__compressed_pairIPN5Catch3PtrINS1_16IReporterFactoryEEENS_9allocatorIS4_EEE6secondEv
FN:2401,_ZNSt3__117__compressed_pairIPN5Catch5Clara6Parser5TokenERNS_9allocatorIS4_EEE6secondEv
FN:2401,_ZNSt3__117__compressed_pairINS_15__tree_end_nodeIPNS_16__tree_node_baseIPvEEEENS_9allocatorINS_11__tree_nodeINS_12__value_typeINS_12basic_stringIcNS_11char_traitsIcEENS7_IcEEEEPN5Catch14IGeneratorInfoEEES3_EEEEE6secondEv
FN:2401,_ZNSt3__117__compressed_pairIPN5Catch3PtrINS1_16TestCaseTracking8ITrackerEEERNS_9allocatorIS5_EEE6secondEv
FN:2401,_ZNSt3__117__compressed_pairIPN5Catch5Clara11CommandLineINS1_10ConfigDataEE3ArgENS_9allocatorIS6_EEE6secondEv
FN:2401,_ZNSt3__117__compressed_pairINS_12basic_stringIcNS_11char_traitsIcEENS_9allocatorIcEEE5__repES5_E6secondEv
FN:2401,_ZNSt3__117__compressed_pairIPN5Catch3PtrINS1_18IStreamingReporterEEENS_9allocatorIS4_EEE6secondEv
FN:2401,_ZNSt3__117__compressed_pairImNS_19__map_value_compareINS_12basic_stringIcNS_11char_traitsIcEENS_9allocatorIcEEEENS_12__value_typeIS7_N5Catch7TagInfoEEENS_4lessIS7_EELb1EEEE6secondEv
FN:2401,_ZNSt3__117__compressed_pairIPN5Catch5Clara11CommandLineINS1_10ConfigDataEE3ArgERNS_9allocatorIS6_EEE6secondEv
FN:2401,_ZNSt3__117__compressed_pairIPN5Catch5Clara6Parser5TokenENS_9allocatorIS4_EEE6secondEv
FN:2401,_ZNSt3__117__compressed_pairIPN5Catch3PtrINS1_22CumulativeReporterBase4NodeINS1_14TestGroupStatsENS4_INS1_13TestCaseStatsENS3_11SectionNodeEEEEEEERNS_9allocatorISA_EEE6secondEv
FN:2401,_ZNSt3__117__compressed_pairIPN5Catch3PtrINS1_22CumulativeReporterBase4NodeINS1_13TestCaseStatsENS3_11SectionNodeEEEEERNS_9allocatorIS8_EEE6secondEv
FN:2401,_ZNSt3__117__compressed_pairINS_15__tree_end_nodeIPNS_16__tree_node_baseIPvEEEENS_9allocatorINS_11__tree_nodeINS_12basic_stringIcNS_11char_traitsIcEENS7_IcEEEES3_EEEEE6secondEv
FN:2401,_ZNSt3__117__compressed_pairIPN5Catch3PtrINS1_18IStreamingReporterEEERNS_9allocatorIS4_EEE6secondEv
FN:2401,_ZNSt3__117__compressed_pairIPNS_11__tree_nodeINS_12__value_typeINS_12basic_stringIcNS_11char_traitsIcEENS_9allocatorIcEEEEN5Catch8TagAliasEEEPvEENS_22__tree_node_destructorINS6_ISD_EEEEE6secondEv
FN:2401,_ZNSt3__117__compressed_pairINS_15__tree_end_nodeIPNS_16__tree_node_baseIPvEEEENS_9allocatorINS_11__tree_nodeINS_12__value_typeINS_12basic_stringIcNS_11char_traitsIcEENS7_IcEEEEPN5Catch18IGeneratorsForTestEEES3_EEEEE6secondEv
FN:2401,_ZNSt3__117__compressed_pairImNS_19__map_value_compareINS_12basic_stringIcNS_11char_traitsIcEENS_9allocatorIcEEEENS_12__value_typeIS7_N5Catch3PtrINS9_16IReporterFactoryEEEEENS_4lessIS7_EELb1EEEE6secondEv
FN:2401,_ZNSt3__117__compressed_pairIPNS_6vectorIN5Catch3PtrINS2_22CumulativeReporterBase11SectionNodeEEENS_9allocatorIS6_EEEENS7_IS9_EEE6secondEv
FN:2401,_ZNSt3__117__compressed_pairIPN5Catch14SectionEndInfoENS_9allocatorIS2_EEE6secondEv
FN:2401,_ZNSt3__117__compressed_pairIPN5Catch15ConsoleReporter13SummaryColumnERNS_9allocatorIS3_EEE6secondEv
FN:2401,_ZNSt3__117__compressed_pairImNS_4lessIN5Catch8TestCaseEEEE6secondEv
FN:2401,_ZNSt3__117__compressed_pairINS_15__tree_end_nodeIPNS_16__tree_node_baseIPvEEEENS_9allocatorINS_11__tree_nodeINS_12__value_typeINS_12basic_stringIcNS_11char_traitsIcEENS7_IcEEEEN5Catch8TagAliasEEES3_EEEEE6secondEv
FN:2401,_ZNSt3__117__compressed_pairIPN5Catch11SectionInfoENS_9allocatorIS2_EEE6secondEv
FN:2401,_ZNSt3__117__compressed_pairIPN5Catch8TestCaseERNS_9allocatorIS2_EEE6secondEv
FN:2401,_ZNSt3__117__compressed_pairIPNS_11__tree_nodeINS_12__value_typeINS_12basic_stringIcNS_11char_traitsIcEENS_9allocatorIcEEEEPN5Catch18IGeneratorsForTestEEEPvEENS_22__tree_node_destructorINS6_ISE_EEEEE6secondEv
FN:2401,_ZNSt3__117__compressed_pairIPNS_12basic_stringIcNS_11char_traitsIcEENS_9allocatorIcEEEERNS4_IS6_EEE6secondEv
FN:2401,_ZNSt3__117__compressed_pairIPN5Catch11MessageInfoENS_9allocatorIS2_EEE6secondEv
FN:2401,_ZNSt3__117__compressed_pairIPNS_11__tree_nodeINS_12__value_typeINS_12basic_stringIcNS_11char_traitsIcEENS_9allocatorIcEEEEPN5Catch14IGeneratorInfoEEEPvEENS_22__tree_node_destructorINS6_ISE_EEEEE6secondEv
FN:2401,_ZNSt3__117__compressed_pairIPN5Catch3PtrINS1_8TestSpec7PatternEEENS_9allocatorIS5_EEE6secondEv
FN:2401,_ZNSt3__117__compressed_pairIPN5Catch14AssertionStatsERNS_9allocatorIS2_EEE6secondEv
FN:2401,_ZNSt3__117__compressed_pairIPN5Catch8TestSpec6FilterENS_9allocatorIS3_EEE6secondEv
FN:2402,_ZNKSt3__117__compressed_pairIPN5Catch11SectionInfoENS_9allocatorIS2_EEE6secondEv
FN:2402,_ZNKSt3__117__compressed_pairIPN5Catch8TestCaseENS_9allocatorIS2_EEE6secondEv
FN:2402,_ZNKSt3__117__compressed_pairIPN5Catch3PtrINS1_8Matchers4Impl7MatcherINS_12basic_stringIcNS_11char_traitsIcEENS_9allocatorIcEEEEEEEENS9_ISD_EEE6secondEv
FN:2402,_ZNKSt3__117__compressed_pairImNS_19__map_value_compareINS_12basic_stringIcNS_11char_traitsIcEENS_9allocatorIcEEEENS_12__value_typeIS7_N5Catch3PtrINS9_16IReporterFactoryEEEEENS_4lessIS7_EELb1EEEE6secondEv
FN:2402,_ZNKSt3__117__compressed_pairIPN5Catch14AssertionStatsENS_9allocatorIS2_EEE6secondEv
FN:2402,_ZNKSt3__117__compressed_pairIPN5Catch3PtrINS1_22CumulativeReporterBase11SectionNodeEEENS_9allocatorIS5_EEE6secondEv
FN:2402,_ZNKSt3__117__compressed_pairImNS_19__map_value_compareIiNS_12__value_typeIiN5Catch5Clara11CommandLineINS3_10ConfigDataEE3ArgEEENS_4lessIiEELb1EEEE6secondEv
FN:2402,_ZNKSt3__117__compressed_pairIPNS_12basic_stringIcNS_11char_traitsIcEENS_9allocatorIcEEEENS4_IS6_EEE6secondEv
FN:2402,_ZNKSt3__117__compressed_pairINS_15__tree_end_nodeIPNS_16__tree_node_baseIPvEEEENS_9allocatorINS_11__tree_nodeINS_12basic_stringIcNS_11char_traitsIcEENS7_IcEEEES3_EEEEE6secondEv
FN:2402,_ZNKSt3__117__compressed_pairImNS_19__map_value_compareINS_12basic_stringIcNS_11char_traitsIcEENS_9allocatorIcEEEENS_12__value_typeIS7_N5Catch8TagAliasEEENS_4lessIS7_EELb1EEEE6secondEv
FN:2402,_ZNKSt3__117__compressed_pairIPPKN5Catch20IExceptionTranslatorENS_9allocatorIS4_EEE6secondEv
FN:2402,_ZNKSt3__117__compressed_pairIPN5Catch3PtrINS1_22CumulativeReporterBase4NodeINS1_14TestGroupStatsENS4_INS1_13TestCaseStatsENS3_11SectionNodeEEEEEEENS_9allocatorISA_EEE6secondEv
FN:2402,_ZNKSt3__117__compressed_pairIPN5Catch5Clara11CommandLineINS1_10ConfigDataEE3ArgENS_9allocatorIS6_EEE6secondEv
FN:2402,_ZNKSt3__117__compressed_pairIPN5Catch15ConsoleReporter13SummaryColumnENS_9allocatorIS3_EEE6secondEv
FN:2402,_ZNKSt3__117__compressed_pairIPPN5Catch16TestCaseTracking8ITrackerENS_9allocatorIS4_EEE6secondEv
FN:2402,_ZNKSt3__117__compressed_pairIPN5Catch5Clara6Parser5TokenENS_9allocatorIS4_EEE6secondEv
FN:2402,_ZNKSt3__117__compressed_pairIPN5Catch3PtrINS1_18IStreamingReporterEEENS_9allocatorIS4_EEE6secondEv
FN:2402,_ZNKSt3__117__compressed_pairIPN5Catch8TestSpec6FilterENS_9allocatorIS3_EEE6secondEv
FN:2402,_ZNKSt3__117__compressed_pairINS_12basic_stringIcNS_11char_traitsIcEENS_9allocatorIcEEE5__repES5_E6secondEv
FN:2402,_ZNKSt3__117__compressed_pairIPN5Catch3PtrINS1_22CumulativeReporterBase4NodeINS1_13TestCaseStatsENS3_11SectionNodeEEEEENS_9allocatorIS8_EEE6secondEv
FN:2402,_ZNKSt3__117__compressed_pairIPN5Catch3PtrINS1_16IReporterFactoryEEENS_9allocatorIS4_EEE6secondEv
FN:2402,_ZNKSt3__117__compressed_pairIPN5Catch14SectionEndInfoENS_9allocatorIS2_EEE6secondEv
FN:2402,_ZNKSt3__117__compressed_pairIPPN5Catch14IGeneratorInfoENS_9allocatorIS3_EEE6secondEv
FN:2402,_ZNKSt3__117__compressed_pairIPN5Catch3PtrINS1_22CumulativeReporterBase4NodeINS1_12TestRunStatsENS4_INS1_14TestGroupStatsENS4_INS1_13TestCaseStatsENS3_11SectionNodeEEEEEEEEENS_9allocatorISC_EEE6secondEv
FN:2402,_ZNKSt3__117__compressed_pairImNS_4lessINS_12basic_stringIcNS_11char_traitsIcEENS_9allocatorIcEEEEEEE6secondEv
FN:2402,_ZNKSt3__117__compressed_pairIPN5Catch11MessageInfoENS_9allocatorIS2_EEE6secondEv
FN:2402,_ZNKSt3__117__compressed_pairIPN5Catch3PtrINS1_16TestCaseTracking8ITrackerEEENS_9allocatorIS5_EEE6secondEv
FN:2402,_ZNKSt3__117__compressed_pairIPN5Catch3PtrINS1_8TestSpec7PatternEEENS_9allocatorIS5_EEE6secondEv
FN:2404,_ZNSt3__117__compressed_pairImNS_4lessINS_12basic_stringIcNS_11char_traitsIcEENS_9allocatorIcEEEEEEE4swapERS9_
FN:2455,_ZNKSt3__114default_deleteIN5Catch5Clara11CommandLineINS1_10ConfigDataEE3ArgEEclEPS6_
FN:2510,_ZNSt3__110unique_ptrIN5Catch5Clara11CommandLineINS1_10ConfigDataEE3ArgENS_14default_deleteIS6_EEEC2Ev
FN:2510,_ZNSt3__110unique_ptrIN5Catch5Clara11CommandLineINS1_10ConfigDataEE3ArgENS_14default_deleteIS6_EEEC1Ev
FN:2537,_ZNSt3__110unique_ptrINS_11__tree_nodeINS_12__value_typeINS_12basic_stringIcNS_11char_traitsIcEENS_9allocatorIcEEEEN5Catch3PtrINS9_16IReporterFactoryEEEEEPvEENS_22__tree_node_destructorINS6_ISF_EEEEEC2EPSF_OSI_
FN:2537,_ZNSt3__110unique_ptrINS_11__tree_nodeINS_12basic_stringIcNS_11char_traitsIcEENS_9allocatorIcEEEEPvEENS_22__tree_node_destructorINS5_IS9_EEEEEC1EPS9_OSC_
FN:2537,_ZNSt3__110unique_ptrINS_11__tree_nodeINS_12__value_typeINS_12basic_stringIcNS_11char_traitsIcEENS_9allocatorIcEEEEPN5Catch14IGeneratorInfoEEEPvEENS_22__tree_node_destructorINS6_ISE_EEEEEC1EPSE_OSH_
FN:2537,_ZNSt3__110unique_ptrINS_11__tree_nodeINS_12__value_typeINS_12basic_stringIcNS_11char_traitsIcEENS_9allocatorIcEEEEPN5Catch18IGeneratorsForTestEEEPvEENS_22__tree_node_destructorINS6_ISE_EEEEEC1EPSE_OSH_
FN:2537,_ZNSt3__110unique_ptrINS_11__tree_nodeINS_12__value_typeINS_12basic_stringIcNS_11char_traitsIcEENS_9allocatorIcEEEEN5Catch3PtrINS9_16IReporterFactoryEEEEEPvEENS_22__tree_node_destructorINS6_ISF_EEEEEC1EPSF_OSI_
FN:2537,_ZNSt3__110unique_ptrINS_11__tree_nodeINS_12__value_typeINS_12basic_stringIcNS_11char_traitsIcEENS_9allocatorIcEEEEPN5Catch18IGeneratorsForTestEEEPvEENS_22__tree_node_destructorINS6_ISE_EEEEEC2EPSE_OSH_
FN:2537,_ZNSt3__110unique_ptrINS_11__tree_nodeINS_12basic_stringIcNS_11char_traitsIcEENS_9allocatorIcEEEEPvEENS_22__tree_node_destructorINS5_IS9_EEEEEC2EPS9_OSC_
FN:2537,_ZNSt3__110unique_ptrINS_11__tree_nodeINS_12__value_typeINS_12basic_stringIcNS_11char_traitsIcEENS_9allocatorIcEEEEN5Catch7TagInfoEEEPvEENS_22__tree_node_destructorINS6_ISD_EEEEEC1EPSD_OSG_
FN:2537,_ZNSt3__110unique_ptrINS_11__tree_nodeINS_12__value_typeINS_12basic_stringIcNS_11char_traitsIcEENS_9allocatorIcEEEEN5Catch8TagAliasEEEPvEENS_22__tree_node_destructorINS6_ISD_EEEEEC2EPSD_OSG_
FN:2537,_ZNSt3__110unique_ptrINS_11__tree_nodeIN5Catch8TestCaseEPvEENS_22__tree_node_destructorINS_9allocatorIS5_EEEEEC2EPS5_OS9_
FN:2537,_ZNSt3__110unique_ptrI7__sFILEPFiPS1_EEC1ES2_OS4_
FN:2537,_ZNSt3__110unique_ptrINS_11__tree_nodeINS_12__value_typeINS_12basic_stringIcNS_11char_traitsIcEENS_9allocatorIcEEEEN5Catch7TagInfoEEEPvEENS_22__tree_node_destructorINS6_ISD_EEEEEC2EPSD_OSG_
FN:2537,_ZNSt3__110unique_ptrINS_11__tree_nodeINS_12__value_typeINS_12basic_stringIcNS_11char_traitsIcEENS_9allocatorIcEEEEN5Catch8TagAliasEEEPvEENS_22__tree_node_destructorINS6_ISD_EEEEEC1EPSD_OSG_
FN:2537,_ZNSt3__110unique_ptrINS_11__tree_nodeIN5Catch8TestCaseEPvEENS_22__tree_node_destructorINS_9allocatorIS5_EEEEEC1EPS5_OS9_
FN:2537,_ZNSt3__110unique_ptrI7__sFILEPFiPS1_EEC2ES2_OS4_
FN:2537,_ZNSt3__110unique_ptrINS_11__tree_nodeINS_12__value_typeINS_12basic_stringIcNS_11char_traitsIcEENS_9allocatorIcEEEEPN5Catch14IGeneratorInfoEEEPvEENS_22__tree_node_destructorINS6_ISE_EEEEEC2EPSE_OSH_
FN:2626,_ZNSt3__110unique_ptrINS_11__tree_nodeINS_12__value_typeINS_12basic_stringIcNS_11char_traitsIcEENS_9allocatorIcEEEEN5Catch7TagInfoEEEPvEENS_22__tree_node_destructorINS6_ISD_EEEEED1Ev
FN:2626,_ZNSt3__110unique_ptrINS_11__tree_nodeINS_12__value_typeINS_12basic_stringIcNS_11char_traitsIcEENS_9allocatorIcEEEEN5Catch3PtrINS9_16IReporterFactoryEEEEEPvEENS_22__tree_node_destructorINS6_ISF_EEEEED1Ev
FN:2626,_ZNSt3__110unique_ptrINS_11__tree_nodeINS_12__value_typeINS_12basic_stringIcNS_11char_traitsIcEENS_9allocatorIcEEEEN5Catch8TagAliasEEEPvEENS_22__tree_node_destructorINS6_ISD_EEEEED2Ev
FN:2626,_ZNSt3__110unique_ptrIN5Catch5Clara11CommandLineINS1_10ConfigDataEE3ArgENS_14default_deleteIS6_EEED1Ev
FN:2626,_ZNSt3__110unique_ptrINS_11__tree_nodeINS_12__value_typeINS_12basic_stringIcNS_11char_traitsIcEENS_9allocatorIcEEEEPN5Catch18IGeneratorsForTestEEEPvEENS_22__tree_node_destructorINS6_ISE_EEEEED1Ev
FN:2626,_ZNSt3__110unique_ptrINS_11__tree_nodeINS_12__value_typeINS_12basic_stringIcNS_11char_traitsIcEENS_9allocatorIcEEEEPN5Catch14IGeneratorInfoEEEPvEENS_22__tree_node_destructorINS6_ISE_EEEEED2Ev
FN:2626,_ZNSt3__110unique_ptrINS_11__tree_nodeINS_12basic_stringIcNS_11char_traitsIcEENS_9allocatorIcEEEEPvEENS_22__tree_node_destructorINS5_IS9_EEEEED1Ev
FN:2626,_ZNSt3__110unique_ptrINS_11__tree_nodeINS_12basic_stringIcNS_11char_traitsIcEENS_9allocatorIcEEEEPvEENS_22__tree_node_destructorINS5_IS9_EEEEED2Ev
FN:2626,_ZNSt3__110unique_ptrINS_11__tree_nodeIN5Catch8TestCaseEPvEENS_22__tree_node_destructorINS_9allocatorIS5_EEEEED2Ev
FN:2626,_ZNSt3__110unique_ptrINS_11__tree_nodeINS_12__value_typeINS_12basic_stringIcNS_11char_traitsIcEENS_9allocatorIcEEEEN5Catch8TagAliasEEEPvEENS_22__tree_node_destructorINS6_ISD_EEEEED1Ev
FN:2626,_ZNSt3__110unique_ptrI7__sFILEPFiPS1_EED2Ev
FN:2626,_ZNSt3__110unique_ptrI7__sFILEPFiPS1_EED1Ev
FN:2626,_ZNSt3__110unique_ptrINS_11__tree_nodeINS_12__value_typeINS_12basic_stringIcNS_11char_traitsIcEENS_9allocatorIcEEEEPN5Catch18IGeneratorsForTestEEEPvEENS_22__tree_node_destructorINS6_ISE_EEEEED2Ev
FN:2626,_ZNSt3__110unique_ptrIN5Catch5Clara11CommandLineINS1_10ConfigDataEE3ArgENS_14default_deleteIS6_EEED2Ev
FN:2626,_ZNSt3__110unique_ptrINS_11__tree_nodeINS_12__value_typeINS_12basic_stringIcNS_11char_traitsIcEENS_9allocatorIcEEEEN5Catch7TagInfoEEEPvEENS_22__tree_node_destructorINS6_ISD_EEEEED2Ev
FN:2626,_ZNSt3__110unique_ptrINS_11__tree_nodeIN5Catch8TestCaseEPvEENS_22__tree_node_destructorINS_9allocatorIS5_EEEEED1Ev
FN:2626,_ZNSt3__110unique_ptrINS_11__tree_nodeINS_12__value_typeINS_12basic_stringIcNS_11char_traitsIcEENS_9allocatorIcEEEEN5Catch3PtrINS9_16IReporterFactoryEEEEEPvEENS_22__tree_node_destructorINS6_ISF_EEEEED2Ev
FN:2626,_ZNSt3__110unique_ptrINS_11__tree_nodeINS_12__value_typeINS_12basic_stringIcNS_11char_traitsIcEENS_9allocatorIcEEEEPN5Catch14IGeneratorInfoEEEPvEENS_22__tree_node_destructorINS6_ISE_EEEEED1Ev
FN:2636,_ZNKSt3__110unique_ptrINS_11__tree_nodeINS_12__value_typeINS_12basic_stringIcNS_11char_traitsIcEENS_9allocatorIcEEEEN5Catch8TagAliasEEEPvEENS_22__tree_node_destructorINS6_ISD_EEEEEptEv
FN:2636,_ZNKSt3__110unique_ptrINS_11__tree_nodeINS_12__value_typeINS_12basic_stringIcNS_11char_traitsIcEENS_9allocatorIcEEEEPN5Catch18IGeneratorsForTestEEEPvEENS_22__tree_node_destructorINS6_ISE_EEEEEptEv
FN:2636,_ZNKSt3__110unique_ptrINS_11__tree_nodeIN5Catch8TestCaseEPvEENS_22__tree_node_destructorINS_9allocatorIS5_EEEEEptEv
FN:2636,_ZNKSt3__110unique_ptrINS_11__tree_nodeINS_12__value_typeINS_12basic_stringIcNS_11char_traitsIcEENS_9allocatorIcEEEEPN5Catch14IGeneratorInfoEEEPvEENS_22__tree_node_destructorINS6_ISE_EEEEEptEv
FN:2636,_ZNKSt3__110unique_ptrINS_11__tree_nodeINS_12basic_stringIcNS_11char_traitsIcEENS_9allocatorIcEEEEPvEENS_22__tree_node_destructorINS5_IS9_EEEEEptEv
FN:2636,_ZNKSt3__110unique_ptrIN5Catch5Clara11CommandLineINS1_10ConfigDataEE3ArgENS_14default_deleteIS6_EEEptEv
FN:2636,_ZNKSt3__110unique_ptrINS_11__tree_nodeINS_12__value_typeINS_12basic_stringIcNS_11char_traitsIcEENS_9allocatorIcEEEEN5Catch7TagInfoEEEPvEENS_22__tree_node_destructorINS6_ISD_EEEEEptEv
FN:2636,_ZNKSt3__110unique_ptrINS_11__tree_nodeINS_12__value_typeINS_12basic_stringIcNS_11char_traitsIcEENS_9allocatorIcEEEEN5Catch3PtrINS9_16IReporterFactoryEEEEEPvEENS_22__tree_node_destructorINS6_ISF_EEEEEptEv
FN:2637,_ZNKSt3__110unique_ptrINS_11__tree_nodeINS_12__value_typeINS_12basic_stringIcNS_11char_traitsIcEENS_9allocatorIcEEEEN5Catch8TagAliasEEEPvEENS_22__tree_node_destructorINS6_ISD_EEEEE3getEv
FN:2637,_ZNKSt3__110unique_ptrIN5Catch5Clara11CommandLineINS1_10ConfigDataEE3ArgENS_14default_deleteIS6_EEE3getEv
FN:2637,_ZNKSt3__110unique_ptrINS_11__tree_nodeINS_12__value_typeINS_12basic_stringIcNS_11char_traitsIcEENS_9allocatorIcEEEEN5Catch3PtrINS9_16IReporterFactoryEEEEEPvEENS_22__tree_node_destructorINS6_ISF_EEEEE3getEv
FN:2637,_ZNKSt3__110unique_ptrINS_11__tree_nodeIN5Catch8TestCaseEPvEENS_22__tree_node_destructorINS_9allocatorIS5_EEEEE3getEv
FN:2637,_ZNKSt3__110unique_ptrINS_11__tree_nodeINS_12__value_typeINS_12basic_stringIcNS_11char_traitsIcEENS_9allocatorIcEEEEPN5Catch18IGeneratorsForTestEEEPvEENS_22__tree_node_destructorINS6_ISE_EEEEE3getEv
FN:2637,_ZNKSt3__110unique_ptrINS_11__tree_nodeINS_12__value_typeINS_12basic_stringIcNS_11char_traitsIcEENS_9allocatorIcEEEEPN5Catch14IGeneratorInfoEEEPvEENS_22__tree_node_destructorINS6_ISE_EEEEE3getEv
FN:2637,_ZNKSt3__110unique_ptrINS_11__tree_nodeINS_12__value_typeINS_12basic_stringIcNS_11char_traitsIcEENS_9allocatorIcEEEEN5Catch7TagInfoEEEPvEENS_22__tree_node_destructorINS6_ISD_EEEEE3getEv
FN:2637,_ZNKSt3__110unique_ptrINS_11__tree_nodeINS_12basic_stringIcNS_11char_traitsIcEENS_9allocatorIcEEEEPvEENS_22__tree_node_destructorINS5_IS9_EEEEE3getEv
FN:2638,_ZNSt3__110unique_ptrINS_11__tree_nodeINS_12__value_typeINS_12basic_stringIcNS_11char_traitsIcEENS_9allocatorIcEEEEN5Catch3PtrINS9_16IReporterFactoryEEEEEPvEENS_22__tree_node_destructorINS6_ISF_EEEEE11get_deleterEv
FN:2638,_ZNSt3__110unique_ptrINS_11__tree_nodeINS_12__value_typeINS_12basic_stringIcNS_11char_traitsIcEENS_9allocatorIcEEEEN5Catch7TagInfoEEEPvEENS_22__tree_node_destructorINS6_ISD_EEEEE11get_deleterEv
FN:2638,_ZNSt3__110unique_ptrINS_11__tree_nodeINS_12__value_typeINS_12basic_stringIcNS_11char_traitsIcEENS_9allocatorIcEEEEN5Catch8TagAliasEEEPvEENS_22__tree_node_destructorINS6_ISD_EEEEE11get_deleterEv
FN:2638,_ZNSt3__110unique_ptrINS_11__tree_nodeINS_12__value_typeINS_12basic_stringIcNS_11char_traitsIcEENS_9allocatorIcEEEEPN5Catch14IGeneratorInfoEEEPvEENS_22__tree_node_destructorINS6_ISE_EEEEE11get_deleterEv
FN:2638,_ZNSt3__110unique_ptrINS_11__tree_nodeINS_12basic_stringIcNS_11char_traitsIcEENS_9allocatorIcEEEEPvEENS_22__tree_node_destructorINS5_IS9_EEEEE11get_deleterEv
FN:2638,_ZNSt3__110unique_ptrINS_11__tree_nodeIN5Catch8TestCaseEPvEENS_22__tree_node_destructorINS_9allocatorIS5_EEEEE11get_deleterEv
FN:2638,_ZNSt3__110unique_ptrINS_11__tree_nodeINS_12__value_typeINS_12basic_stringIcNS_11char_traitsIcEENS_9allocatorIcEEEEPN5Catch18IGeneratorsForTestEEEPvEENS_22__tree_node_destructorINS6_ISE_EEEEE11get_deleterEv
FN:2646,_ZNSt3__110unique_ptrINS_11__tree_nodeIN5Catch8TestCaseEPvEENS_22__tree_node_destructorINS_9allocatorIS5_EEEEE7releaseEv
FN:2646,_ZNSt3__110unique_ptrINS_11__tree_nodeINS_12__value_typeINS_12basic_stringIcNS_11char_traitsIcEENS_9allocatorIcEEEEN5Catch7TagInfoEEEPvEENS_22__tree_node_destructorINS6_ISD_EEEEE7releaseEv
FN:2646,_ZNSt3__110unique_ptrINS_11__tree_nodeINS_12__value_typeINS_12basic_stringIcNS_11char_traitsIcEENS_9allocatorIcEEEEPN5Catch18IGeneratorsForTestEEEPvEENS_22__tree_node_destructorINS6_ISE_EEEEE7releaseEv
FN:2646,_ZNSt3__110unique_ptrI7__sFILEPFiPS1_EE7releaseEv
FN:2646,_ZNSt3__110unique_ptrINS_11__tree_nodeINS_12__value_typeINS_12basic_stringIcNS_11char_traitsIcEENS_9allocatorIcEEEEPN5Catch14IGeneratorInfoEEEPvEENS_22__tree_node_destructorINS6_ISE_EEEEE7releaseEv
FN:2646,_ZNSt3__110unique_ptrINS_11__tree_nodeINS_12basic_stringIcNS_11char_traitsIcEENS_9allocatorIcEEEEPvEENS_22__tree_node_destructorINS5_IS9_EEEEE7releaseEv
FN:2646,_ZNSt3__110unique_ptrINS_11__tree_nodeINS_12__value_typeINS_12basic_stringIcNS_11char_traitsIcEENS_9allocatorIcEEEEN5Catch3PtrINS9_16IReporterFactoryEEEEEPvEENS_22__tree_node_destructorINS6_ISF_EEEEE7releaseEv
FN:2646,_ZNSt3__110unique_ptrINS_11__tree_nodeINS_12__value_typeINS_12basic_stringIcNS_11char_traitsIcEENS_9allocatorIcEEEEN5Catch8TagAliasEEEPvEENS_22__tree_node_destructorINS6_ISD_EEEEE7releaseEv
FN:2653,_ZNSt3__110unique_ptrI7__sFILEPFiPS1_EE5resetES2_
FN:2653,_ZNSt3__110unique_ptrINS_11__tree_nodeINS_12__value_typeINS_12basic_stringIcNS_11char_traitsIcEENS_9allocatorIcEEEEPN5Catch18IGeneratorsForTestEEEPvEENS_22__tree_node_destructorINS6_ISE_EEEEE5resetEPSE_
FN:2653,_ZNSt3__110unique_ptrINS_11__tree_nodeIN5Catch8TestCaseEPvEENS_22__tree_node_destructorINS_9allocatorIS5_EEEEE5resetEPS5_
FN:2653,_ZNSt3__110unique_ptrINS_11__tree_nodeINS_12basic_stringIcNS_11char_traitsIcEENS_9allocatorIcEEEEPvEENS_22__tree_node_destructorINS5_IS9_EEEEE5resetEPS9_
FN:2653,_ZNSt3__110unique_ptrIN5Catch5Clara11CommandLineINS1_10ConfigDataEE3ArgENS_14default_deleteIS6_EEE5resetEPS6_
FN:2653,_ZNSt3__110unique_ptrINS_11__tree_nodeINS_12__value_typeINS_12basic_stringIcNS_11char_traitsIcEENS_9allocatorIcEEEEN5Catch3PtrINS9_16IReporterFactoryEEEEEPvEENS_22__tree_node_destructorINS6_ISF_EEEEE5resetEPSF_
FN:2653,_ZNSt3__110unique_ptrINS_11__tree_nodeINS_12__value_typeINS_12basic_stringIcNS_11char_traitsIcEENS_9allocatorIcEEEEPN5Catch14IGeneratorInfoEEEPvEENS_22__tree_node_destructorINS6_ISE_EEEEE5resetEPSE_
FN:2653,_ZNSt3__110unique_ptrINS_11__tree_nodeINS_12__value_typeINS_12basic_stringIcNS_11char_traitsIcEENS_9allocatorIcEEEEN5Catch8TagAliasEEEPvEENS_22__tree_node_destructorINS6_ISD_EEEEE5resetEPSD_
FN:2653,_ZNSt3__110unique_ptrINS_11__tree_nodeINS_12__value_typeINS_12basic_stringIcNS_11char_traitsIcEENS_9allocatorIcEEEEN5Catch7TagInfoEEEPvEENS_22__tree_node_destructorINS6_ISD_EEEEE5resetEPSD_
FNDA:453,_ZNKSt3__128__libcpp_compressed_pair_impIPN5Catch11MessageInfoENS_9allocatorIS2_EELj2EE6secondEv
FNDA:784,_ZNSt3__117__compressed_pairImNS_19__map_value_compareINS_12basic_stringIcNS_11char_traitsIcEENS_9allocatorIcEEEENS_12__value_typeIS7_PN5Catch14IGeneratorInfoEEENS_4lessIS7_EELb1EEEE6secondEv
FNDA:784,_ZNSt3__117__compressed_pairIPPN5Catch16TestCaseTracking8ITrackerERNS_9allocatorIS4_EEE6secondEv
FNDA:130,_ZNSt3__128__libcpp_compressed_pair_impImNS_19__map_value_compareINS_12basic_stringIcNS_11char_traitsIcEENS_9allocatorIcEEEENS_12__value_typeIS7_N5Catch3PtrINS9_16IReporterFactoryEEEEENS_4lessIS7_EELb1EEELj2EEC2EmSG_
FNDA:86,_ZNSt3__128__libcpp_compressed_pair_impIPN5Catch3PtrINS1_18IStreamingReporterEEERNS_9allocatorIS4_EELj0EE5firstEv
FNDA:86,_ZNSt3__128__libcpp_compressed_pair_impIPNS_11__tree_nodeINS_12__value_typeINS_12basic_stringIcNS_11char_traitsIcEENS_9allocatorIcEEEEN5Catch3PtrINS9_16IReporterFactoryEEEEEPvEENS_22__tree_node_destructorINS6_ISF_EEEELj0EE5firstEv
FNDA:1915,_ZNSt3__128__libcpp_compressed_pair_impImNS_19__map_value_compareINS_12basic_stringIcNS_11char_traitsIcEENS_9allocatorIcEEEENS_12__value_typeIS7_N5Catch7TagInfoEEENS_4lessIS7_EELb1EEELj2EE5firstEv
FNDA:37,_ZNSt3__128__libcpp_compressed_pair_impIPNS_11__tree_nodeIN5Catch8TestCaseEPvEENS_22__tree_node_destructorINS_9allocatorIS5_EEEELj0EEC2ES6_SA_
FNDA:3146,_ZNKSt3__128__libcpp_compressed_pair_impIPN5Catch3PtrINS1_16IReporterFactoryEEENS_9allocatorIS4_EELj2EE5firstEv
FNDA:130,_ZNSt3__128__libcpp_compressed_pair_impImNS_19__map_value_compareINS_12basic_stringIcNS_11char_traitsIcEENS_9allocatorIcEEEENS_12__value_typeIS7_PN5Catch14IGeneratorInfoEEENS_4lessIS7_EELb1EEELj2EEC2EmSF_
FNDA:96,_ZNSt3__116allocator_traitsINS_9allocatorIN5Catch3PtrINS2_8TestSpec7PatternEEEEEE37select_on_container_copy_constructionERKS7_
FNDA:129,_ZNSt3__116allocator_traitsINS_9allocatorIPKN5Catch20IExceptionTranslatorEEEE11__constructIS5_JRKS5_EEEvNS_17integral_constantIbLb1EEERS6_PT_DpOT0_
FNDA:129,_ZNSt3__116allocator_traitsINS_9allocatorIN5Catch3PtrINS2_16IReporterFactoryEEEEEE11__constructIS5_JRKS5_EEEvNS_17integral_constantIbLb1EEERS6_PT_DpOT0_
FNDA:6,_ZNKSt3__110unique_ptrINS_11__tree_nodeINS_12__value_typeINS_12basic_stringIcNS_11char_traitsIcEENS_9allocatorIcEEEEPN5Catch14IGeneratorInfoEEEPvEENS_22__tree_node_destructorINS6_ISE_EEEEEptEv
FNDA:100,_ZNSt3__117__compressed_pairIPN5Catch5Clara11CommandLineINS1_10ConfigDataEE3ArgENS_9allocatorIS6_EEEC1ES7_
FNDA:453,_ZNKSt3__117__compressed_pairINS_12basic_stringIcNS_11char_traitsIcEENS_9allocatorIcEEE5__repES5_E6secondEv
FNDA:258,_ZNSt3__116allocator_traitsINS_9allocatorIN5Catch3PtrINS2_16IReporterFactoryEEEEEE9constructIS5_JRS5_EEEvRS6_PT_DpOT0_
FNDA:765,_ZNSt3__19allocatorIN5Catch3PtrINS1_22CumulativeReporterBase4NodeINS1_12TestRunStatsENS4_INS1_14TestGroupStatsENS4_INS1_13TestCaseStatsENS3_11SectionNodeEEEEEEEEEEC2Ev
FNDA:125,_ZNKSt3__19allocatorIN5Catch5Clara6Parser5TokenEE8max_sizeEv
FNDA:125,_ZNSt3__116allocator_traitsINS_9allocatorIN5Catch3PtrINS2_22CumulativeReporterBase4NodeINS2_12TestRunStatsENS5_INS2_14TestGroupStatsENS5_INS2_13TestCaseStatsENS4_11SectionNodeEEEEEEEEEEEE10__max_sizeENS_17integral_constantIbLb1EEERKSE_
FNDA:2001,_ZNSt3__117__compressed_pairINS_15__tree_end_nodeIPNS_16__tree_node_baseIPvEEEENS_9allocatorINS_11__tree_nodeIN5Catch8TestCaseES3_EEEEE5firstEv
FNDA:129,_ZNSt3__116allocator_traitsINS_9allocatorINS_11__tree_nodeINS_12basic_stringIcNS_11char_traitsIcEENS1_IcEEEEPvEEEEE7destroyIS7_EEvRSA_PT_
FNDA:2001,_ZNSt3__117__compressed_pairINS_15__tree_end_nodeIPNS_16__tree_node_baseIPvEEEENS_9allocatorINS_11__tree_nodeINS_12__value_typeIiN5Catch5Clara11CommandLineINSA_10ConfigDataEE3ArgEEES3_EEEEE5firstEv
FNDA:73,_ZNSt3__116allocator_traitsINS_9allocatorIN5Catch8TestSpec6FilterEEEE10deallocateERS5_PS4_m
FNDA:1915,_ZNSt3__128__libcpp_compressed_pair_impIPN5Catch3PtrINS1_22CumulativeReporterBase4NodeINS1_12TestRunStatsENS4_INS1_14TestGroupStatsENS4_INS1_13TestCaseStatsENS3_11SectionNodeEEEEEEEEENS_9allocatorISC_EELj2EE5firstEv
FNDA:86,_ZNSt3__128__libcpp_compressed_pair_impIPN5Catch14SectionEndInfoERNS_9allocatorIS2_EELj0EE5firstEv
FNDA:129,_ZNSt3__19allocatorIN5Catch3PtrINS1_8TestSpec7PatternEEEE9constructIS5_JRKS5_EEEvPT_DpOT0_
FNDA:784,_ZNSt3__117__compressed_pairIPN5Catch3PtrINS1_22CumulativeReporterBase4NodeINS1_12TestRunStatsENS4_INS1_14TestGroupStatsENS4_INS1_13TestCaseStatsENS3_11SectionNodeEEEEEEEEERNS_9allocatorISC_EEE6secondEv
FNDA:35,_ZNSt3__116allocator_traitsINS_9allocatorIN5Catch3PtrINS2_8Matchers4Impl7MatcherINS_12basic_stringIcNS_11char_traitsIcEENS1_IcEEEEEEEEEEE25__construct_range_forwardIPSD_SH_EEvRSE_T_SJ_RT0_
FNDA:3165,_ZNKSt3__117__compressed_pairIPN5Catch8TestSpec6FilterENS_9allocatorIS3_EEE5firstEv
FNDA:146,_ZNSt3__19allocatorINS_11__tree_nodeINS_12__value_typeINS_12basic_stringIcNS_11char_traitsIcEENS0_IcEEEEN5Catch8TagAliasEEEPvEEE10deallocateEPSC_m
FNDA:73,_ZNSt3__116allocator_traitsINS_9allocatorIN5Catch3PtrINS2_8Matchers4Impl7MatcherINS_12basic_stringIcNS_11char_traitsIcEENS1_IcEEEEEEEEEEE10deallocateERSE_PSD_m
FNDA:129,_ZNSt3__19allocatorIN5Catch8TestSpec6FilterEE9constructIS3_JRKS3_EEEvPT_DpOT0_
FNDA:73,_ZNSt3__19allocatorIPKN5Catch20IExceptionTranslatorEE8allocateEmPKv
FNDA:1432,_ZNSt3__117__compressed_pairINS_15__tree_end_nodeIPNS_16__tree_node_baseIPvEEEENS_9allocatorINS_11__tree_nodeINS_12__value_typeINS_12basic_stringIcNS_11char_traitsIcEENS7_IcEEEEN5Catch8TagAliasEEES3_EEEEEC1Ev
FNDA:77,_ZNSt3__128__libcpp_compressed_pair_impIPN5Catch3PtrINS1_22CumulativeReporterBase4NodeINS1_13TestCaseStatsENS3_11SectionNodeEEEEERNS_9allocatorIS8_EELj0EE6secondEv
FNDA:100,_ZNSt3__117__compressed_pairIPNS_12basic_stringIcNS_11char_traitsIcEENS_9allocatorIcEEEENS4_IS6_EEEC2ES7_
FNDA:77,_ZNSt3__128__libcpp_compressed_pair_impIPNS_11__tree_nodeINS_12__value_typeINS_12basic_stringIcNS_11char_traitsIcEENS_9allocatorIcEEEEN5Catch3PtrINS9_16IReporterFactoryEEEEEPvEENS_22__tree_node_destructorINS6_ISF_EEEELj0EE6secondEv
FNDA:784,_ZNSt3__117__compressed_pairINS_15__tree_end_nodeIPNS_16__tree_node_baseIPvEEEENS_9allocatorINS_11__tree_nodeINS_12__value_typeINS_12basic_stringIcNS_11char_traitsIcEENS7_IcEEEEN5Catch7TagInfoEEES3_EEEEE6secondEv
FNDA:453,_ZNKSt3__117__compressed_pairIPN5Catch8TestSpec6FilterENS_9allocatorIS3_EEE6secondEv
FNDA:849,_ZNSt3__114pointer_traitsIPcE10pointer_toERc
FNDA:129,_ZNSt3__116allocator_traitsINS_9allocatorIN5Catch11MessageInfoEEEE11__constructIS3_JRKS3_EEEvNS_17integral_constantIbLb1EEERS4_PT_DpOT0_
FNDA:37,_ZNSt3__128__libcpp_compressed_pair_impIPPN5Catch16TestCaseTracking8ITrackerERNS_9allocatorIS4_EELj0EEC2ES5_S8_
FNDA:2001,_ZNSt3__117__compressed_pairIPNS_12basic_stringIcNS_11char_traitsIcEENS_9allocatorIcEEEENS4_IS6_EEE5firstEv
FNDA:334,_ZNSt3__117__compressed_pairIPN5Catch8TestSpec6FilterERNS_9allocatorIS3_EEEC2ES4_S7_
FNDA:125,_ZNKSt3__19allocatorIN5Catch3PtrINS1_16IReporterFactoryEEEE8max_sizeEv
FNDA:73,_ZNSt3__19allocatorIN5Catch5Clara11CommandLineINS1_10ConfigDataEE3ArgEE8allocateEmPKv
FNDA:453,_ZNKSt3__128__libcpp_compressed_pair_impIPN5Catch14AssertionStatsENS_9allocatorIS2_EELj2EE6secondEv
FNDA:334,_ZNSt3__117__compressed_pairIPN5Catch15ConsoleReporter13SummaryColumnERNS_9allocatorIS3_EEEC2ES4_S7_
FNDA:258,_ZNSt3__116allocator_traitsINS_9allocatorIN5Catch8TestSpec6FilterEEEE9constructIS4_JRS4_EEEvRS5_PT_DpOT0_
FNDA:146,_ZNSt3__19allocatorIN5Catch11MessageInfoEE10deallocateEPS2_m
FNDA:129,_ZNSt3__116allocator_traitsINS_9allocatorIPN5Catch16TestCaseTracking8ITrackerEEEE7destroyIS5_EEvRS6_PT_
FNDA:129,_ZNSt3__19allocatorIN5Catch5Clara11CommandLineINS1_10ConfigDataEE3ArgEE9constructIS6_JS6_EEEvPT_DpOT0_
FNDA:849,_ZNSt3__114pointer_traitsIPKNS_12__value_typeINS_12basic_stringIcNS_11char_traitsIcEENS_9allocatorIcEEEEN5Catch7TagInfoEEEE10pointer_toERSB_
FNDA:96,_ZNSt3__116allocator_traitsINS_9allocatorIN5Catch11MessageInfoEEEE37select_on_container_copy_constructionENS_17integral_constantIbLb0EEERKS4_
FNDA:2001,_ZNSt3__117__compressed_pairIPN5Catch8TestCaseERNS_9allocatorIS2_EEE5firstEv
FNDA:3146,_ZNKSt3__128__libcpp_compressed_pair_impIPPN5Catch16TestCaseTracking8ITrackerENS_9allocatorIS4_EELj2EE5firstEv
FNDA:707,_ZNSt3__128__libcpp_compressed_pair_impINS_15__tree_end_nodeIPNS_16__tree_node_baseIPvEEEENS_9allocatorINS_11__tree_nodeINS_12__value_typeINS_12basic_stringIcNS_11char_traitsIcEENS7_IcEEEEPN5Catch18IGeneratorsForTestEEES3_EEEELj2EE6secondEv
FNDA:334,_ZNSt3__117__compressed_pairIPN5Catch14SectionEndInfoERNS_9allocatorIS2_EEEC1ES3_S6_
FNDA:146,_ZNSt3__19allocatorINS_11__tree_nodeINS_12__value_typeINS_12basic_stringIcNS_11char_traitsIcEENS0_IcEEEEPN5Catch14IGeneratorInfoEEEPvEEE10deallocateEPSD_m
FNDA:2001,_ZNSt3__117__compressed_pairIPN5Catch3PtrINS1_16IReporterFactoryEEERNS_9allocatorIS4_EEE5firstEv
FNDA:3165,_ZNKSt3__117__compressed_pairIPNS_11__tree_nodeINS_12__value_typeINS_12basic_stringIcNS_11char_traitsIcEENS_9allocatorIcEEEEN5Catch7TagInfoEEEPvEENS_22__tree_node_destructorINS6_ISD_EEEEE5firstEv
FNDA:2001,_ZNSt3__117__compressed_pairIPN5Catch3PtrINS1_22CumulativeReporterBase4NodeINS1_13TestCaseStatsENS3_11SectionNodeEEEEENS_9allocatorIS8_EEE5firstEv
FNDA:100,_ZNSt3__117__compressed_pairIPPKN5Catch20IExceptionTranslatorENS_9allocatorIS4_EEEC1ES5_
FNDA:3146,_ZNKSt3__128__libcpp_compressed_pair_impImNS_4lessINS_12basic_stringIcNS_11char_traitsIcEENS_9allocatorIcEEEEEELj2EE5firstEv
FNDA:6,_ZNSt3__110unique_ptrINS_11__tree_nodeINS_12basic_stringIcNS_11char_traitsIcEENS_9allocatorIcEEEEPvEENS_22__tree_node_destructorINS5_IS9_EEEEE7releaseEv
FNDA:123,_ZNSt3__116allocator_traitsINS_9allocatorIN5Catch15ConsoleReporter13SummaryColumnEEEE9__destroyIS4_EEvNS_17integral_constantIbLb1EEERS5_PT_
FNDA:77,_ZNSt3__128__libcpp_compressed_pair_impIPN5Catch3PtrINS1_22CumulativeReporterBase11SectionNodeEEERNS_9allocatorIS5_EELj0EE6secondEv
FNDA:2001,_ZNSt3__117__compressed_pairIPN5Catch3PtrINS1_22CumulativeReporterBase4NodeINS1_12TestRunStatsENS4_INS1_14TestGroupStatsENS4_INS1_13TestCaseStatsENS3_11SectionNodeEEEEEEEEENS_9allocatorISC_EEE5firstEv
FNDA:334,_ZNSt3__117__compressed_pairIPN5Catch8TestCaseENS_9allocatorIS2_EEEC2ES3_S5_
FNDA:125,_ZNSt3__116allocator_traitsINS_9allocatorIN5Catch3PtrINS2_22CumulativeReporterBase4NodeINS2_13TestCaseStatsENS4_11SectionNodeEEEEEEEE10__max_sizeENS_17integral_constantIbLb1EEERKSA_
FNDA:123,_ZNSt3__116allocator_traitsINS_9allocatorIPKN5Catch20IExceptionTranslatorEEEE9__destroyIS5_EEvNS_17integral_constantIbLb1EEERS6_PT_
FNDA:73,_ZNSt3__116allocator_traitsINS_9allocatorINS_12basic_stringIcNS_11char_traitsIcEENS1_IcEEEEEEE8allocateERS7_m
FNDA:129,_ZNSt3__116allocator_traitsINS_9allocatorINS_6vectorIN5Catch3PtrINS3_22CumulativeReporterBase11SectionNodeEEENS1_IS7_EEEEEEE7destroyIS9_EEvRSA_PT_
FNDA:86,_ZNSt3__128__libcpp_compressed_pair_impIPPN5Catch14IGeneratorInfoERNS_9allocatorIS3_EELj0EE5firstEv
FNDA:334,_ZNSt3__117__compressed_pairImNS_4lessINS_12basic_stringIcNS_11char_traitsIcEENS_9allocatorIcEEEEEEEC1EmS8_
FNDA:0,_ZNSt3__116allocator_traitsINS_9allocatorIPN5Catch16TestCaseTracking8ITrackerEEEE20__construct_backwardIS5_EENS_9enable_ifIXaaoosr7is_sameIS6_NS1_IT_EEEE5valuentsr15__has_constructIS6_PSA_SA_EE5valuesr31is_trivially_move_constructibleISA_EE5valueEvE4typeERS6_SC_SC_RSC_
FNDA:1915,_ZNSt3__128__libcpp_compressed_pair_impIPPN5Catch14IGeneratorInfoENS_9allocatorIS3_EELj2EE5firstEv
FNDA:19,_ZNKSt3__128__libcpp_compressed_pair_impIPN5Catch14AssertionStatsERNS_9allocatorIS2_EELj0EE5firstEv
FNDA:334,_ZNSt3__117__compressed_pairIPN5Catch11MessageInfoENS_9allocatorIS2_EEEC1ES3_S5_
FNDA:6,_ZNSt3__110unique_ptrINS_11__tree_nodeINS_12__value_typeINS_12basic_stringIcNS_11char_traitsIcEENS_9allocatorIcEEEEN5Catch7TagInfoEEEPvEENS_22__tree_node_destructorINS6_ISD_EEEEEC2EPSD_OSG_
FNDA:716,_ZNSt3__128__libcpp_compressed_pair_impINS_15__tree_end_nodeIPNS_16__tree_node_baseIPvEEEENS_9allocatorINS_11__tree_nodeINS_12__value_typeINS_12basic_stringIcNS_11char_traitsIcEENS7_IcEEEEN5Catch7TagInfoEEES3_EEEELj2EEC2Ev
FNDA:77,_ZNSt3__128__libcpp_compressed_pair_impIPN5Catch8TestSpec6FilterERNS_9allocatorIS3_EELj0EE6secondEv
FNDA:334,_ZNSt3__117__compressed_pairIPNS_11__tree_nodeINS_12basic_stringIcNS_11char_traitsIcEENS_9allocatorIcEEEEPvEENS_22__tree_node_destructorINS5_IS9_EEEEEC2ESA_SD_
FNDA:100,_ZNSt3__117__compressed_pairIPN5Catch3PtrINS1_22CumulativeReporterBase4NodeINS1_12TestRunStatsENS4_INS1_14TestGroupStatsENS4_INS1_13TestCaseStatsENS3_11SectionNodeEEEEEEEEENS_9allocatorISC_EEEC1ESD_
FNDA:250,_ZNSt3__116allocator_traitsINS_9allocatorIN5Catch11SectionInfoEEEE8max_sizeERKS4_
FNDA:123,_ZNSt3__19allocatorIN5Catch3PtrINS1_22CumulativeReporterBase4NodeINS1_13TestCaseStatsENS3_11SectionNodeEEEEEE7destroyEPS8_
FNDA:3165,_ZNKSt3__117__compressed_pairIPN5Catch3PtrINS1_22CumulativeReporterBase4NodeINS1_12TestRunStatsENS4_INS1_14TestGroupStatsENS4_INS1_13TestCaseStatsENS3_11SectionNodeEEEEEEEEERNS_9allocatorISC_EEE5firstEv
FNDA:125,_ZNKSt3__19allocatorINS_12basic_stringIcNS_11char_traitsIcEENS0_IcEEEEE8max_sizeEv
FNDA:250,_ZNSt3__116allocator_traitsINS_9allocatorIN5Catch3PtrINS2_16TestCaseTracking8ITrackerEEEEEE8max_sizeERKS7_
FNDA:73,_ZNSt3__116allocator_traitsINS_9allocatorIN5Catch3PtrINS2_22CumulativeReporterBase11SectionNodeEEEEEE10deallocateERS7_PS6_m
FNDA:6,_ZNSt3__116allocator_traitsINS_9allocatorINS_11__tree_nodeINS_12basic_stringIcNS_11char_traitsIcEENS1_IcEEEEPvEEEEE9__destroyIS7_EEvNS_17integral_constantIbLb0EEERSA_PT_
FNDA:258,_ZNSt3__116allocator_traitsINS_9allocatorINS_12basic_stringIcNS_11char_traitsIcEENS1_IcEEEEEEE9constructIS6_JEEEvRS7_PT_DpOT0_
FNDA:129,_ZNSt3__19allocatorIN5Catch3PtrINS1_18IStreamingReporterEEEE9constructIS4_JRKS4_EEEvPT_DpOT0_
FNDA:129,_ZNSt3__116allocator_traitsINS_9allocatorIN5Catch11SectionInfoEEEE11__constructIS3_JRKS3_EEEvNS_17integral_constantIbLb1EEERS4_PT_DpOT0_
FNDA:1432,_ZNSt3__117__compressed_pairINS_15__tree_end_nodeIPNS_16__tree_node_baseIPvEEEENS_9allocatorINS_11__tree_nodeINS_12__value_typeINS_12basic_stringIcNS_11char_traitsIcEENS7_IcEEEEPN5Catch18IGeneratorsForTestEEES3_EEEEEC1Ev
FNDA:334,_ZNSt3__117__compressed_pairIPNS_12basic_stringIcNS_11char_traitsIcEENS_9allocatorIcEEEENS4_IS6_EEEC1ES7_S8_
FNDA:334,_ZNSt3__117__compressed_pairImNS_19__map_value_compareINS_12basic_stringIcNS_11char_traitsIcEENS_9allocatorIcEEEENS_12__value_typeIS7_PN5Catch18IGeneratorsForTestEEENS_4lessIS7_EELb1EEEEC2EmSF_
FNDA:453,_ZNKSt3__117__compressed_pairIPN5Catch3PtrINS1_18IStreamingReporterEEENS_9allocatorIS4_EEE6secondEv
FNDA:3165,_ZNKSt3__117__compressed_pairINS_12basic_stringIwNS_11char_traitsIwEENS_9allocatorIwEEE5__repES5_E5firstEv
FNDA:73,_ZNSt3__116allocator_traitsINS_9allocatorIPKN5Catch20IExceptionTranslatorEEEE8allocateERS6_m
FNDA:6,_ZNSt3__110unique_ptrINS_11__tree_nodeINS_12__value_typeINS_12basic_stringIcNS_11char_traitsIcEENS_9allocatorIcEEEEPN5Catch14IGeneratorInfoEEEPvEENS_22__tree_node_destructorINS6_ISE_EEEEE7releaseEv
FNDA:784,_ZNSt3__117__compressed_pairIPPN5Catch16TestCaseTracking8ITrackerENS_9allocatorIS4_EEE6secondEv
FNDA:707,_ZNSt3__128__libcpp_compressed_pair_impINS_15__tree_end_nodeIPNS_16__tree_node_baseIPvEEEENS_9allocatorINS_11__tree_nodeIN5Catch8TestCaseES3_EEEELj2EE6secondEv
FNDA:334,_ZNSt3__117__compressed_pairImNS_19__map_value_compareINS_12basic_stringIcNS_11char_traitsIcEENS_9allocatorIcEEEENS_12__value_typeIS7_PN5Catch14IGeneratorInfoEEENS_4lessIS7_EELb1EEEEC2EmSF_
FNDA:130,_ZNSt3__128__libcpp_compressed_pair_impImNS_4lessIN5Catch8TestCaseEEELj2EEC2EmS4_
FNDA:784,_ZNSt3__117__compressed_pairIP7__sFILEPFiS2_EE6secondEv
FNDA:250,_ZNSt3__116allocator_traitsINS_9allocatorIN5Catch8TestSpec6FilterEEEE8max_sizeERKS5_
FNDA:19,_ZNKSt3__128__libcpp_compressed_pair_impIPN5Catch3PtrINS1_22CumulativeReporterBase11SectionNodeEEERNS_9allocatorIS5_EELj0EE5firstEv
FNDA:258,_ZNSt3__116allocator_traitsINS_9allocatorIN5Catch3PtrINS2_16IReporterFactoryEEEEEE9constructIS5_JRKS5_EEEvRS6_PT_DpOT0_
FNDA:258,_ZNSt3__116allocator_traitsINS_9allocatorIN5Catch5Clara6Parser5TokenEEEE9constructIS5_JS5_EEEvRS6_PT_DpOT0_
FNDA:3165,_ZNKSt3__117__compressed_pairIPN5Catch14SectionEndInfoENS_9allocatorIS2_EEE5firstEv
FNDA:0,_ZNSt3__116allocator_traitsINS_9allocatorIPKN5Catch20IExceptionTranslatorEEEE20__construct_backwardIS5_EENS_9enable_ifIXaaoosr7is_sameIS6_NS1_IT_EEEE5valuentsr15__has_constructIS6_PSA_SA_EE5valuesr31is_trivially_move_constructibleISA_EE5valueEvE4typeERS6_SC_SC_RSC_
FNDA:35,_ZNSt3__116allocator_traitsINS_9allocatorIN5Catch8TestCaseEEEE25__construct_range_forwardIPS3_S7_EEvRS4_T_S9_RT0_
FNDA:258,_ZNSt3__116allocator_traitsINS_9allocatorINS_11__tree_nodeINS_12basic_stringIcNS_11char_traitsIcEENS1_IcEEEEPvEEEEE9constructIS7_JRKS7_EEEvRSA_PT_DpOT0_
FNDA:3165,_ZNKSt3__117__compressed_pairIPN5Catch3PtrINS1_16IReporterFactoryEEERNS_9allocatorIS4_EEE5firstEv
FNDA:1915,_ZNSt3__128__libcpp_compressed_pair_impINS_15__tree_end_nodeIPNS_16__tree_node_baseIPvEEEENS_9allocatorINS_11__tree_nodeINS_12__value_typeINS_12basic_stringIcNS_11char_traitsIcEENS7_IcEEEEN5Catch3PtrINSF_16IReporterFactoryEEEEES3_EEEELj2EE5firstEv
FNDA:49,_ZNSt3__128__libcpp_compressed_pair_impIPN5Catch3PtrINS1_18IStreamingReporterEEENS_9allocatorIS4_EELj2EEC2ES5_
FNDA:707,_ZNSt3__128__libcpp_compressed_pair_impIPN5Catch3PtrINS1_22CumulativeReporterBase4NodeINS1_13TestCaseStatsENS3_11SectionNodeEEEEENS_9allocatorIS8_EELj2EE6secondEv
FNDA:1,_ZNSt3__110unique_ptrIN5Catch5Clara11CommandLineINS1_10ConfigDataEE3ArgENS_14default_deleteIS6_EEEC1Ev
FNDA:9,_ZNKSt3__110unique_ptrINS_11__tree_nodeINS_12__value_typeINS_12basic_stringIcNS_11char_traitsIcEENS_9allocatorIcEEEEN5Catch7TagInfoEEEPvEENS_22__tree_node_destructorINS6_ISD_EEEEE3getEv
FNDA:1915,_ZNSt3__128__libcpp_compressed_pair_impINS_15__tree_end_nodeIPNS_16__tree_node_baseIPvEEEENS_9allocatorINS_11__tree_nodeINS_12__value_typeINS_12basic_stringIcNS_11char_traitsIcEENS7_IcEEEEPN5Catch18IGeneratorsForTestEEES3_EEEELj2EE5firstEv
FNDA:334,_ZNSt3__117__compressed_pairImNS_19__map_value_compareINS_12basic_stringIcNS_11char_traitsIcEENS_9allocatorIcEEEENS_12__value_typeIS7_N5Catch8TagAliasEEENS_4lessIS7_EELb1EEEEC1EmSE_
FNDA:129,_ZNSt3__116allocator_traitsINS_9allocatorINS_11__tree_nodeINS_12__value_typeINS_12basic_stringIcNS_11char_traitsIcEENS1_IcEEEEN5Catch3PtrINS9_16IReporterFactoryEEEEEPvEEEEE11__constructISD_JNS_4pairIS8_SC_EEEEEvNS_17integral_constantIbLb1EEERSG_PT_DpOT0_
FNDA:31,_ZNSt3__116allocator_traitsINS_9allocatorIN5Catch8TestCaseEEEE20__construct_backwardIPS3_EEvRS4_T_S9_RS9_
FNDA:146,_ZNSt3__19allocatorIN5Catch3PtrINS1_22CumulativeReporterBase4NodeINS1_12TestRunStatsENS4_INS1_14TestGroupStatsENS4_INS1_13TestCaseStatsENS3_11SectionNodeEEEEEEEEEE10deallocateEPSC_m
FNDA:125,_ZNSt3__116allocator_traitsINS_9allocatorINS_12basic_stringIcNS_11char_traitsIcEENS1_IcEEEEEEE10__max_sizeENS_17integral_constantIbLb1EEERKS7_
FNDA:2001,_ZNSt3__117__compressed_pairINS_15__tree_end_nodeIPNS_16__tree_node_baseIPvEEEENS_9allocatorINS_11__tree_nodeINS_12basic_stringIcNS_11char_traitsIcEENS7_IcEEEES3_EEEEE5firstEv
FNDA:86,_ZNSt3__128__libcpp_compressed_pair_impIPPKN5Catch20IExceptionTranslatorERNS_9allocatorIS4_EELj0EE5firstEv
FNDA:784,_ZNSt3__117__compressed_pairINS_15__tree_end_nodeIPNS_16__tree_node_baseIPvEEEENS_9allocatorINS_11__tree_nodeIN5Catch8TestCaseES3_EEEEE6secondEv
FNDA:3165,_ZNKSt3__117__compressed_pairIPN5Catch11MessageInfoERNS_9allocatorIS2_EEE5firstEv
FNDA:765,_ZNSt3__19allocatorIN5Catch3PtrINS1_22CumulativeReporterBase4NodeINS1_14TestGroupStatsENS4_INS1_13TestCaseStatsENS3_11SectionNodeEEEEEEEEC2Ev
FNDA:129,_ZNSt3__19allocatorIN5Catch3PtrINS1_8Matchers4Impl7MatcherINS_12basic_stringIcNS_11char_traitsIcEENS0_IcEEEEEEEEE9constructISC_JRSC_EEEvPT_DpOT0_
FNDA:765,_ZNSt3__19allocatorINS_11__tree_nodeINS_12__value_typeINS_12basic_stringIcNS_11char_traitsIcEENS0_IcEEEEPN5Catch14IGeneratorInfoEEEPvEEEC2Ev
FNDA:129,_ZNSt3__19allocatorIN5Catch3PtrINS1_22CumulativeReporterBase4NodeINS1_12TestRunStatsENS4_INS1_14TestGroupStatsENS4_INS1_13TestCaseStatsENS3_11SectionNodeEEEEEEEEEE9constructISC_JRKSC_EEEvPT_DpOT0_
FNDA:258,_ZNSt3__116allocator_traitsINS_9allocatorIN5Catch3PtrINS2_8Matchers4Impl7MatcherINS_12basic_stringIcNS_11char_traitsIcEENS1_IcEEEEEEEEEEE9constructISD_JRSD_EEEvRSE_PT_DpOT0_
FNDA:707,_ZNSt3__128__libcpp_compressed_pair_impIPN5Catch8TestCaseENS_9allocatorIS2_EELj2EE6secondEv
FNDA:129,_ZNSt3__19allocatorIN5Catch8TestSpec6FilterEE9constructIS3_JS3_EEEvPT_DpOT0_
FNDA:86,_ZNSt3__128__libcpp_compressed_pair_impIPN5Catch3PtrINS1_22CumulativeReporterBase11SectionNodeEEERNS_9allocatorIS5_EELj0EE5firstEv
FNDA:2001,_ZNSt3__117__compressed_pairIPPKN5Catch20IExceptionTranslatorENS_9allocatorIS4_EEE5firstEv
FNDA:784,_ZNSt3__117__compressed_pairIPPKN5Catch20IExceptionTranslatorERNS_9allocatorIS4_EEE6secondEv
FNDA:707,_ZNSt3__128__libcpp_compressed_pair_impIPNS_12basic_stringIcNS_11char_traitsIcEENS_9allocatorIcEEEENS4_IS6_EELj2EE6secondEv
FNDA:2001,_ZNSt3__117__compressed_pairIPN5Catch3PtrINS1_22CumulativeReporterBase4NodeINS1_14TestGroupStatsENS4_INS1_13TestCaseStatsENS3_11SectionNodeEEEEEEENS_9allocatorISA_EEE5firstEv
FNDA:14,_ZNSt3__110unique_ptrI7__sFILEPFiPS1_EED1Ev
FNDA:258,_ZNSt3__116allocator_traitsINS_9allocatorINS_11__tree_nodeINS_12__value_typeINS_12basic_stringIcNS_11char_traitsIcEENS1_IcEEEEN5Catch3PtrINS9_16IReporterFactoryEEEEEPvEEEEE9constructISD_JNS_4pairIS8_SC_EEEEEvRSG_PT_DpOT0_
FNDA:73,_ZNSt3__116allocator_traitsINS_9allocatorIN5Catch3PtrINS2_22CumulativeReporterBase4NodeINS2_12TestRunStatsENS5_INS2_14TestGroupStatsENS5_INS2_13TestCaseStatsENS4_11SectionNodeEEEEEEEEEEEE10deallocateERSE_PSD_m
FNDA:453,_ZNKSt3__117__compressed_pairIPN5Catch5Clara6Parser5TokenENS_9allocatorIS4_EEE6secondEv
FNDA:73,_ZNSt3__19allocatorIN5Catch11SectionInfoEE8allocateEmPKv
FNDA:129,_ZNSt3__116allocator_traitsINS_9allocatorIN5Catch5Clara11CommandLineINS2_10ConfigDataEE3ArgEEEE11__constructIS7_JS7_EEEvNS_17integral_constantIbLb1EEERS8_PT_DpOT0_
FNDA:453,_ZNKSt3__128__libcpp_compressed_pair_impIPN5Catch3PtrINS1_8TestSpec7PatternEEENS_9allocatorIS5_EELj2EE6secondEv
FNDA:123,_ZNSt3__116allocator_traitsINS_9allocatorIN5Catch3PtrINS2_16IReporterFactoryEEEEEE9__destroyIS5_EEvNS_17integral_constantIbLb1EEERS6_PT_
FNDA:125,_ZNKSt3__19allocatorIN5Catch5Clara11CommandLineINS1_10ConfigDataEE3ArgEE8max_sizeEv
FNDA:129,_ZNSt3__19allocatorINS_11__tree_nodeIN5Catch8TestCaseEPvEEE9constructIS3_JRKS3_EEEvPT_DpOT0_
FNDA:129,_ZNSt3__116allocator_traitsINS_9allocatorIN5Catch5Clara6Parser5TokenEEEE11__constructIS5_JS5_EEEvNS_17integral_constantIbLb1EEERS6_PT_DpOT0_
FNDA:765,_ZNSt3__19allocatorIPKN5Catch20IExceptionTranslatorEEC2Ev
FNDA:77,_ZNSt3__128__libcpp_compressed_pair_impIPN5Catch3PtrINS1_22CumulativeReporterBase4NodeINS1_14TestGroupStatsENS4_INS1_13TestCaseStatsENS3_11SectionNodeEEEEEEERNS_9allocatorISA_EELj0EE6secondEv
FNDA:123,_ZNSt3__116allocator_traitsINS_9allocatorIN5Catch14SectionEndInfoEEEE9__destroyIS3_EEvNS_17integral_constantIbLb1EEERS4_PT_
FNDA:6,_ZNSt3__116allocator_traitsINS_9allocatorINS_11__tree_nodeIN5Catch8TestCaseEPvEEEEE9__destroyIS4_EEvNS_17integral_constantIbLb0EEERS7_PT_
FNDA:1915,_ZNSt3__128__libcpp_compressed_pair_impIPN5Catch3PtrINS1_16IReporterFactoryEEENS_9allocatorIS4_EELj2EE5firstEv
FNDA:3165,_ZNKSt3__117__compressed_pairIPN5Catch15ConsoleReporter13SummaryColumnERNS_9allocatorIS3_EEE5firstEv
FNDA:1,_ZNKSt3__114default_deleteIN5Catch5Clara11CommandLineINS1_10ConfigDataEE3ArgEEclEPS6_
FNDA:73,_ZNSt3__116allocator_traitsINS_9allocatorINS_11__tree_nodeINS_12__value_typeINS_12basic_stringIcNS_11char_traitsIcEENS1_IcEEEEN5Catch7TagInfoEEEPvEEEEE8allocateERSE_m
FNDA:228,_ZNSt3__117__compressed_pairINS_12basic_stringIcNS_11char_traitsIcEENS_9allocatorIcEEE5__repES5_EC2ES5_
FNDA:129,_ZNSt3__116allocator_traitsINS_9allocatorIN5Catch3PtrINS2_22CumulativeReporterBase4NodeINS2_13TestCaseStatsENS4_11SectionNodeEEEEEEEE7destroyIS9_EEvRSA_PT_
FNDA:96,_ZNSt3__116allocator_traitsINS_9allocatorIN5Catch8TestSpec6FilterEEEE37select_on_container_copy_constructionENS_17integral_constantIbLb0EEERKS5_
FNDA:1432,_ZNSt3__117__compressed_pairINS_15__tree_end_nodeIPNS_16__tree_node_baseIPvEEEENS_9allocatorINS_11__tree_nodeINS_12__value_typeIiN5Catch5Clara11CommandLineINSA_10ConfigDataEE3ArgEEES3_EEEEEC1Ev
FNDA:334,_ZNSt3__117__compressed_pairImNS_19__map_value_compareIiNS_12__value_typeIiN5Catch5Clara11CommandLineINS3_10ConfigDataEE3ArgEEENS_4lessIiEELb1EEEEC1EmSC_
FNDA:73,_ZNSt3__116allocator_traitsINS_9allocatorINS_11__tree_nodeINS_12basic_stringIcNS_11char_traitsIcEENS1_IcEEEEPvEEEEE8allocateERSA_m
FNDA:2001,_ZNSt3__117__compressed_pairINS_12basic_stringIcNS_11char_traitsIcEENS_9allocatorIcEEE5__repES5_E5firstEv
FNDA:73,_ZNSt3__19allocatorINS_11__tree_nodeINS_12__value_typeINS_12basic_stringIcNS_11char_traitsIcEENS0_IcEEEEN5Catch3PtrINS8_16IReporterFactoryEEEEEPvEEE8allocateEmPKv
FNDA:784,_ZNSt3__117__compressed_pairIPN5Catch3PtrINS1_18IStreamingReporterEEENS_9allocatorIS4_EEE6secondEv
FNDA:3146,_ZNKSt3__128__libcpp_compressed_pair_impImNS_19__map_value_compareINS_12basic_stringIcNS_11char_traitsIcEENS_9allocatorIcEEEENS_12__value_typeIS7_N5Catch3PtrINS9_16IReporterFactoryEEEEENS_4lessIS7_EELb1EEELj2EE5firstEv
FNDA:6,_ZNSt3__110unique_ptrINS_11__tree_nodeIN5Catch8TestCaseEPvEENS_22__tree_node_destructorINS_9allocatorIS5_EEEEEC1EPS5_OS9_
FNDA:77,_ZNSt3__128__libcpp_compressed_pair_impIPN5Catch3PtrINS1_22CumulativeReporterBase4NodeINS1_12TestRunStatsENS4_INS1_14TestGroupStatsENS4_INS1_13TestCaseStatsENS3_11SectionNodeEEEEEEEEERNS_9allocatorISC_EELj0EE6secondEv
FNDA:2,_ZNSt3__18auto_ptrIN5Catch13StreamBufBaseEEC2EPS2_
